
/home/fabrizio/C++Examples/tinyXml/tinyxml/xmltest:     file format elf32-i386


Disassembly of section .init:

08048a9c <_init>:
_init():
 8048a9c:	55                   	push   %ebp
 8048a9d:	89 e5                	mov    %esp,%ebp
 8048a9f:	53                   	push   %ebx
 8048aa0:	83 ec 04             	sub    $0x4,%esp
 8048aa3:	e8 00 00 00 00       	call   8048aa8 <_init+0xc>
 8048aa8:	5b                   	pop    %ebx
 8048aa9:	81 c3 4c 55 01 00    	add    $0x1554c,%ebx
 8048aaf:	8b 93 fc ff ff ff    	mov    -0x4(%ebx),%edx
 8048ab5:	85 d2                	test   %edx,%edx
 8048ab7:	74 05                	je     8048abe <_init+0x22>
 8048ab9:	e8 3e 00 00 00       	call   8048afc <__gmon_start__@plt>
 8048abe:	e8 2d 03 00 00       	call   8048df0 <frame_dummy>
 8048ac3:	e8 08 d9 00 00       	call   80563d0 <__do_global_ctors_aux>
 8048ac8:	58                   	pop    %eax
 8048ac9:	5b                   	pop    %ebx
 8048aca:	c9                   	leave  
 8048acb:	c3                   	ret    

Disassembly of section .plt:

08048acc <fputs@plt-0x10>:
 8048acc:	ff 35 f8 df 05 08    	pushl  0x805dff8
 8048ad2:	ff 25 fc df 05 08    	jmp    *0x805dffc
 8048ad8:	00 00                	add    %al,(%eax)
	...

08048adc <fputs@plt>:
 8048adc:	ff 25 00 e0 05 08    	jmp    *0x805e000
 8048ae2:	68 00 00 00 00       	push   $0x0
 8048ae7:	e9 e0 ff ff ff       	jmp    8048acc <_init+0x30>

08048aec <isalpha@plt>:
 8048aec:	ff 25 04 e0 05 08    	jmp    *0x805e004
 8048af2:	68 08 00 00 00       	push   $0x8
 8048af7:	e9 d0 ff ff ff       	jmp    8048acc <_init+0x30>

08048afc <__gmon_start__@plt>:
 8048afc:	ff 25 08 e0 05 08    	jmp    *0x805e008
 8048b02:	68 10 00 00 00       	push   $0x10
 8048b07:	e9 c0 ff ff ff       	jmp    8048acc <_init+0x30>

08048b0c <_ZdlPv@plt>:
 8048b0c:	ff 25 0c e0 05 08    	jmp    *0x805e00c
 8048b12:	68 18 00 00 00       	push   $0x18
 8048b17:	e9 b0 ff ff ff       	jmp    8048acc <_init+0x30>

08048b1c <isspace@plt>:
 8048b1c:	ff 25 10 e0 05 08    	jmp    *0x805e010
 8048b22:	68 20 00 00 00       	push   $0x20
 8048b27:	e9 a0 ff ff ff       	jmp    8048acc <_init+0x30>

08048b2c <strchr@plt>:
 8048b2c:	ff 25 14 e0 05 08    	jmp    *0x805e014
 8048b32:	68 28 00 00 00       	push   $0x28
 8048b37:	e9 90 ff ff ff       	jmp    8048acc <_init+0x30>

08048b3c <fgets@plt>:
 8048b3c:	ff 25 18 e0 05 08    	jmp    *0x805e018
 8048b42:	68 30 00 00 00       	push   $0x30
 8048b47:	e9 80 ff ff ff       	jmp    8048acc <_init+0x30>

08048b4c <__libc_start_main@plt>:
 8048b4c:	ff 25 1c e0 05 08    	jmp    *0x805e01c
 8048b52:	68 38 00 00 00       	push   $0x38
 8048b57:	e9 70 ff ff ff       	jmp    8048acc <_init+0x30>

08048b5c <__assert_fail@plt>:
 8048b5c:	ff 25 20 e0 05 08    	jmp    *0x805e020
 8048b62:	68 40 00 00 00       	push   $0x40
 8048b67:	e9 60 ff ff ff       	jmp    8048acc <_init+0x30>

08048b6c <fseek@plt>:
 8048b6c:	ff 25 24 e0 05 08    	jmp    *0x805e024
 8048b72:	68 48 00 00 00       	push   $0x48
 8048b77:	e9 50 ff ff ff       	jmp    8048acc <_init+0x30>

08048b7c <fclose@plt>:
 8048b7c:	ff 25 28 e0 05 08    	jmp    *0x805e028
 8048b82:	68 50 00 00 00       	push   $0x50
 8048b87:	e9 40 ff ff ff       	jmp    8048acc <_init+0x30>

08048b8c <memcpy@plt>:
 8048b8c:	ff 25 2c e0 05 08    	jmp    *0x805e02c
 8048b92:	68 58 00 00 00       	push   $0x58
 8048b97:	e9 30 ff ff ff       	jmp    8048acc <_init+0x30>

08048b9c <strlen@plt>:
 8048b9c:	ff 25 30 e0 05 08    	jmp    *0x805e030
 8048ba2:	68 60 00 00 00       	push   $0x60
 8048ba7:	e9 20 ff ff ff       	jmp    8048acc <_init+0x30>

08048bac <fopen@plt>:
 8048bac:	ff 25 34 e0 05 08    	jmp    *0x805e034
 8048bb2:	68 68 00 00 00       	push   $0x68
 8048bb7:	e9 10 ff ff ff       	jmp    8048acc <_init+0x30>

08048bbc <strcpy@plt>:
 8048bbc:	ff 25 38 e0 05 08    	jmp    *0x805e038
 8048bc2:	68 70 00 00 00       	push   $0x70
 8048bc7:	e9 00 ff ff ff       	jmp    8048acc <_init+0x30>

08048bcc <ftell@plt>:
 8048bcc:	ff 25 3c e0 05 08    	jmp    *0x805e03c
 8048bd2:	68 78 00 00 00       	push   $0x78
 8048bd7:	e9 f0 fe ff ff       	jmp    8048acc <_init+0x30>

08048bdc <printf@plt>:
 8048bdc:	ff 25 40 e0 05 08    	jmp    *0x805e040
 8048be2:	68 80 00 00 00       	push   $0x80
 8048be7:	e9 e0 fe ff ff       	jmp    8048acc <_init+0x30>

08048bec <atoi@plt>:
 8048bec:	ff 25 44 e0 05 08    	jmp    *0x805e044
 8048bf2:	68 88 00 00 00       	push   $0x88
 8048bf7:	e9 d0 fe ff ff       	jmp    8048acc <_init+0x30>

08048bfc <__cxa_pure_virtual@plt>:
 8048bfc:	ff 25 48 e0 05 08    	jmp    *0x805e048
 8048c02:	68 90 00 00 00       	push   $0x90
 8048c07:	e9 c0 fe ff ff       	jmp    8048acc <_init+0x30>

08048c0c <_Znwj@plt>:
 8048c0c:	ff 25 4c e0 05 08    	jmp    *0x805e04c
 8048c12:	68 98 00 00 00       	push   $0x98
 8048c17:	e9 b0 fe ff ff       	jmp    8048acc <_init+0x30>

08048c1c <atof@plt>:
 8048c1c:	ff 25 50 e0 05 08    	jmp    *0x805e050
 8048c22:	68 a0 00 00 00       	push   $0xa0
 8048c27:	e9 a0 fe ff ff       	jmp    8048acc <_init+0x30>

08048c2c <fwrite@plt>:
 8048c2c:	ff 25 54 e0 05 08    	jmp    *0x805e054
 8048c32:	68 a8 00 00 00       	push   $0xa8
 8048c37:	e9 90 fe ff ff       	jmp    8048acc <_init+0x30>

08048c3c <_Znaj@plt>:
 8048c3c:	ff 25 58 e0 05 08    	jmp    *0x805e058
 8048c42:	68 b0 00 00 00       	push   $0xb0
 8048c47:	e9 80 fe ff ff       	jmp    8048acc <_init+0x30>

08048c4c <isalnum@plt>:
 8048c4c:	ff 25 5c e0 05 08    	jmp    *0x805e05c
 8048c52:	68 b8 00 00 00       	push   $0xb8
 8048c57:	e9 70 fe ff ff       	jmp    8048acc <_init+0x30>

08048c5c <fprintf@plt>:
 8048c5c:	ff 25 60 e0 05 08    	jmp    *0x805e060
 8048c62:	68 c0 00 00 00       	push   $0xc0
 8048c67:	e9 60 fe ff ff       	jmp    8048acc <_init+0x30>

08048c6c <__stack_chk_fail@plt>:
 8048c6c:	ff 25 64 e0 05 08    	jmp    *0x805e064
 8048c72:	68 c8 00 00 00       	push   $0xc8
 8048c77:	e9 50 fe ff ff       	jmp    8048acc <_init+0x30>

08048c7c <fputc@plt>:
 8048c7c:	ff 25 68 e0 05 08    	jmp    *0x805e068
 8048c82:	68 d0 00 00 00       	push   $0xd0
 8048c87:	e9 40 fe ff ff       	jmp    8048acc <_init+0x30>

08048c8c <memmove@plt>:
 8048c8c:	ff 25 6c e0 05 08    	jmp    *0x805e06c
 8048c92:	68 d8 00 00 00       	push   $0xd8
 8048c97:	e9 30 fe ff ff       	jmp    8048acc <_init+0x30>

08048c9c <_ZdaPv@plt>:
 8048c9c:	ff 25 70 e0 05 08    	jmp    *0x805e070
 8048ca2:	68 e0 00 00 00       	push   $0xe0
 8048ca7:	e9 20 fe ff ff       	jmp    8048acc <_init+0x30>

08048cac <puts@plt>:
 8048cac:	ff 25 74 e0 05 08    	jmp    *0x805e074
 8048cb2:	68 e8 00 00 00       	push   $0xe8
 8048cb7:	e9 10 fe ff ff       	jmp    8048acc <_init+0x30>

08048cbc <sscanf@plt>:
 8048cbc:	ff 25 78 e0 05 08    	jmp    *0x805e078
 8048cc2:	68 f0 00 00 00       	push   $0xf0
 8048cc7:	e9 00 fe ff ff       	jmp    8048acc <_init+0x30>

08048ccc <strncmp@plt>:
 8048ccc:	ff 25 7c e0 05 08    	jmp    *0x805e07c
 8048cd2:	68 f8 00 00 00       	push   $0xf8
 8048cd7:	e9 f0 fd ff ff       	jmp    8048acc <_init+0x30>

08048cdc <fread@plt>:
 8048cdc:	ff 25 80 e0 05 08    	jmp    *0x805e080
 8048ce2:	68 00 01 00 00       	push   $0x100
 8048ce7:	e9 e0 fd ff ff       	jmp    8048acc <_init+0x30>

08048cec <snprintf@plt>:
 8048cec:	ff 25 84 e0 05 08    	jmp    *0x805e084
 8048cf2:	68 08 01 00 00       	push   $0x108
 8048cf7:	e9 d0 fd ff ff       	jmp    8048acc <_init+0x30>

08048cfc <__gxx_personality_v0@plt>:
 8048cfc:	ff 25 88 e0 05 08    	jmp    *0x805e088
 8048d02:	68 10 01 00 00       	push   $0x110
 8048d07:	e9 c0 fd ff ff       	jmp    8048acc <_init+0x30>

08048d0c <_Unwind_Resume@plt>:
 8048d0c:	ff 25 8c e0 05 08    	jmp    *0x805e08c
 8048d12:	68 18 01 00 00       	push   $0x118
 8048d17:	e9 b0 fd ff ff       	jmp    8048acc <_init+0x30>

08048d1c <ferror@plt>:
 8048d1c:	ff 25 90 e0 05 08    	jmp    *0x805e090
 8048d22:	68 20 01 00 00       	push   $0x120
 8048d27:	e9 a0 fd ff ff       	jmp    8048acc <_init+0x30>

08048d2c <tolower@plt>:
 8048d2c:	ff 25 94 e0 05 08    	jmp    *0x805e094
 8048d32:	68 28 01 00 00       	push   $0x128
 8048d37:	e9 90 fd ff ff       	jmp    8048acc <_init+0x30>

08048d3c <strcmp@plt>:
 8048d3c:	ff 25 98 e0 05 08    	jmp    *0x805e098
 8048d42:	68 30 01 00 00       	push   $0x130
 8048d47:	e9 80 fd ff ff       	jmp    8048acc <_init+0x30>

08048d4c <exit@plt>:
 8048d4c:	ff 25 9c e0 05 08    	jmp    *0x805e09c
 8048d52:	68 38 01 00 00       	push   $0x138
 8048d57:	e9 70 fd ff ff       	jmp    8048acc <_init+0x30>

Disassembly of section .text:

08048d60 <_start>:
_start():
/build/buildd/eglibc-2.10.1/csu/../sysdeps/i386/elf/start.S:65
 8048d60:	31 ed                	xor    %ebp,%ebp
/build/buildd/eglibc-2.10.1/csu/../sysdeps/i386/elf/start.S:70
 8048d62:	5e                   	pop    %esi
/build/buildd/eglibc-2.10.1/csu/../sysdeps/i386/elf/start.S:71
 8048d63:	89 e1                	mov    %esp,%ecx
/build/buildd/eglibc-2.10.1/csu/../sysdeps/i386/elf/start.S:77
 8048d65:	83 e4 f0             	and    $0xfffffff0,%esp
/build/buildd/eglibc-2.10.1/csu/../sysdeps/i386/elf/start.S:78
 8048d68:	50                   	push   %eax
/build/buildd/eglibc-2.10.1/csu/../sysdeps/i386/elf/start.S:83
 8048d69:	54                   	push   %esp
/build/buildd/eglibc-2.10.1/csu/../sysdeps/i386/elf/start.S:85
 8048d6a:	52                   	push   %edx
/build/buildd/eglibc-2.10.1/csu/../sysdeps/i386/elf/start.S:109
 8048d6b:	68 60 63 05 08       	push   $0x8056360
/build/buildd/eglibc-2.10.1/csu/../sysdeps/i386/elf/start.S:110
 8048d70:	68 70 63 05 08       	push   $0x8056370
/build/buildd/eglibc-2.10.1/csu/../sysdeps/i386/elf/start.S:112
 8048d75:	51                   	push   %ecx
/build/buildd/eglibc-2.10.1/csu/../sysdeps/i386/elf/start.S:113
 8048d76:	56                   	push   %esi
/build/buildd/eglibc-2.10.1/csu/../sysdeps/i386/elf/start.S:115
 8048d77:	68 86 0b 05 08       	push   $0x8050b86
/build/buildd/eglibc-2.10.1/csu/../sysdeps/i386/elf/start.S:119
 8048d7c:	e8 cb fd ff ff       	call   8048b4c <__libc_start_main@plt>
/build/buildd/eglibc-2.10.1/csu/../sysdeps/i386/elf/start.S:122
 8048d81:	f4                   	hlt    
 8048d82:	90                   	nop
 8048d83:	90                   	nop
 8048d84:	90                   	nop
 8048d85:	90                   	nop
 8048d86:	90                   	nop
 8048d87:	90                   	nop
 8048d88:	90                   	nop
 8048d89:	90                   	nop
 8048d8a:	90                   	nop
 8048d8b:	90                   	nop
 8048d8c:	90                   	nop
 8048d8d:	90                   	nop
 8048d8e:	90                   	nop
 8048d8f:	90                   	nop

08048d90 <__do_global_dtors_aux>:
__do_global_dtors_aux():
 8048d90:	55                   	push   %ebp
 8048d91:	89 e5                	mov    %esp,%ebp
 8048d93:	53                   	push   %ebx
 8048d94:	83 ec 04             	sub    $0x4,%esp
 8048d97:	80 3d c4 e1 05 08 00 	cmpb   $0x0,0x805e1c4
 8048d9e:	75 3f                	jne    8048ddf <__do_global_dtors_aux+0x4f>
 8048da0:	a1 c8 e1 05 08       	mov    0x805e1c8,%eax
 8048da5:	bb 00 df 05 08       	mov    $0x805df00,%ebx
 8048daa:	81 eb fc de 05 08    	sub    $0x805defc,%ebx
 8048db0:	c1 fb 02             	sar    $0x2,%ebx
 8048db3:	83 eb 01             	sub    $0x1,%ebx
 8048db6:	39 d8                	cmp    %ebx,%eax
 8048db8:	73 1e                	jae    8048dd8 <__do_global_dtors_aux+0x48>
 8048dba:	8d b6 00 00 00 00    	lea    0x0(%esi),%esi
 8048dc0:	83 c0 01             	add    $0x1,%eax
 8048dc3:	a3 c8 e1 05 08       	mov    %eax,0x805e1c8
 8048dc8:	ff 14 85 fc de 05 08 	call   *0x805defc(,%eax,4)
 8048dcf:	a1 c8 e1 05 08       	mov    0x805e1c8,%eax
 8048dd4:	39 d8                	cmp    %ebx,%eax
 8048dd6:	72 e8                	jb     8048dc0 <__do_global_dtors_aux+0x30>
 8048dd8:	c6 05 c4 e1 05 08 01 	movb   $0x1,0x805e1c4
 8048ddf:	83 c4 04             	add    $0x4,%esp
 8048de2:	5b                   	pop    %ebx
 8048de3:	5d                   	pop    %ebp
 8048de4:	c3                   	ret    
 8048de5:	8d 74 26 00          	lea    0x0(%esi,%eiz,1),%esi
 8048de9:	8d bc 27 00 00 00 00 	lea    0x0(%edi,%eiz,1),%edi

08048df0 <frame_dummy>:
frame_dummy():
 8048df0:	55                   	push   %ebp
 8048df1:	89 e5                	mov    %esp,%ebp
 8048df3:	83 ec 18             	sub    $0x18,%esp
 8048df6:	a1 04 df 05 08       	mov    0x805df04,%eax
 8048dfb:	85 c0                	test   %eax,%eax
 8048dfd:	74 12                	je     8048e11 <frame_dummy+0x21>
 8048dff:	b8 00 00 00 00       	mov    $0x0,%eax
 8048e04:	85 c0                	test   %eax,%eax
 8048e06:	74 09                	je     8048e11 <frame_dummy+0x21>
 8048e08:	c7 04 24 04 df 05 08 	movl   $0x805df04,(%esp)
 8048e0f:	ff d0                	call   *%eax
 8048e11:	c9                   	leave  
 8048e12:	c3                   	ret    
 8048e13:	90                   	nop

08048e14 <_Z10TiXmlFOpenPKcS0_>:
_Z10TiXmlFOpenPKcS0_():
/home/fabrizio/C++Examples/tinyXml/tinyxml/tinyxml.cpp:40
 8048e14:	55                   	push   %ebp
 8048e15:	89 e5                	mov    %esp,%ebp
 8048e17:	83 ec 18             	sub    $0x18,%esp
/home/fabrizio/C++Examples/tinyXml/tinyxml/tinyxml.cpp:48
 8048e1a:	8b 45 0c             	mov    0xc(%ebp),%eax
 8048e1d:	89 44 24 04          	mov    %eax,0x4(%esp)
 8048e21:	8b 45 08             	mov    0x8(%ebp),%eax
 8048e24:	89 04 24             	mov    %eax,(%esp)
 8048e27:	e8 80 fd ff ff       	call   8048bac <fopen@plt>
/home/fabrizio/C++Examples/tinyXml/tinyxml/tinyxml.cpp:50
 8048e2c:	c9                   	leave  
 8048e2d:	c3                   	ret    

08048e2e <_ZN9TiXmlBase12EncodeStringERK11TiXmlStringPS0_>:
_ZN9TiXmlBase12EncodeStringERK11TiXmlStringPS0_():
/home/fabrizio/C++Examples/tinyXml/tinyxml/tinyxml.cpp:53
 8048e2e:	55                   	push   %ebp
 8048e2f:	89 e5                	mov    %esp,%ebp
 8048e31:	83 ec 58             	sub    $0x58,%esp
 8048e34:	8b 45 08             	mov    0x8(%ebp),%eax
 8048e37:	89 45 c4             	mov    %eax,-0x3c(%ebp)
 8048e3a:	8b 45 0c             	mov    0xc(%ebp),%eax
 8048e3d:	89 45 c0             	mov    %eax,-0x40(%ebp)
 8048e40:	65 a1 14 00 00 00    	mov    %gs:0x14,%eax
 8048e46:	89 45 f4             	mov    %eax,-0xc(%ebp)
 8048e49:	31 c0                	xor    %eax,%eax
/home/fabrizio/C++Examples/tinyXml/tinyxml/tinyxml.cpp:54
 8048e4b:	c7 45 cc 00 00 00 00 	movl   $0x0,-0x34(%ebp)
/home/fabrizio/C++Examples/tinyXml/tinyxml/tinyxml.cpp:56
 8048e52:	e9 30 02 00 00       	jmp    8049087 <_ZN9TiXmlBase12EncodeStringERK11TiXmlStringPS0_+0x259>
/home/fabrizio/C++Examples/tinyXml/tinyxml/tinyxml.cpp:58
 8048e57:	8b 45 cc             	mov    -0x34(%ebp),%eax
 8048e5a:	89 44 24 04          	mov    %eax,0x4(%esp)
 8048e5e:	8b 45 c4             	mov    -0x3c(%ebp),%eax
 8048e61:	89 04 24             	mov    %eax,(%esp)
 8048e64:	e8 15 44 00 00       	call   804d27e <_ZNK11TiXmlStringixEj>
 8048e69:	0f b6 00             	movzbl (%eax),%eax
 8048e6c:	88 45 d3             	mov    %al,-0x2d(%ebp)
/home/fabrizio/C++Examples/tinyXml/tinyxml/tinyxml.cpp:60
 8048e6f:	80 7d d3 26          	cmpb   $0x26,-0x2d(%ebp)
 8048e73:	75 52                	jne    8048ec7 <_ZN9TiXmlBase12EncodeStringERK11TiXmlStringPS0_+0x99>
 8048e75:	8b 45 c4             	mov    -0x3c(%ebp),%eax
 8048e78:	89 04 24             	mov    %eax,(%esp)
 8048e7b:	e8 e0 43 00 00       	call   804d260 <_ZNK11TiXmlString6lengthEv>
 8048e80:	83 e8 02             	sub    $0x2,%eax
 8048e83:	3b 45 cc             	cmp    -0x34(%ebp),%eax
 8048e86:	7e 3f                	jle    8048ec7 <_ZN9TiXmlBase12EncodeStringERK11TiXmlStringPS0_+0x99>
 8048e88:	8b 45 cc             	mov    -0x34(%ebp),%eax
 8048e8b:	83 c0 01             	add    $0x1,%eax
 8048e8e:	89 44 24 04          	mov    %eax,0x4(%esp)
 8048e92:	8b 45 c4             	mov    -0x3c(%ebp),%eax
 8048e95:	89 04 24             	mov    %eax,(%esp)
 8048e98:	e8 e1 43 00 00       	call   804d27e <_ZNK11TiXmlStringixEj>
 8048e9d:	0f b6 00             	movzbl (%eax),%eax
 8048ea0:	3c 23                	cmp    $0x23,%al
 8048ea2:	75 23                	jne    8048ec7 <_ZN9TiXmlBase12EncodeStringERK11TiXmlStringPS0_+0x99>
 8048ea4:	8b 45 cc             	mov    -0x34(%ebp),%eax
 8048ea7:	83 c0 02             	add    $0x2,%eax
 8048eaa:	89 44 24 04          	mov    %eax,0x4(%esp)
 8048eae:	8b 45 c4             	mov    -0x3c(%ebp),%eax
 8048eb1:	89 04 24             	mov    %eax,(%esp)
 8048eb4:	e8 c5 43 00 00       	call   804d27e <_ZNK11TiXmlStringixEj>
 8048eb9:	0f b6 00             	movzbl (%eax),%eax
 8048ebc:	3c 78                	cmp    $0x78,%al
 8048ebe:	75 07                	jne    8048ec7 <_ZN9TiXmlBase12EncodeStringERK11TiXmlStringPS0_+0x99>
 8048ec0:	b8 01 00 00 00       	mov    $0x1,%eax
 8048ec5:	eb 05                	jmp    8048ecc <_ZN9TiXmlBase12EncodeStringERK11TiXmlStringPS0_+0x9e>
 8048ec7:	b8 00 00 00 00       	mov    $0x0,%eax
 8048ecc:	84 c0                	test   %al,%al
 8048ece:	74 6c                	je     8048f3c <_ZN9TiXmlBase12EncodeStringERK11TiXmlStringPS0_+0x10e>
/home/fabrizio/C++Examples/tinyXml/tinyxml/tinyxml.cpp:75
 8048ed0:	eb 4d                	jmp    8048f1f <_ZN9TiXmlBase12EncodeStringERK11TiXmlStringPS0_+0xf1>
/home/fabrizio/C++Examples/tinyXml/tinyxml/tinyxml.cpp:77
 8048ed2:	8b 45 c4             	mov    -0x3c(%ebp),%eax
 8048ed5:	89 04 24             	mov    %eax,(%esp)
 8048ed8:	e8 67 43 00 00       	call   804d244 <_ZNK11TiXmlString5c_strEv>
 8048edd:	8b 55 cc             	mov    -0x34(%ebp),%edx
 8048ee0:	01 d0                	add    %edx,%eax
 8048ee2:	c7 44 24 08 01 00 00 	movl   $0x1,0x8(%esp)
 8048ee9:	00 
 8048eea:	89 44 24 04          	mov    %eax,0x4(%esp)
 8048eee:	8b 45 c0             	mov    -0x40(%ebp),%eax
 8048ef1:	89 04 24             	mov    %eax,(%esp)
 8048ef4:	e8 cb d1 00 00       	call   80560c4 <_ZN11TiXmlString6appendEPKcj>
/home/fabrizio/C++Examples/tinyXml/tinyxml/tinyxml.cpp:78
 8048ef9:	83 45 cc 01          	addl   $0x1,-0x34(%ebp)
/home/fabrizio/C++Examples/tinyXml/tinyxml/tinyxml.cpp:79
 8048efd:	8b 45 cc             	mov    -0x34(%ebp),%eax
 8048f00:	89 44 24 04          	mov    %eax,0x4(%esp)
 8048f04:	8b 45 c4             	mov    -0x3c(%ebp),%eax
 8048f07:	89 04 24             	mov    %eax,(%esp)
 8048f0a:	e8 6f 43 00 00       	call   804d27e <_ZNK11TiXmlStringixEj>
 8048f0f:	0f b6 00             	movzbl (%eax),%eax
 8048f12:	3c 3b                	cmp    $0x3b,%al
 8048f14:	0f 94 c0             	sete   %al
 8048f17:	84 c0                	test   %al,%al
 8048f19:	0f 85 67 01 00 00    	jne    8049086 <_ZN9TiXmlBase12EncodeStringERK11TiXmlStringPS0_+0x258>
/home/fabrizio/C++Examples/tinyXml/tinyxml/tinyxml.cpp:75
 8048f1f:	8b 45 c4             	mov    -0x3c(%ebp),%eax
 8048f22:	89 04 24             	mov    %eax,(%esp)
 8048f25:	e8 36 43 00 00       	call   804d260 <_ZNK11TiXmlString6lengthEv>
 8048f2a:	83 e8 01             	sub    $0x1,%eax
 8048f2d:	3b 45 cc             	cmp    -0x34(%ebp),%eax
 8048f30:	0f 9f c0             	setg   %al
 8048f33:	84 c0                	test   %al,%al
 8048f35:	75 9b                	jne    8048ed2 <_ZN9TiXmlBase12EncodeStringERK11TiXmlStringPS0_+0xa4>
 8048f37:	e9 4b 01 00 00       	jmp    8049087 <_ZN9TiXmlBase12EncodeStringERK11TiXmlStringPS0_+0x259>
/home/fabrizio/C++Examples/tinyXml/tinyxml/tinyxml.cpp:83
 8048f3c:	80 7d d3 26          	cmpb   $0x26,-0x2d(%ebp)
 8048f40:	75 27                	jne    8048f69 <_ZN9TiXmlBase12EncodeStringERK11TiXmlStringPS0_+0x13b>
/home/fabrizio/C++Examples/tinyXml/tinyxml/tinyxml.cpp:85
 8048f42:	8b 15 c4 e0 05 08    	mov    0x805e0c4,%edx
 8048f48:	a1 c0 e0 05 08       	mov    0x805e0c0,%eax
 8048f4d:	89 54 24 08          	mov    %edx,0x8(%esp)
 8048f51:	89 44 24 04          	mov    %eax,0x4(%esp)
 8048f55:	8b 45 c0             	mov    -0x40(%ebp),%eax
 8048f58:	89 04 24             	mov    %eax,(%esp)
 8048f5b:	e8 64 d1 00 00       	call   80560c4 <_ZN11TiXmlString6appendEPKcj>
/home/fabrizio/C++Examples/tinyXml/tinyxml/tinyxml.cpp:86
 8048f60:	83 45 cc 01          	addl   $0x1,-0x34(%ebp)
 8048f64:	e9 1e 01 00 00       	jmp    8049087 <_ZN9TiXmlBase12EncodeStringERK11TiXmlStringPS0_+0x259>
/home/fabrizio/C++Examples/tinyXml/tinyxml/tinyxml.cpp:88
 8048f69:	80 7d d3 3c          	cmpb   $0x3c,-0x2d(%ebp)
 8048f6d:	75 27                	jne    8048f96 <_ZN9TiXmlBase12EncodeStringERK11TiXmlStringPS0_+0x168>
/home/fabrizio/C++Examples/tinyXml/tinyxml/tinyxml.cpp:90
 8048f6f:	8b 15 d0 e0 05 08    	mov    0x805e0d0,%edx
 8048f75:	a1 cc e0 05 08       	mov    0x805e0cc,%eax
 8048f7a:	89 54 24 08          	mov    %edx,0x8(%esp)
 8048f7e:	89 44 24 04          	mov    %eax,0x4(%esp)
 8048f82:	8b 45 c0             	mov    -0x40(%ebp),%eax
 8048f85:	89 04 24             	mov    %eax,(%esp)
 8048f88:	e8 37 d1 00 00       	call   80560c4 <_ZN11TiXmlString6appendEPKcj>
/home/fabrizio/C++Examples/tinyXml/tinyxml/tinyxml.cpp:91
 8048f8d:	83 45 cc 01          	addl   $0x1,-0x34(%ebp)
 8048f91:	e9 f1 00 00 00       	jmp    8049087 <_ZN9TiXmlBase12EncodeStringERK11TiXmlStringPS0_+0x259>
/home/fabrizio/C++Examples/tinyXml/tinyxml/tinyxml.cpp:93
 8048f96:	80 7d d3 3e          	cmpb   $0x3e,-0x2d(%ebp)
 8048f9a:	75 27                	jne    8048fc3 <_ZN9TiXmlBase12EncodeStringERK11TiXmlStringPS0_+0x195>
/home/fabrizio/C++Examples/tinyXml/tinyxml/tinyxml.cpp:95
 8048f9c:	8b 15 dc e0 05 08    	mov    0x805e0dc,%edx
 8048fa2:	a1 d8 e0 05 08       	mov    0x805e0d8,%eax
 8048fa7:	89 54 24 08          	mov    %edx,0x8(%esp)
 8048fab:	89 44 24 04          	mov    %eax,0x4(%esp)
 8048faf:	8b 45 c0             	mov    -0x40(%ebp),%eax
 8048fb2:	89 04 24             	mov    %eax,(%esp)
 8048fb5:	e8 0a d1 00 00       	call   80560c4 <_ZN11TiXmlString6appendEPKcj>
/home/fabrizio/C++Examples/tinyXml/tinyxml/tinyxml.cpp:96
 8048fba:	83 45 cc 01          	addl   $0x1,-0x34(%ebp)
 8048fbe:	e9 c4 00 00 00       	jmp    8049087 <_ZN9TiXmlBase12EncodeStringERK11TiXmlStringPS0_+0x259>
/home/fabrizio/C++Examples/tinyXml/tinyxml/tinyxml.cpp:98
 8048fc3:	80 7d d3 22          	cmpb   $0x22,-0x2d(%ebp)
 8048fc7:	75 27                	jne    8048ff0 <_ZN9TiXmlBase12EncodeStringERK11TiXmlStringPS0_+0x1c2>
/home/fabrizio/C++Examples/tinyXml/tinyxml/tinyxml.cpp:100
 8048fc9:	8b 15 e8 e0 05 08    	mov    0x805e0e8,%edx
 8048fcf:	a1 e4 e0 05 08       	mov    0x805e0e4,%eax
 8048fd4:	89 54 24 08          	mov    %edx,0x8(%esp)
 8048fd8:	89 44 24 04          	mov    %eax,0x4(%esp)
 8048fdc:	8b 45 c0             	mov    -0x40(%ebp),%eax
 8048fdf:	89 04 24             	mov    %eax,(%esp)
 8048fe2:	e8 dd d0 00 00       	call   80560c4 <_ZN11TiXmlString6appendEPKcj>
/home/fabrizio/C++Examples/tinyXml/tinyxml/tinyxml.cpp:101
 8048fe7:	83 45 cc 01          	addl   $0x1,-0x34(%ebp)
 8048feb:	e9 97 00 00 00       	jmp    8049087 <_ZN9TiXmlBase12EncodeStringERK11TiXmlStringPS0_+0x259>
/home/fabrizio/C++Examples/tinyXml/tinyxml/tinyxml.cpp:103
 8048ff0:	80 7d d3 27          	cmpb   $0x27,-0x2d(%ebp)
 8048ff4:	75 24                	jne    804901a <_ZN9TiXmlBase12EncodeStringERK11TiXmlStringPS0_+0x1ec>
/home/fabrizio/C++Examples/tinyXml/tinyxml/tinyxml.cpp:105
 8048ff6:	8b 15 f4 e0 05 08    	mov    0x805e0f4,%edx
 8048ffc:	a1 f0 e0 05 08       	mov    0x805e0f0,%eax
 8049001:	89 54 24 08          	mov    %edx,0x8(%esp)
 8049005:	89 44 24 04          	mov    %eax,0x4(%esp)
 8049009:	8b 45 c0             	mov    -0x40(%ebp),%eax
 804900c:	89 04 24             	mov    %eax,(%esp)
 804900f:	e8 b0 d0 00 00       	call   80560c4 <_ZN11TiXmlString6appendEPKcj>
/home/fabrizio/C++Examples/tinyXml/tinyxml/tinyxml.cpp:106
 8049014:	83 45 cc 01          	addl   $0x1,-0x34(%ebp)
 8049018:	eb 6d                	jmp    8049087 <_ZN9TiXmlBase12EncodeStringERK11TiXmlStringPS0_+0x259>
/home/fabrizio/C++Examples/tinyXml/tinyxml/tinyxml.cpp:108
 804901a:	80 7d d3 1f          	cmpb   $0x1f,-0x2d(%ebp)
 804901e:	77 4a                	ja     804906a <_ZN9TiXmlBase12EncodeStringERK11TiXmlStringPS0_+0x23c>
/home/fabrizio/C++Examples/tinyXml/tinyxml/tinyxml.cpp:115
 8049020:	0f b6 45 d3          	movzbl -0x2d(%ebp),%eax
 8049024:	89 44 24 0c          	mov    %eax,0xc(%esp)
 8049028:	c7 44 24 08 5c 64 05 	movl   $0x805645c,0x8(%esp)
 804902f:	08 
 8049030:	c7 44 24 04 20 00 00 	movl   $0x20,0x4(%esp)
 8049037:	00 
 8049038:	8d 45 d4             	lea    -0x2c(%ebp),%eax
 804903b:	89 04 24             	mov    %eax,(%esp)
 804903e:	e8 a9 fc ff ff       	call   8048cec <snprintf@plt>
/home/fabrizio/C++Examples/tinyXml/tinyxml/tinyxml.cpp:122
 8049043:	8d 45 d4             	lea    -0x2c(%ebp),%eax
 8049046:	89 04 24             	mov    %eax,(%esp)
 8049049:	e8 4e fb ff ff       	call   8048b9c <strlen@plt>
 804904e:	89 44 24 08          	mov    %eax,0x8(%esp)
 8049052:	8d 45 d4             	lea    -0x2c(%ebp),%eax
 8049055:	89 44 24 04          	mov    %eax,0x4(%esp)
 8049059:	8b 45 c0             	mov    -0x40(%ebp),%eax
 804905c:	89 04 24             	mov    %eax,(%esp)
 804905f:	e8 60 d0 00 00       	call   80560c4 <_ZN11TiXmlString6appendEPKcj>
/home/fabrizio/C++Examples/tinyXml/tinyxml/tinyxml.cpp:123
 8049064:	83 45 cc 01          	addl   $0x1,-0x34(%ebp)
 8049068:	eb 1d                	jmp    8049087 <_ZN9TiXmlBase12EncodeStringERK11TiXmlStringPS0_+0x259>
/home/fabrizio/C++Examples/tinyXml/tinyxml/tinyxml.cpp:129
 804906a:	0f b6 45 d3          	movzbl -0x2d(%ebp),%eax
 804906e:	0f be c0             	movsbl %al,%eax
 8049071:	89 44 24 04          	mov    %eax,0x4(%esp)
 8049075:	8b 45 c0             	mov    -0x40(%ebp),%eax
 8049078:	89 04 24             	mov    %eax,(%esp)
 804907b:	e8 64 41 00 00       	call   804d1e4 <_ZN11TiXmlStringpLEc>
/home/fabrizio/C++Examples/tinyXml/tinyxml/tinyxml.cpp:130
 8049080:	83 45 cc 01          	addl   $0x1,-0x34(%ebp)
 8049084:	eb 01                	jmp    8049087 <_ZN9TiXmlBase12EncodeStringERK11TiXmlStringPS0_+0x259>
/home/fabrizio/C++Examples/tinyXml/tinyxml/tinyxml.cpp:80
 8049086:	90                   	nop
/home/fabrizio/C++Examples/tinyXml/tinyxml/tinyxml.cpp:56
 8049087:	8b 45 c4             	mov    -0x3c(%ebp),%eax
 804908a:	89 04 24             	mov    %eax,(%esp)
 804908d:	e8 ce 41 00 00       	call   804d260 <_ZNK11TiXmlString6lengthEv>
 8049092:	3b 45 cc             	cmp    -0x34(%ebp),%eax
 8049095:	0f 9f c0             	setg   %al
 8049098:	84 c0                	test   %al,%al
 804909a:	0f 85 b7 fd ff ff    	jne    8048e57 <_ZN9TiXmlBase12EncodeStringERK11TiXmlStringPS0_+0x29>
/home/fabrizio/C++Examples/tinyXml/tinyxml/tinyxml.cpp:133
 80490a0:	8b 45 f4             	mov    -0xc(%ebp),%eax
 80490a3:	65 33 05 14 00 00 00 	xor    %gs:0x14,%eax
 80490aa:	74 05                	je     80490b1 <_ZN9TiXmlBase12EncodeStringERK11TiXmlStringPS0_+0x283>
 80490ac:	e8 bb fb ff ff       	call   8048c6c <__stack_chk_fail@plt>
 80490b1:	c9                   	leave  
 80490b2:	c3                   	ret    
 80490b3:	90                   	nop

080490b4 <_ZN9TiXmlNodeC2ENS_8NodeTypeE>:
TiXmlNode():
/home/fabrizio/C++Examples/tinyXml/tinyxml/tinyxml.cpp:136
 80490b4:	55                   	push   %ebp
 80490b5:	89 e5                	mov    %esp,%ebp
 80490b7:	83 ec 18             	sub    $0x18,%esp
 80490ba:	8b 45 08             	mov    0x8(%ebp),%eax
 80490bd:	89 04 24             	mov    %eax,(%esp)
 80490c0:	e8 57 44 00 00       	call   804d51c <_ZN9TiXmlBaseC2Ev>
 80490c5:	8b 45 08             	mov    0x8(%ebp),%eax
 80490c8:	c7 00 08 6d 05 08    	movl   $0x8056d08,(%eax)
 80490ce:	8b 45 08             	mov    0x8(%ebp),%eax
 80490d1:	83 c0 20             	add    $0x20,%eax
 80490d4:	89 04 24             	mov    %eax,(%esp)
 80490d7:	e8 fe 3f 00 00       	call   804d0da <_ZN11TiXmlStringC1Ev>
/home/fabrizio/C++Examples/tinyXml/tinyxml/tinyxml.cpp:138
 80490dc:	8b 45 08             	mov    0x8(%ebp),%eax
 80490df:	c7 40 10 00 00 00 00 	movl   $0x0,0x10(%eax)
/home/fabrizio/C++Examples/tinyXml/tinyxml/tinyxml.cpp:139
 80490e6:	8b 45 08             	mov    0x8(%ebp),%eax
 80490e9:	8b 55 0c             	mov    0xc(%ebp),%edx
 80490ec:	89 50 14             	mov    %edx,0x14(%eax)
/home/fabrizio/C++Examples/tinyXml/tinyxml/tinyxml.cpp:140
 80490ef:	8b 45 08             	mov    0x8(%ebp),%eax
 80490f2:	c7 40 18 00 00 00 00 	movl   $0x0,0x18(%eax)
/home/fabrizio/C++Examples/tinyXml/tinyxml/tinyxml.cpp:141
 80490f9:	8b 45 08             	mov    0x8(%ebp),%eax
 80490fc:	c7 40 1c 00 00 00 00 	movl   $0x0,0x1c(%eax)
/home/fabrizio/C++Examples/tinyXml/tinyxml/tinyxml.cpp:142
 8049103:	8b 45 08             	mov    0x8(%ebp),%eax
 8049106:	c7 40 24 00 00 00 00 	movl   $0x0,0x24(%eax)
/home/fabrizio/C++Examples/tinyXml/tinyxml/tinyxml.cpp:143
 804910d:	8b 45 08             	mov    0x8(%ebp),%eax
 8049110:	c7 40 28 00 00 00 00 	movl   $0x0,0x28(%eax)
/home/fabrizio/C++Examples/tinyXml/tinyxml/tinyxml.cpp:144
 8049117:	c9                   	leave  
 8049118:	c3                   	ret    
_ZN9TiXmlNodeC2ENS_8NodeTypeE():
 8049119:	90                   	nop

0804911a <_ZN9TiXmlNodeC1ENS_8NodeTypeE>:
TiXmlNode():
/home/fabrizio/C++Examples/tinyXml/tinyxml/tinyxml.cpp:136
 804911a:	55                   	push   %ebp
 804911b:	89 e5                	mov    %esp,%ebp
 804911d:	83 ec 18             	sub    $0x18,%esp
 8049120:	8b 45 08             	mov    0x8(%ebp),%eax
 8049123:	89 04 24             	mov    %eax,(%esp)
 8049126:	e8 f1 43 00 00       	call   804d51c <_ZN9TiXmlBaseC2Ev>
 804912b:	8b 45 08             	mov    0x8(%ebp),%eax
 804912e:	c7 00 08 6d 05 08    	movl   $0x8056d08,(%eax)
 8049134:	8b 45 08             	mov    0x8(%ebp),%eax
 8049137:	83 c0 20             	add    $0x20,%eax
 804913a:	89 04 24             	mov    %eax,(%esp)
 804913d:	e8 98 3f 00 00       	call   804d0da <_ZN11TiXmlStringC1Ev>
/home/fabrizio/C++Examples/tinyXml/tinyxml/tinyxml.cpp:138
 8049142:	8b 45 08             	mov    0x8(%ebp),%eax
 8049145:	c7 40 10 00 00 00 00 	movl   $0x0,0x10(%eax)
/home/fabrizio/C++Examples/tinyXml/tinyxml/tinyxml.cpp:139
 804914c:	8b 45 08             	mov    0x8(%ebp),%eax
 804914f:	8b 55 0c             	mov    0xc(%ebp),%edx
 8049152:	89 50 14             	mov    %edx,0x14(%eax)
/home/fabrizio/C++Examples/tinyXml/tinyxml/tinyxml.cpp:140
 8049155:	8b 45 08             	mov    0x8(%ebp),%eax
 8049158:	c7 40 18 00 00 00 00 	movl   $0x0,0x18(%eax)
/home/fabrizio/C++Examples/tinyXml/tinyxml/tinyxml.cpp:141
 804915f:	8b 45 08             	mov    0x8(%ebp),%eax
 8049162:	c7 40 1c 00 00 00 00 	movl   $0x0,0x1c(%eax)
/home/fabrizio/C++Examples/tinyXml/tinyxml/tinyxml.cpp:142
 8049169:	8b 45 08             	mov    0x8(%ebp),%eax
 804916c:	c7 40 24 00 00 00 00 	movl   $0x0,0x24(%eax)
/home/fabrizio/C++Examples/tinyXml/tinyxml/tinyxml.cpp:143
 8049173:	8b 45 08             	mov    0x8(%ebp),%eax
 8049176:	c7 40 28 00 00 00 00 	movl   $0x0,0x28(%eax)
/home/fabrizio/C++Examples/tinyXml/tinyxml/tinyxml.cpp:144
 804917d:	c9                   	leave  
 804917e:	c3                   	ret    
_ZN9TiXmlNodeC1ENS_8NodeTypeE():
 804917f:	90                   	nop

08049180 <_ZN9TiXmlNodeD2Ev>:
~TiXmlNode():
/home/fabrizio/C++Examples/tinyXml/tinyxml/tinyxml.cpp:147
 8049180:	55                   	push   %ebp
 8049181:	89 e5                	mov    %esp,%ebp
 8049183:	56                   	push   %esi
 8049184:	53                   	push   %ebx
 8049185:	83 ec 20             	sub    $0x20,%esp
 8049188:	8b 45 08             	mov    0x8(%ebp),%eax
 804918b:	c7 00 08 6d 05 08    	movl   $0x8056d08,(%eax)
/home/fabrizio/C++Examples/tinyXml/tinyxml/tinyxml.cpp:149
 8049191:	8b 45 08             	mov    0x8(%ebp),%eax
 8049194:	8b 40 18             	mov    0x18(%eax),%eax
 8049197:	89 45 f4             	mov    %eax,-0xc(%ebp)
/home/fabrizio/C++Examples/tinyXml/tinyxml/tinyxml.cpp:150
 804919a:	c7 45 f0 00 00 00 00 	movl   $0x0,-0x10(%ebp)
/home/fabrizio/C++Examples/tinyXml/tinyxml/tinyxml.cpp:152
 80491a1:	eb 27                	jmp    80491ca <_ZN9TiXmlNodeD2Ev+0x4a>
/home/fabrizio/C++Examples/tinyXml/tinyxml/tinyxml.cpp:154
 80491a3:	8b 45 f4             	mov    -0xc(%ebp),%eax
 80491a6:	89 45 f0             	mov    %eax,-0x10(%ebp)
/home/fabrizio/C++Examples/tinyXml/tinyxml/tinyxml.cpp:155
 80491a9:	8b 45 f4             	mov    -0xc(%ebp),%eax
 80491ac:	8b 40 28             	mov    0x28(%eax),%eax
 80491af:	89 45 f4             	mov    %eax,-0xc(%ebp)
/home/fabrizio/C++Examples/tinyXml/tinyxml/tinyxml.cpp:156
 80491b2:	83 7d f0 00          	cmpl   $0x0,-0x10(%ebp)
 80491b6:	74 12                	je     80491ca <_ZN9TiXmlNodeD2Ev+0x4a>
 80491b8:	8b 45 f0             	mov    -0x10(%ebp),%eax
 80491bb:	8b 00                	mov    (%eax),%eax
 80491bd:	83 c0 04             	add    $0x4,%eax
 80491c0:	8b 10                	mov    (%eax),%edx
 80491c2:	8b 45 f0             	mov    -0x10(%ebp),%eax
 80491c5:	89 04 24             	mov    %eax,(%esp)
 80491c8:	ff d2                	call   *%edx
/home/fabrizio/C++Examples/tinyXml/tinyxml/tinyxml.cpp:152
 80491ca:	83 7d f4 00          	cmpl   $0x0,-0xc(%ebp)
 80491ce:	0f 95 c0             	setne  %al
 80491d1:	84 c0                	test   %al,%al
 80491d3:	75 ce                	jne    80491a3 <_ZN9TiXmlNodeD2Ev+0x23>
/home/fabrizio/C++Examples/tinyXml/tinyxml/tinyxml.cpp:158
 80491d5:	8b 45 08             	mov    0x8(%ebp),%eax
 80491d8:	83 c0 20             	add    $0x20,%eax
 80491db:	89 04 24             	mov    %eax,(%esp)
 80491de:	e8 61 3f 00 00       	call   804d144 <_ZN11TiXmlStringD1Ev>
 80491e3:	8b 45 08             	mov    0x8(%ebp),%eax
 80491e6:	89 04 24             	mov    %eax,(%esp)
 80491e9:	e8 58 43 00 00       	call   804d546 <_ZN9TiXmlBaseD2Ev>
 80491ee:	b8 00 00 00 00       	mov    $0x0,%eax
 80491f3:	84 c0                	test   %al,%al
 80491f5:	74 3e                	je     8049235 <_ZN9TiXmlNodeD2Ev+0xb5>
 80491f7:	eb 31                	jmp    804922a <_ZN9TiXmlNodeD2Ev+0xaa>
 80491f9:	89 d3                	mov    %edx,%ebx
 80491fb:	89 c6                	mov    %eax,%esi
 80491fd:	8b 45 08             	mov    0x8(%ebp),%eax
 8049200:	83 c0 20             	add    $0x20,%eax
 8049203:	89 04 24             	mov    %eax,(%esp)
 8049206:	e8 39 3f 00 00       	call   804d144 <_ZN11TiXmlStringD1Ev>
 804920b:	89 f0                	mov    %esi,%eax
 804920d:	89 da                	mov    %ebx,%edx
 804920f:	89 d3                	mov    %edx,%ebx
 8049211:	89 c6                	mov    %eax,%esi
 8049213:	8b 45 08             	mov    0x8(%ebp),%eax
 8049216:	89 04 24             	mov    %eax,(%esp)
 8049219:	e8 28 43 00 00       	call   804d546 <_ZN9TiXmlBaseD2Ev>
 804921e:	89 f0                	mov    %esi,%eax
 8049220:	89 da                	mov    %ebx,%edx
 8049222:	89 04 24             	mov    %eax,(%esp)
 8049225:	e8 e2 fa ff ff       	call   8048d0c <_Unwind_Resume@plt>
 804922a:	8b 45 08             	mov    0x8(%ebp),%eax
 804922d:	89 04 24             	mov    %eax,(%esp)
 8049230:	e8 d7 f8 ff ff       	call   8048b0c <_ZdlPv@plt>
 8049235:	83 c4 20             	add    $0x20,%esp
 8049238:	5b                   	pop    %ebx
 8049239:	5e                   	pop    %esi
 804923a:	5d                   	pop    %ebp
 804923b:	c3                   	ret    

0804923c <_ZN9TiXmlNodeD1Ev>:
/home/fabrizio/C++Examples/tinyXml/tinyxml/tinyxml.cpp:147
 804923c:	55                   	push   %ebp
 804923d:	89 e5                	mov    %esp,%ebp
 804923f:	56                   	push   %esi
 8049240:	53                   	push   %ebx
 8049241:	83 ec 20             	sub    $0x20,%esp
 8049244:	8b 45 08             	mov    0x8(%ebp),%eax
 8049247:	c7 00 08 6d 05 08    	movl   $0x8056d08,(%eax)
/home/fabrizio/C++Examples/tinyXml/tinyxml/tinyxml.cpp:149
 804924d:	8b 45 08             	mov    0x8(%ebp),%eax
 8049250:	8b 40 18             	mov    0x18(%eax),%eax
 8049253:	89 45 f4             	mov    %eax,-0xc(%ebp)
/home/fabrizio/C++Examples/tinyXml/tinyxml/tinyxml.cpp:150
 8049256:	c7 45 f0 00 00 00 00 	movl   $0x0,-0x10(%ebp)
/home/fabrizio/C++Examples/tinyXml/tinyxml/tinyxml.cpp:152
 804925d:	eb 27                	jmp    8049286 <_ZN9TiXmlNodeD1Ev+0x4a>
/home/fabrizio/C++Examples/tinyXml/tinyxml/tinyxml.cpp:154
 804925f:	8b 45 f4             	mov    -0xc(%ebp),%eax
 8049262:	89 45 f0             	mov    %eax,-0x10(%ebp)
/home/fabrizio/C++Examples/tinyXml/tinyxml/tinyxml.cpp:155
 8049265:	8b 45 f4             	mov    -0xc(%ebp),%eax
 8049268:	8b 40 28             	mov    0x28(%eax),%eax
 804926b:	89 45 f4             	mov    %eax,-0xc(%ebp)
/home/fabrizio/C++Examples/tinyXml/tinyxml/tinyxml.cpp:156
 804926e:	83 7d f0 00          	cmpl   $0x0,-0x10(%ebp)
 8049272:	74 12                	je     8049286 <_ZN9TiXmlNodeD1Ev+0x4a>
 8049274:	8b 45 f0             	mov    -0x10(%ebp),%eax
 8049277:	8b 00                	mov    (%eax),%eax
 8049279:	83 c0 04             	add    $0x4,%eax
 804927c:	8b 10                	mov    (%eax),%edx
 804927e:	8b 45 f0             	mov    -0x10(%ebp),%eax
 8049281:	89 04 24             	mov    %eax,(%esp)
 8049284:	ff d2                	call   *%edx
/home/fabrizio/C++Examples/tinyXml/tinyxml/tinyxml.cpp:152
 8049286:	83 7d f4 00          	cmpl   $0x0,-0xc(%ebp)
 804928a:	0f 95 c0             	setne  %al
 804928d:	84 c0                	test   %al,%al
 804928f:	75 ce                	jne    804925f <_ZN9TiXmlNodeD1Ev+0x23>
/home/fabrizio/C++Examples/tinyXml/tinyxml/tinyxml.cpp:158
 8049291:	8b 45 08             	mov    0x8(%ebp),%eax
 8049294:	83 c0 20             	add    $0x20,%eax
 8049297:	89 04 24             	mov    %eax,(%esp)
 804929a:	e8 a5 3e 00 00       	call   804d144 <_ZN11TiXmlStringD1Ev>
 804929f:	8b 45 08             	mov    0x8(%ebp),%eax
 80492a2:	89 04 24             	mov    %eax,(%esp)
 80492a5:	e8 9c 42 00 00       	call   804d546 <_ZN9TiXmlBaseD2Ev>
 80492aa:	b8 00 00 00 00       	mov    $0x0,%eax
 80492af:	84 c0                	test   %al,%al
 80492b1:	74 3e                	je     80492f1 <_ZN9TiXmlNodeD1Ev+0xb5>
 80492b3:	eb 31                	jmp    80492e6 <_ZN9TiXmlNodeD1Ev+0xaa>
 80492b5:	89 d3                	mov    %edx,%ebx
 80492b7:	89 c6                	mov    %eax,%esi
 80492b9:	8b 45 08             	mov    0x8(%ebp),%eax
 80492bc:	83 c0 20             	add    $0x20,%eax
 80492bf:	89 04 24             	mov    %eax,(%esp)
 80492c2:	e8 7d 3e 00 00       	call   804d144 <_ZN11TiXmlStringD1Ev>
 80492c7:	89 f0                	mov    %esi,%eax
 80492c9:	89 da                	mov    %ebx,%edx
 80492cb:	89 d3                	mov    %edx,%ebx
 80492cd:	89 c6                	mov    %eax,%esi
 80492cf:	8b 45 08             	mov    0x8(%ebp),%eax
 80492d2:	89 04 24             	mov    %eax,(%esp)
 80492d5:	e8 6c 42 00 00       	call   804d546 <_ZN9TiXmlBaseD2Ev>
 80492da:	89 f0                	mov    %esi,%eax
 80492dc:	89 da                	mov    %ebx,%edx
 80492de:	89 04 24             	mov    %eax,(%esp)
 80492e1:	e8 26 fa ff ff       	call   8048d0c <_Unwind_Resume@plt>
 80492e6:	8b 45 08             	mov    0x8(%ebp),%eax
 80492e9:	89 04 24             	mov    %eax,(%esp)
 80492ec:	e8 1b f8 ff ff       	call   8048b0c <_ZdlPv@plt>
 80492f1:	83 c4 20             	add    $0x20,%esp
 80492f4:	5b                   	pop    %ebx
 80492f5:	5e                   	pop    %esi
 80492f6:	5d                   	pop    %ebp
 80492f7:	c3                   	ret    

080492f8 <_ZN9TiXmlNodeD0Ev>:
/home/fabrizio/C++Examples/tinyXml/tinyxml/tinyxml.cpp:147
 80492f8:	55                   	push   %ebp
 80492f9:	89 e5                	mov    %esp,%ebp
 80492fb:	56                   	push   %esi
 80492fc:	53                   	push   %ebx
 80492fd:	83 ec 20             	sub    $0x20,%esp
 8049300:	8b 45 08             	mov    0x8(%ebp),%eax
 8049303:	c7 00 08 6d 05 08    	movl   $0x8056d08,(%eax)
/home/fabrizio/C++Examples/tinyXml/tinyxml/tinyxml.cpp:149
 8049309:	8b 45 08             	mov    0x8(%ebp),%eax
 804930c:	8b 40 18             	mov    0x18(%eax),%eax
 804930f:	89 45 f4             	mov    %eax,-0xc(%ebp)
/home/fabrizio/C++Examples/tinyXml/tinyxml/tinyxml.cpp:150
 8049312:	c7 45 f0 00 00 00 00 	movl   $0x0,-0x10(%ebp)
/home/fabrizio/C++Examples/tinyXml/tinyxml/tinyxml.cpp:152
 8049319:	eb 27                	jmp    8049342 <_ZN9TiXmlNodeD0Ev+0x4a>
/home/fabrizio/C++Examples/tinyXml/tinyxml/tinyxml.cpp:154
 804931b:	8b 45 f4             	mov    -0xc(%ebp),%eax
 804931e:	89 45 f0             	mov    %eax,-0x10(%ebp)
/home/fabrizio/C++Examples/tinyXml/tinyxml/tinyxml.cpp:155
 8049321:	8b 45 f4             	mov    -0xc(%ebp),%eax
 8049324:	8b 40 28             	mov    0x28(%eax),%eax
 8049327:	89 45 f4             	mov    %eax,-0xc(%ebp)
/home/fabrizio/C++Examples/tinyXml/tinyxml/tinyxml.cpp:156
 804932a:	83 7d f0 00          	cmpl   $0x0,-0x10(%ebp)
 804932e:	74 12                	je     8049342 <_ZN9TiXmlNodeD0Ev+0x4a>
 8049330:	8b 45 f0             	mov    -0x10(%ebp),%eax
 8049333:	8b 00                	mov    (%eax),%eax
 8049335:	83 c0 04             	add    $0x4,%eax
 8049338:	8b 10                	mov    (%eax),%edx
 804933a:	8b 45 f0             	mov    -0x10(%ebp),%eax
 804933d:	89 04 24             	mov    %eax,(%esp)
 8049340:	ff d2                	call   *%edx
/home/fabrizio/C++Examples/tinyXml/tinyxml/tinyxml.cpp:152
 8049342:	83 7d f4 00          	cmpl   $0x0,-0xc(%ebp)
 8049346:	0f 95 c0             	setne  %al
 8049349:	84 c0                	test   %al,%al
 804934b:	75 ce                	jne    804931b <_ZN9TiXmlNodeD0Ev+0x23>
/home/fabrizio/C++Examples/tinyXml/tinyxml/tinyxml.cpp:158
 804934d:	8b 45 08             	mov    0x8(%ebp),%eax
 8049350:	83 c0 20             	add    $0x20,%eax
 8049353:	89 04 24             	mov    %eax,(%esp)
 8049356:	e8 e9 3d 00 00       	call   804d144 <_ZN11TiXmlStringD1Ev>
 804935b:	8b 45 08             	mov    0x8(%ebp),%eax
 804935e:	89 04 24             	mov    %eax,(%esp)
 8049361:	e8 e0 41 00 00       	call   804d546 <_ZN9TiXmlBaseD2Ev>
 8049366:	b8 01 00 00 00       	mov    $0x1,%eax
 804936b:	84 c0                	test   %al,%al
 804936d:	74 3e                	je     80493ad <_ZN9TiXmlNodeD0Ev+0xb5>
 804936f:	eb 31                	jmp    80493a2 <_ZN9TiXmlNodeD0Ev+0xaa>
 8049371:	89 d3                	mov    %edx,%ebx
 8049373:	89 c6                	mov    %eax,%esi
 8049375:	8b 45 08             	mov    0x8(%ebp),%eax
 8049378:	83 c0 20             	add    $0x20,%eax
 804937b:	89 04 24             	mov    %eax,(%esp)
 804937e:	e8 c1 3d 00 00       	call   804d144 <_ZN11TiXmlStringD1Ev>
 8049383:	89 f0                	mov    %esi,%eax
 8049385:	89 da                	mov    %ebx,%edx
 8049387:	89 d3                	mov    %edx,%ebx
 8049389:	89 c6                	mov    %eax,%esi
 804938b:	8b 45 08             	mov    0x8(%ebp),%eax
 804938e:	89 04 24             	mov    %eax,(%esp)
 8049391:	e8 b0 41 00 00       	call   804d546 <_ZN9TiXmlBaseD2Ev>
 8049396:	89 f0                	mov    %esi,%eax
 8049398:	89 da                	mov    %ebx,%edx
 804939a:	89 04 24             	mov    %eax,(%esp)
 804939d:	e8 6a f9 ff ff       	call   8048d0c <_Unwind_Resume@plt>
 80493a2:	8b 45 08             	mov    0x8(%ebp),%eax
 80493a5:	89 04 24             	mov    %eax,(%esp)
 80493a8:	e8 5f f7 ff ff       	call   8048b0c <_ZdlPv@plt>
 80493ad:	83 c4 20             	add    $0x20,%esp
 80493b0:	5b                   	pop    %ebx
 80493b1:	5e                   	pop    %esi
 80493b2:	5d                   	pop    %ebp
 80493b3:	c3                   	ret    

080493b4 <_ZNK9TiXmlNode6CopyToEPS_>:
_ZNK9TiXmlNode6CopyToEPS_():
/home/fabrizio/C++Examples/tinyXml/tinyxml/tinyxml.cpp:162
 80493b4:	55                   	push   %ebp
 80493b5:	89 e5                	mov    %esp,%ebp
 80493b7:	83 ec 18             	sub    $0x18,%esp
/home/fabrizio/C++Examples/tinyXml/tinyxml/tinyxml.cpp:163
 80493ba:	8b 45 08             	mov    0x8(%ebp),%eax
 80493bd:	83 c0 20             	add    $0x20,%eax
 80493c0:	89 04 24             	mov    %eax,(%esp)
 80493c3:	e8 7c 3e 00 00       	call   804d244 <_ZNK11TiXmlString5c_strEv>
 80493c8:	89 44 24 04          	mov    %eax,0x4(%esp)
 80493cc:	8b 45 0c             	mov    0xc(%ebp),%eax
 80493cf:	89 04 24             	mov    %eax,(%esp)
 80493d2:	e8 03 42 00 00       	call   804d5da <_ZN9TiXmlNode8SetValueEPKc>
/home/fabrizio/C++Examples/tinyXml/tinyxml/tinyxml.cpp:164
 80493d7:	8b 45 08             	mov    0x8(%ebp),%eax
 80493da:	8b 50 0c             	mov    0xc(%eax),%edx
 80493dd:	8b 45 0c             	mov    0xc(%ebp),%eax
 80493e0:	89 50 0c             	mov    %edx,0xc(%eax)
/home/fabrizio/C++Examples/tinyXml/tinyxml/tinyxml.cpp:165
 80493e3:	8b 4d 0c             	mov    0xc(%ebp),%ecx
 80493e6:	8b 45 08             	mov    0x8(%ebp),%eax
 80493e9:	8b 50 08             	mov    0x8(%eax),%edx
 80493ec:	8b 40 04             	mov    0x4(%eax),%eax
 80493ef:	89 41 04             	mov    %eax,0x4(%ecx)
 80493f2:	89 51 08             	mov    %edx,0x8(%ecx)
/home/fabrizio/C++Examples/tinyXml/tinyxml/tinyxml.cpp:166
 80493f5:	c9                   	leave  
 80493f6:	c3                   	ret    
 80493f7:	90                   	nop

080493f8 <_ZN9TiXmlNode5ClearEv>:
_ZN9TiXmlNode5ClearEv():
/home/fabrizio/C++Examples/tinyXml/tinyxml/tinyxml.cpp:170
 80493f8:	55                   	push   %ebp
 80493f9:	89 e5                	mov    %esp,%ebp
 80493fb:	83 ec 28             	sub    $0x28,%esp
/home/fabrizio/C++Examples/tinyXml/tinyxml/tinyxml.cpp:171
 80493fe:	8b 45 08             	mov    0x8(%ebp),%eax
 8049401:	8b 40 18             	mov    0x18(%eax),%eax
 8049404:	89 45 f4             	mov    %eax,-0xc(%ebp)
/home/fabrizio/C++Examples/tinyXml/tinyxml/tinyxml.cpp:172
 8049407:	c7 45 f0 00 00 00 00 	movl   $0x0,-0x10(%ebp)
/home/fabrizio/C++Examples/tinyXml/tinyxml/tinyxml.cpp:174
 804940e:	eb 27                	jmp    8049437 <_ZN9TiXmlNode5ClearEv+0x3f>
/home/fabrizio/C++Examples/tinyXml/tinyxml/tinyxml.cpp:176
 8049410:	8b 45 f4             	mov    -0xc(%ebp),%eax
 8049413:	89 45 f0             	mov    %eax,-0x10(%ebp)
/home/fabrizio/C++Examples/tinyXml/tinyxml/tinyxml.cpp:177
 8049416:	8b 45 f4             	mov    -0xc(%ebp),%eax
 8049419:	8b 40 28             	mov    0x28(%eax),%eax
 804941c:	89 45 f4             	mov    %eax,-0xc(%ebp)
/home/fabrizio/C++Examples/tinyXml/tinyxml/tinyxml.cpp:178
 804941f:	83 7d f0 00          	cmpl   $0x0,-0x10(%ebp)
 8049423:	74 12                	je     8049437 <_ZN9TiXmlNode5ClearEv+0x3f>
 8049425:	8b 45 f0             	mov    -0x10(%ebp),%eax
 8049428:	8b 00                	mov    (%eax),%eax
 804942a:	83 c0 04             	add    $0x4,%eax
 804942d:	8b 10                	mov    (%eax),%edx
 804942f:	8b 45 f0             	mov    -0x10(%ebp),%eax
 8049432:	89 04 24             	mov    %eax,(%esp)
 8049435:	ff d2                	call   *%edx
/home/fabrizio/C++Examples/tinyXml/tinyxml/tinyxml.cpp:174
 8049437:	83 7d f4 00          	cmpl   $0x0,-0xc(%ebp)
 804943b:	0f 95 c0             	setne  %al
 804943e:	84 c0                	test   %al,%al
 8049440:	75 ce                	jne    8049410 <_ZN9TiXmlNode5ClearEv+0x18>
/home/fabrizio/C++Examples/tinyXml/tinyxml/tinyxml.cpp:181
 8049442:	8b 45 08             	mov    0x8(%ebp),%eax
 8049445:	c7 40 18 00 00 00 00 	movl   $0x0,0x18(%eax)
/home/fabrizio/C++Examples/tinyXml/tinyxml/tinyxml.cpp:182
 804944c:	8b 45 08             	mov    0x8(%ebp),%eax
 804944f:	c7 40 1c 00 00 00 00 	movl   $0x0,0x1c(%eax)
/home/fabrizio/C++Examples/tinyXml/tinyxml/tinyxml.cpp:183
 8049456:	c9                   	leave  
 8049457:	c3                   	ret    

08049458 <_ZN9TiXmlNode12LinkEndChildEPS_>:
_ZN9TiXmlNode12LinkEndChildEPS_():
/home/fabrizio/C++Examples/tinyXml/tinyxml/tinyxml.cpp:187
 8049458:	55                   	push   %ebp
 8049459:	89 e5                	mov    %esp,%ebp
 804945b:	53                   	push   %ebx
 804945c:	83 ec 24             	sub    $0x24,%esp
/home/fabrizio/C++Examples/tinyXml/tinyxml/tinyxml.cpp:188
 804945f:	8b 45 0c             	mov    0xc(%ebp),%eax
 8049462:	8b 40 10             	mov    0x10(%eax),%eax
 8049465:	85 c0                	test   %eax,%eax
 8049467:	74 2f                	je     8049498 <_ZN9TiXmlNode12LinkEndChildEPS_+0x40>
 8049469:	8b 45 0c             	mov    0xc(%ebp),%eax
 804946c:	8b 40 10             	mov    0x10(%eax),%eax
 804946f:	3b 45 08             	cmp    0x8(%ebp),%eax
 8049472:	74 24                	je     8049498 <_ZN9TiXmlNode12LinkEndChildEPS_+0x40>
 8049474:	c7 44 24 0c 60 6a 05 	movl   $0x8056a60,0xc(%esp)
 804947b:	08 
 804947c:	c7 44 24 08 bc 00 00 	movl   $0xbc,0x8(%esp)
 8049483:	00 
 8049484:	c7 44 24 04 65 64 05 	movl   $0x8056465,0x4(%esp)
 804948b:	08 
 804948c:	c7 04 24 74 64 05 08 	movl   $0x8056474,(%esp)
 8049493:	e8 c4 f6 ff ff       	call   8048b5c <__assert_fail@plt>
/home/fabrizio/C++Examples/tinyXml/tinyxml/tinyxml.cpp:189
 8049498:	8b 45 0c             	mov    0xc(%ebp),%eax
 804949b:	89 04 24             	mov    %eax,(%esp)
 804949e:	e8 2d 42 00 00       	call   804d6d0 <_ZN9TiXmlNode11GetDocumentEv>
 80494a3:	85 c0                	test   %eax,%eax
 80494a5:	74 40                	je     80494e7 <_ZN9TiXmlNode12LinkEndChildEPS_+0x8f>
 80494a7:	8b 45 0c             	mov    0xc(%ebp),%eax
 80494aa:	89 04 24             	mov    %eax,(%esp)
 80494ad:	e8 1e 42 00 00       	call   804d6d0 <_ZN9TiXmlNode11GetDocumentEv>
 80494b2:	89 c3                	mov    %eax,%ebx
 80494b4:	8b 45 08             	mov    0x8(%ebp),%eax
 80494b7:	89 04 24             	mov    %eax,(%esp)
 80494ba:	e8 11 42 00 00       	call   804d6d0 <_ZN9TiXmlNode11GetDocumentEv>
 80494bf:	39 c3                	cmp    %eax,%ebx
 80494c1:	74 24                	je     80494e7 <_ZN9TiXmlNode12LinkEndChildEPS_+0x8f>
 80494c3:	c7 44 24 0c 60 6a 05 	movl   $0x8056a60,0xc(%esp)
 80494ca:	08 
 80494cb:	c7 44 24 08 bd 00 00 	movl   $0xbd,0x8(%esp)
 80494d2:	00 
 80494d3:	c7 44 24 04 65 64 05 	movl   $0x8056465,0x4(%esp)
 80494da:	08 
 80494db:	c7 04 24 a0 64 05 08 	movl   $0x80564a0,(%esp)
 80494e2:	e8 75 f6 ff ff       	call   8048b5c <__assert_fail@plt>
/home/fabrizio/C++Examples/tinyXml/tinyxml/tinyxml.cpp:191
 80494e7:	8b 45 0c             	mov    0xc(%ebp),%eax
 80494ea:	89 04 24             	mov    %eax,(%esp)
 80494ed:	e8 d2 41 00 00       	call   804d6c4 <_ZNK9TiXmlNode4TypeEv>
 80494f2:	85 c0                	test   %eax,%eax
 80494f4:	0f 94 c0             	sete   %al
 80494f7:	84 c0                	test   %al,%al
 80494f9:	74 66                	je     8049561 <_ZN9TiXmlNode12LinkEndChildEPS_+0x109>
/home/fabrizio/C++Examples/tinyXml/tinyxml/tinyxml.cpp:193
 80494fb:	83 7d 0c 00          	cmpl   $0x0,0xc(%ebp)
 80494ff:	74 12                	je     8049513 <_ZN9TiXmlNode12LinkEndChildEPS_+0xbb>
 8049501:	8b 45 0c             	mov    0xc(%ebp),%eax
 8049504:	8b 00                	mov    (%eax),%eax
 8049506:	83 c0 04             	add    $0x4,%eax
 8049509:	8b 10                	mov    (%eax),%edx
 804950b:	8b 45 0c             	mov    0xc(%ebp),%eax
 804950e:	89 04 24             	mov    %eax,(%esp)
 8049511:	ff d2                	call   *%edx
/home/fabrizio/C++Examples/tinyXml/tinyxml/tinyxml.cpp:194
 8049513:	8b 45 08             	mov    0x8(%ebp),%eax
 8049516:	89 04 24             	mov    %eax,(%esp)
 8049519:	e8 b2 41 00 00       	call   804d6d0 <_ZN9TiXmlNode11GetDocumentEv>
 804951e:	85 c0                	test   %eax,%eax
 8049520:	0f 95 c0             	setne  %al
 8049523:	84 c0                	test   %al,%al
 8049525:	74 33                	je     804955a <_ZN9TiXmlNode12LinkEndChildEPS_+0x102>
 8049527:	8b 45 08             	mov    0x8(%ebp),%eax
 804952a:	89 04 24             	mov    %eax,(%esp)
 804952d:	e8 9e 41 00 00       	call   804d6d0 <_ZN9TiXmlNode11GetDocumentEv>
 8049532:	c7 44 24 10 00 00 00 	movl   $0x0,0x10(%esp)
 8049539:	00 
 804953a:	c7 44 24 0c 00 00 00 	movl   $0x0,0xc(%esp)
 8049541:	00 
 8049542:	c7 44 24 08 00 00 00 	movl   $0x0,0x8(%esp)
 8049549:	00 
 804954a:	c7 44 24 04 0f 00 00 	movl   $0xf,0x4(%esp)
 8049551:	00 
 8049552:	89 04 24             	mov    %eax,(%esp)
 8049555:	e8 7c 59 00 00       	call   804eed6 <_ZN13TiXmlDocument8SetErrorEiPKcP16TiXmlParsingData13TiXmlEncoding>
/home/fabrizio/C++Examples/tinyXml/tinyxml/tinyxml.cpp:195
 804955a:	b8 00 00 00 00       	mov    $0x0,%eax
 804955f:	eb 4c                	jmp    80495ad <_ZN9TiXmlNode12LinkEndChildEPS_+0x155>
/home/fabrizio/C++Examples/tinyXml/tinyxml/tinyxml.cpp:198
 8049561:	8b 45 0c             	mov    0xc(%ebp),%eax
 8049564:	8b 55 08             	mov    0x8(%ebp),%edx
 8049567:	89 50 10             	mov    %edx,0x10(%eax)
/home/fabrizio/C++Examples/tinyXml/tinyxml/tinyxml.cpp:200
 804956a:	8b 45 08             	mov    0x8(%ebp),%eax
 804956d:	8b 50 1c             	mov    0x1c(%eax),%edx
 8049570:	8b 45 0c             	mov    0xc(%ebp),%eax
 8049573:	89 50 24             	mov    %edx,0x24(%eax)
/home/fabrizio/C++Examples/tinyXml/tinyxml/tinyxml.cpp:201
 8049576:	8b 45 0c             	mov    0xc(%ebp),%eax
 8049579:	c7 40 28 00 00 00 00 	movl   $0x0,0x28(%eax)
/home/fabrizio/C++Examples/tinyXml/tinyxml/tinyxml.cpp:203
 8049580:	8b 45 08             	mov    0x8(%ebp),%eax
 8049583:	8b 40 1c             	mov    0x1c(%eax),%eax
 8049586:	85 c0                	test   %eax,%eax
 8049588:	74 0e                	je     8049598 <_ZN9TiXmlNode12LinkEndChildEPS_+0x140>
/home/fabrizio/C++Examples/tinyXml/tinyxml/tinyxml.cpp:204
 804958a:	8b 45 08             	mov    0x8(%ebp),%eax
 804958d:	8b 40 1c             	mov    0x1c(%eax),%eax
 8049590:	8b 55 0c             	mov    0xc(%ebp),%edx
 8049593:	89 50 28             	mov    %edx,0x28(%eax)
 8049596:	eb 09                	jmp    80495a1 <_ZN9TiXmlNode12LinkEndChildEPS_+0x149>
/home/fabrizio/C++Examples/tinyXml/tinyxml/tinyxml.cpp:206
 8049598:	8b 45 08             	mov    0x8(%ebp),%eax
 804959b:	8b 55 0c             	mov    0xc(%ebp),%edx
 804959e:	89 50 18             	mov    %edx,0x18(%eax)
/home/fabrizio/C++Examples/tinyXml/tinyxml/tinyxml.cpp:208
 80495a1:	8b 45 08             	mov    0x8(%ebp),%eax
 80495a4:	8b 55 0c             	mov    0xc(%ebp),%edx
 80495a7:	89 50 1c             	mov    %edx,0x1c(%eax)
/home/fabrizio/C++Examples/tinyXml/tinyxml/tinyxml.cpp:209
 80495aa:	8b 45 0c             	mov    0xc(%ebp),%eax
/home/fabrizio/C++Examples/tinyXml/tinyxml/tinyxml.cpp:210
 80495ad:	83 c4 24             	add    $0x24,%esp
 80495b0:	5b                   	pop    %ebx
 80495b1:	5d                   	pop    %ebp
 80495b2:	c3                   	ret    
 80495b3:	90                   	nop

080495b4 <_ZN9TiXmlNode14InsertEndChildERKS_>:
_ZN9TiXmlNode14InsertEndChildERKS_():
/home/fabrizio/C++Examples/tinyXml/tinyxml/tinyxml.cpp:214
 80495b4:	55                   	push   %ebp
 80495b5:	89 e5                	mov    %esp,%ebp
 80495b7:	83 ec 38             	sub    $0x38,%esp
/home/fabrizio/C++Examples/tinyXml/tinyxml/tinyxml.cpp:215
 80495ba:	8b 45 0c             	mov    0xc(%ebp),%eax
 80495bd:	89 04 24             	mov    %eax,(%esp)
 80495c0:	e8 ff 40 00 00       	call   804d6c4 <_ZNK9TiXmlNode4TypeEv>
 80495c5:	85 c0                	test   %eax,%eax
 80495c7:	0f 94 c0             	sete   %al
 80495ca:	84 c0                	test   %al,%al
 80495cc:	74 4e                	je     804961c <_ZN9TiXmlNode14InsertEndChildERKS_+0x68>
/home/fabrizio/C++Examples/tinyXml/tinyxml/tinyxml.cpp:217
 80495ce:	8b 45 08             	mov    0x8(%ebp),%eax
 80495d1:	89 04 24             	mov    %eax,(%esp)
 80495d4:	e8 f7 40 00 00       	call   804d6d0 <_ZN9TiXmlNode11GetDocumentEv>
 80495d9:	85 c0                	test   %eax,%eax
 80495db:	0f 95 c0             	setne  %al
 80495de:	84 c0                	test   %al,%al
 80495e0:	74 33                	je     8049615 <_ZN9TiXmlNode14InsertEndChildERKS_+0x61>
 80495e2:	8b 45 08             	mov    0x8(%ebp),%eax
 80495e5:	89 04 24             	mov    %eax,(%esp)
 80495e8:	e8 e3 40 00 00       	call   804d6d0 <_ZN9TiXmlNode11GetDocumentEv>
 80495ed:	c7 44 24 10 00 00 00 	movl   $0x0,0x10(%esp)
 80495f4:	00 
 80495f5:	c7 44 24 0c 00 00 00 	movl   $0x0,0xc(%esp)
 80495fc:	00 
 80495fd:	c7 44 24 08 00 00 00 	movl   $0x0,0x8(%esp)
 8049604:	00 
 8049605:	c7 44 24 04 0f 00 00 	movl   $0xf,0x4(%esp)
 804960c:	00 
 804960d:	89 04 24             	mov    %eax,(%esp)
 8049610:	e8 c1 58 00 00       	call   804eed6 <_ZN13TiXmlDocument8SetErrorEiPKcP16TiXmlParsingData13TiXmlEncoding>
/home/fabrizio/C++Examples/tinyXml/tinyxml/tinyxml.cpp:218
 8049615:	b8 00 00 00 00       	mov    $0x0,%eax
 804961a:	eb 34                	jmp    8049650 <_ZN9TiXmlNode14InsertEndChildERKS_+0x9c>
/home/fabrizio/C++Examples/tinyXml/tinyxml/tinyxml.cpp:220
 804961c:	8b 45 0c             	mov    0xc(%ebp),%eax
 804961f:	8b 00                	mov    (%eax),%eax
 8049621:	83 c0 40             	add    $0x40,%eax
 8049624:	8b 10                	mov    (%eax),%edx
 8049626:	8b 45 0c             	mov    0xc(%ebp),%eax
 8049629:	89 04 24             	mov    %eax,(%esp)
 804962c:	ff d2                	call   *%edx
 804962e:	89 45 f4             	mov    %eax,-0xc(%ebp)
/home/fabrizio/C++Examples/tinyXml/tinyxml/tinyxml.cpp:221
 8049631:	83 7d f4 00          	cmpl   $0x0,-0xc(%ebp)
 8049635:	75 07                	jne    804963e <_ZN9TiXmlNode14InsertEndChildERKS_+0x8a>
/home/fabrizio/C++Examples/tinyXml/tinyxml/tinyxml.cpp:222
 8049637:	b8 00 00 00 00       	mov    $0x0,%eax
 804963c:	eb 12                	jmp    8049650 <_ZN9TiXmlNode14InsertEndChildERKS_+0x9c>
/home/fabrizio/C++Examples/tinyXml/tinyxml/tinyxml.cpp:224
 804963e:	8b 45 f4             	mov    -0xc(%ebp),%eax
 8049641:	89 44 24 04          	mov    %eax,0x4(%esp)
 8049645:	8b 45 08             	mov    0x8(%ebp),%eax
 8049648:	89 04 24             	mov    %eax,(%esp)
 804964b:	e8 08 fe ff ff       	call   8049458 <_ZN9TiXmlNode12LinkEndChildEPS_>
/home/fabrizio/C++Examples/tinyXml/tinyxml/tinyxml.cpp:225
 8049650:	c9                   	leave  
 8049651:	c3                   	ret    

08049652 <_ZN9TiXmlNode17InsertBeforeChildEPS_RKS_>:
_ZN9TiXmlNode17InsertBeforeChildEPS_RKS_():
/home/fabrizio/C++Examples/tinyXml/tinyxml/tinyxml.cpp:229
 8049652:	55                   	push   %ebp
 8049653:	89 e5                	mov    %esp,%ebp
 8049655:	83 ec 38             	sub    $0x38,%esp
/home/fabrizio/C++Examples/tinyXml/tinyxml/tinyxml.cpp:230
 8049658:	83 7d 0c 00          	cmpl   $0x0,0xc(%ebp)
 804965c:	74 0b                	je     8049669 <_ZN9TiXmlNode17InsertBeforeChildEPS_RKS_+0x17>
 804965e:	8b 45 0c             	mov    0xc(%ebp),%eax
 8049661:	8b 40 10             	mov    0x10(%eax),%eax
 8049664:	3b 45 08             	cmp    0x8(%ebp),%eax
 8049667:	74 0a                	je     8049673 <_ZN9TiXmlNode17InsertBeforeChildEPS_RKS_+0x21>
/home/fabrizio/C++Examples/tinyXml/tinyxml/tinyxml.cpp:231
 8049669:	b8 00 00 00 00       	mov    $0x0,%eax
 804966e:	e9 01 01 00 00       	jmp    8049774 <_ZN9TiXmlNode17InsertBeforeChildEPS_RKS_+0x122>
/home/fabrizio/C++Examples/tinyXml/tinyxml/tinyxml.cpp:233
 8049673:	8b 45 10             	mov    0x10(%ebp),%eax
 8049676:	89 04 24             	mov    %eax,(%esp)
 8049679:	e8 46 40 00 00       	call   804d6c4 <_ZNK9TiXmlNode4TypeEv>
 804967e:	85 c0                	test   %eax,%eax
 8049680:	0f 94 c0             	sete   %al
 8049683:	84 c0                	test   %al,%al
 8049685:	74 51                	je     80496d8 <_ZN9TiXmlNode17InsertBeforeChildEPS_RKS_+0x86>
/home/fabrizio/C++Examples/tinyXml/tinyxml/tinyxml.cpp:235
 8049687:	8b 45 08             	mov    0x8(%ebp),%eax
 804968a:	89 04 24             	mov    %eax,(%esp)
 804968d:	e8 3e 40 00 00       	call   804d6d0 <_ZN9TiXmlNode11GetDocumentEv>
 8049692:	85 c0                	test   %eax,%eax
 8049694:	0f 95 c0             	setne  %al
 8049697:	84 c0                	test   %al,%al
 8049699:	74 33                	je     80496ce <_ZN9TiXmlNode17InsertBeforeChildEPS_RKS_+0x7c>
 804969b:	8b 45 08             	mov    0x8(%ebp),%eax
 804969e:	89 04 24             	mov    %eax,(%esp)
 80496a1:	e8 2a 40 00 00       	call   804d6d0 <_ZN9TiXmlNode11GetDocumentEv>
 80496a6:	c7 44 24 10 00 00 00 	movl   $0x0,0x10(%esp)
 80496ad:	00 
 80496ae:	c7 44 24 0c 00 00 00 	movl   $0x0,0xc(%esp)
 80496b5:	00 
 80496b6:	c7 44 24 08 00 00 00 	movl   $0x0,0x8(%esp)
 80496bd:	00 
 80496be:	c7 44 24 04 0f 00 00 	movl   $0xf,0x4(%esp)
 80496c5:	00 
 80496c6:	89 04 24             	mov    %eax,(%esp)
 80496c9:	e8 08 58 00 00       	call   804eed6 <_ZN13TiXmlDocument8SetErrorEiPKcP16TiXmlParsingData13TiXmlEncoding>
/home/fabrizio/C++Examples/tinyXml/tinyxml/tinyxml.cpp:236
 80496ce:	b8 00 00 00 00       	mov    $0x0,%eax
 80496d3:	e9 9c 00 00 00       	jmp    8049774 <_ZN9TiXmlNode17InsertBeforeChildEPS_RKS_+0x122>
/home/fabrizio/C++Examples/tinyXml/tinyxml/tinyxml.cpp:239
 80496d8:	8b 45 10             	mov    0x10(%ebp),%eax
 80496db:	8b 00                	mov    (%eax),%eax
 80496dd:	83 c0 40             	add    $0x40,%eax
 80496e0:	8b 10                	mov    (%eax),%edx
 80496e2:	8b 45 10             	mov    0x10(%ebp),%eax
 80496e5:	89 04 24             	mov    %eax,(%esp)
 80496e8:	ff d2                	call   *%edx
 80496ea:	89 45 f4             	mov    %eax,-0xc(%ebp)
/home/fabrizio/C++Examples/tinyXml/tinyxml/tinyxml.cpp:240
 80496ed:	83 7d f4 00          	cmpl   $0x0,-0xc(%ebp)
 80496f1:	75 07                	jne    80496fa <_ZN9TiXmlNode17InsertBeforeChildEPS_RKS_+0xa8>
/home/fabrizio/C++Examples/tinyXml/tinyxml/tinyxml.cpp:241
 80496f3:	b8 00 00 00 00       	mov    $0x0,%eax
 80496f8:	eb 7a                	jmp    8049774 <_ZN9TiXmlNode17InsertBeforeChildEPS_RKS_+0x122>
/home/fabrizio/C++Examples/tinyXml/tinyxml/tinyxml.cpp:242
 80496fa:	8b 45 f4             	mov    -0xc(%ebp),%eax
 80496fd:	8b 55 08             	mov    0x8(%ebp),%edx
 8049700:	89 50 10             	mov    %edx,0x10(%eax)
/home/fabrizio/C++Examples/tinyXml/tinyxml/tinyxml.cpp:244
 8049703:	8b 45 f4             	mov    -0xc(%ebp),%eax
 8049706:	8b 55 0c             	mov    0xc(%ebp),%edx
 8049709:	89 50 28             	mov    %edx,0x28(%eax)
/home/fabrizio/C++Examples/tinyXml/tinyxml/tinyxml.cpp:245
 804970c:	8b 45 0c             	mov    0xc(%ebp),%eax
 804970f:	8b 50 24             	mov    0x24(%eax),%edx
 8049712:	8b 45 f4             	mov    -0xc(%ebp),%eax
 8049715:	89 50 24             	mov    %edx,0x24(%eax)
/home/fabrizio/C++Examples/tinyXml/tinyxml/tinyxml.cpp:246
 8049718:	8b 45 0c             	mov    0xc(%ebp),%eax
 804971b:	8b 40 24             	mov    0x24(%eax),%eax
 804971e:	85 c0                	test   %eax,%eax
 8049720:	74 0e                	je     8049730 <_ZN9TiXmlNode17InsertBeforeChildEPS_RKS_+0xde>
/home/fabrizio/C++Examples/tinyXml/tinyxml/tinyxml.cpp:248
 8049722:	8b 45 0c             	mov    0xc(%ebp),%eax
 8049725:	8b 40 24             	mov    0x24(%eax),%eax
 8049728:	8b 55 f4             	mov    -0xc(%ebp),%edx
 804972b:	89 50 28             	mov    %edx,0x28(%eax)
 804972e:	eb 38                	jmp    8049768 <_ZN9TiXmlNode17InsertBeforeChildEPS_RKS_+0x116>
/home/fabrizio/C++Examples/tinyXml/tinyxml/tinyxml.cpp:252
 8049730:	8b 45 08             	mov    0x8(%ebp),%eax
 8049733:	8b 40 18             	mov    0x18(%eax),%eax
 8049736:	3b 45 0c             	cmp    0xc(%ebp),%eax
 8049739:	74 24                	je     804975f <_ZN9TiXmlNode17InsertBeforeChildEPS_RKS_+0x10d>
 804973b:	c7 44 24 0c 00 6a 05 	movl   $0x8056a00,0xc(%esp)
 8049742:	08 
 8049743:	c7 44 24 08 fc 00 00 	movl   $0xfc,0x8(%esp)
 804974a:	00 
 804974b:	c7 44 24 04 65 64 05 	movl   $0x8056465,0x4(%esp)
 8049752:	08 
 8049753:	c7 04 24 e7 64 05 08 	movl   $0x80564e7,(%esp)
 804975a:	e8 fd f3 ff ff       	call   8048b5c <__assert_fail@plt>
/home/fabrizio/C++Examples/tinyXml/tinyxml/tinyxml.cpp:253
 804975f:	8b 45 08             	mov    0x8(%ebp),%eax
 8049762:	8b 55 f4             	mov    -0xc(%ebp),%edx
 8049765:	89 50 18             	mov    %edx,0x18(%eax)
/home/fabrizio/C++Examples/tinyXml/tinyxml/tinyxml.cpp:255
 8049768:	8b 45 0c             	mov    0xc(%ebp),%eax
 804976b:	8b 55 f4             	mov    -0xc(%ebp),%edx
 804976e:	89 50 24             	mov    %edx,0x24(%eax)
/home/fabrizio/C++Examples/tinyXml/tinyxml/tinyxml.cpp:256
 8049771:	8b 45 f4             	mov    -0xc(%ebp),%eax
/home/fabrizio/C++Examples/tinyXml/tinyxml/tinyxml.cpp:257
 8049774:	c9                   	leave  
 8049775:	c3                   	ret    

08049776 <_ZN9TiXmlNode16InsertAfterChildEPS_RKS_>:
_ZN9TiXmlNode16InsertAfterChildEPS_RKS_():
/home/fabrizio/C++Examples/tinyXml/tinyxml/tinyxml.cpp:261
 8049776:	55                   	push   %ebp
 8049777:	89 e5                	mov    %esp,%ebp
 8049779:	83 ec 38             	sub    $0x38,%esp
/home/fabrizio/C++Examples/tinyXml/tinyxml/tinyxml.cpp:262
 804977c:	83 7d 0c 00          	cmpl   $0x0,0xc(%ebp)
 8049780:	74 0b                	je     804978d <_ZN9TiXmlNode16InsertAfterChildEPS_RKS_+0x17>
 8049782:	8b 45 0c             	mov    0xc(%ebp),%eax
 8049785:	8b 40 10             	mov    0x10(%eax),%eax
 8049788:	3b 45 08             	cmp    0x8(%ebp),%eax
 804978b:	74 0a                	je     8049797 <_ZN9TiXmlNode16InsertAfterChildEPS_RKS_+0x21>
/home/fabrizio/C++Examples/tinyXml/tinyxml/tinyxml.cpp:263
 804978d:	b8 00 00 00 00       	mov    $0x0,%eax
 8049792:	e9 01 01 00 00       	jmp    8049898 <_ZN9TiXmlNode16InsertAfterChildEPS_RKS_+0x122>
/home/fabrizio/C++Examples/tinyXml/tinyxml/tinyxml.cpp:265
 8049797:	8b 45 10             	mov    0x10(%ebp),%eax
 804979a:	89 04 24             	mov    %eax,(%esp)
 804979d:	e8 22 3f 00 00       	call   804d6c4 <_ZNK9TiXmlNode4TypeEv>
 80497a2:	85 c0                	test   %eax,%eax
 80497a4:	0f 94 c0             	sete   %al
 80497a7:	84 c0                	test   %al,%al
 80497a9:	74 51                	je     80497fc <_ZN9TiXmlNode16InsertAfterChildEPS_RKS_+0x86>
/home/fabrizio/C++Examples/tinyXml/tinyxml/tinyxml.cpp:267
 80497ab:	8b 45 08             	mov    0x8(%ebp),%eax
 80497ae:	89 04 24             	mov    %eax,(%esp)
 80497b1:	e8 1a 3f 00 00       	call   804d6d0 <_ZN9TiXmlNode11GetDocumentEv>
 80497b6:	85 c0                	test   %eax,%eax
 80497b8:	0f 95 c0             	setne  %al
 80497bb:	84 c0                	test   %al,%al
 80497bd:	74 33                	je     80497f2 <_ZN9TiXmlNode16InsertAfterChildEPS_RKS_+0x7c>
 80497bf:	8b 45 08             	mov    0x8(%ebp),%eax
 80497c2:	89 04 24             	mov    %eax,(%esp)
 80497c5:	e8 06 3f 00 00       	call   804d6d0 <_ZN9TiXmlNode11GetDocumentEv>
 80497ca:	c7 44 24 10 00 00 00 	movl   $0x0,0x10(%esp)
 80497d1:	00 
 80497d2:	c7 44 24 0c 00 00 00 	movl   $0x0,0xc(%esp)
 80497d9:	00 
 80497da:	c7 44 24 08 00 00 00 	movl   $0x0,0x8(%esp)
 80497e1:	00 
 80497e2:	c7 44 24 04 0f 00 00 	movl   $0xf,0x4(%esp)
 80497e9:	00 
 80497ea:	89 04 24             	mov    %eax,(%esp)
 80497ed:	e8 e4 56 00 00       	call   804eed6 <_ZN13TiXmlDocument8SetErrorEiPKcP16TiXmlParsingData13TiXmlEncoding>
/home/fabrizio/C++Examples/tinyXml/tinyxml/tinyxml.cpp:268
 80497f2:	b8 00 00 00 00       	mov    $0x0,%eax
 80497f7:	e9 9c 00 00 00       	jmp    8049898 <_ZN9TiXmlNode16InsertAfterChildEPS_RKS_+0x122>
/home/fabrizio/C++Examples/tinyXml/tinyxml/tinyxml.cpp:271
 80497fc:	8b 45 10             	mov    0x10(%ebp),%eax
 80497ff:	8b 00                	mov    (%eax),%eax
 8049801:	83 c0 40             	add    $0x40,%eax
 8049804:	8b 10                	mov    (%eax),%edx
 8049806:	8b 45 10             	mov    0x10(%ebp),%eax
 8049809:	89 04 24             	mov    %eax,(%esp)
 804980c:	ff d2                	call   *%edx
 804980e:	89 45 f4             	mov    %eax,-0xc(%ebp)
/home/fabrizio/C++Examples/tinyXml/tinyxml/tinyxml.cpp:272
 8049811:	83 7d f4 00          	cmpl   $0x0,-0xc(%ebp)
 8049815:	75 07                	jne    804981e <_ZN9TiXmlNode16InsertAfterChildEPS_RKS_+0xa8>
/home/fabrizio/C++Examples/tinyXml/tinyxml/tinyxml.cpp:273
 8049817:	b8 00 00 00 00       	mov    $0x0,%eax
 804981c:	eb 7a                	jmp    8049898 <_ZN9TiXmlNode16InsertAfterChildEPS_RKS_+0x122>
/home/fabrizio/C++Examples/tinyXml/tinyxml/tinyxml.cpp:274
 804981e:	8b 45 f4             	mov    -0xc(%ebp),%eax
 8049821:	8b 55 08             	mov    0x8(%ebp),%edx
 8049824:	89 50 10             	mov    %edx,0x10(%eax)
/home/fabrizio/C++Examples/tinyXml/tinyxml/tinyxml.cpp:276
 8049827:	8b 45 f4             	mov    -0xc(%ebp),%eax
 804982a:	8b 55 0c             	mov    0xc(%ebp),%edx
 804982d:	89 50 24             	mov    %edx,0x24(%eax)
/home/fabrizio/C++Examples/tinyXml/tinyxml/tinyxml.cpp:277
 8049830:	8b 45 0c             	mov    0xc(%ebp),%eax
 8049833:	8b 50 28             	mov    0x28(%eax),%edx
 8049836:	8b 45 f4             	mov    -0xc(%ebp),%eax
 8049839:	89 50 28             	mov    %edx,0x28(%eax)
/home/fabrizio/C++Examples/tinyXml/tinyxml/tinyxml.cpp:278
 804983c:	8b 45 0c             	mov    0xc(%ebp),%eax
 804983f:	8b 40 28             	mov    0x28(%eax),%eax
 8049842:	85 c0                	test   %eax,%eax
 8049844:	74 0e                	je     8049854 <_ZN9TiXmlNode16InsertAfterChildEPS_RKS_+0xde>
/home/fabrizio/C++Examples/tinyXml/tinyxml/tinyxml.cpp:280
 8049846:	8b 45 0c             	mov    0xc(%ebp),%eax
 8049849:	8b 40 28             	mov    0x28(%eax),%eax
 804984c:	8b 55 f4             	mov    -0xc(%ebp),%edx
 804984f:	89 50 24             	mov    %edx,0x24(%eax)
 8049852:	eb 38                	jmp    804988c <_ZN9TiXmlNode16InsertAfterChildEPS_RKS_+0x116>
/home/fabrizio/C++Examples/tinyXml/tinyxml/tinyxml.cpp:284
 8049854:	8b 45 08             	mov    0x8(%ebp),%eax
 8049857:	8b 40 1c             	mov    0x1c(%eax),%eax
 804985a:	3b 45 0c             	cmp    0xc(%ebp),%eax
 804985d:	74 24                	je     8049883 <_ZN9TiXmlNode16InsertAfterChildEPS_RKS_+0x10d>
 804985f:	c7 44 24 0c a0 69 05 	movl   $0x80569a0,0xc(%esp)
 8049866:	08 
 8049867:	c7 44 24 08 1c 01 00 	movl   $0x11c,0x8(%esp)
 804986e:	00 
 804986f:	c7 44 24 04 65 64 05 	movl   $0x8056465,0x4(%esp)
 8049876:	08 
 8049877:	c7 04 24 00 65 05 08 	movl   $0x8056500,(%esp)
 804987e:	e8 d9 f2 ff ff       	call   8048b5c <__assert_fail@plt>
/home/fabrizio/C++Examples/tinyXml/tinyxml/tinyxml.cpp:285
 8049883:	8b 45 08             	mov    0x8(%ebp),%eax
 8049886:	8b 55 f4             	mov    -0xc(%ebp),%edx
 8049889:	89 50 1c             	mov    %edx,0x1c(%eax)
/home/fabrizio/C++Examples/tinyXml/tinyxml/tinyxml.cpp:287
 804988c:	8b 45 0c             	mov    0xc(%ebp),%eax
 804988f:	8b 55 f4             	mov    -0xc(%ebp),%edx
 8049892:	89 50 28             	mov    %edx,0x28(%eax)
/home/fabrizio/C++Examples/tinyXml/tinyxml/tinyxml.cpp:288
 8049895:	8b 45 f4             	mov    -0xc(%ebp),%eax
/home/fabrizio/C++Examples/tinyXml/tinyxml/tinyxml.cpp:289
 8049898:	c9                   	leave  
 8049899:	c3                   	ret    

0804989a <_ZN9TiXmlNode12ReplaceChildEPS_RKS_>:
_ZN9TiXmlNode12ReplaceChildEPS_RKS_():
/home/fabrizio/C++Examples/tinyXml/tinyxml/tinyxml.cpp:293
 804989a:	55                   	push   %ebp
 804989b:	89 e5                	mov    %esp,%ebp
 804989d:	83 ec 38             	sub    $0x38,%esp
/home/fabrizio/C++Examples/tinyXml/tinyxml/tinyxml.cpp:294
 80498a0:	83 7d 0c 00          	cmpl   $0x0,0xc(%ebp)
 80498a4:	75 0a                	jne    80498b0 <_ZN9TiXmlNode12ReplaceChildEPS_RKS_+0x16>
/home/fabrizio/C++Examples/tinyXml/tinyxml/tinyxml.cpp:295
 80498a6:	b8 00 00 00 00       	mov    $0x0,%eax
 80498ab:	e9 19 01 00 00       	jmp    80499c9 <_ZN9TiXmlNode12ReplaceChildEPS_RKS_+0x12f>
/home/fabrizio/C++Examples/tinyXml/tinyxml/tinyxml.cpp:297
 80498b0:	8b 45 0c             	mov    0xc(%ebp),%eax
 80498b3:	8b 40 10             	mov    0x10(%eax),%eax
 80498b6:	3b 45 08             	cmp    0x8(%ebp),%eax
 80498b9:	74 0a                	je     80498c5 <_ZN9TiXmlNode12ReplaceChildEPS_RKS_+0x2b>
/home/fabrizio/C++Examples/tinyXml/tinyxml/tinyxml.cpp:298
 80498bb:	b8 00 00 00 00       	mov    $0x0,%eax
 80498c0:	e9 04 01 00 00       	jmp    80499c9 <_ZN9TiXmlNode12ReplaceChildEPS_RKS_+0x12f>
/home/fabrizio/C++Examples/tinyXml/tinyxml/tinyxml.cpp:300
 80498c5:	8b 45 10             	mov    0x10(%ebp),%eax
 80498c8:	8b 00                	mov    (%eax),%eax
 80498ca:	83 c0 10             	add    $0x10,%eax
 80498cd:	8b 10                	mov    (%eax),%edx
 80498cf:	8b 45 10             	mov    0x10(%ebp),%eax
 80498d2:	89 04 24             	mov    %eax,(%esp)
 80498d5:	ff d2                	call   *%edx
 80498d7:	85 c0                	test   %eax,%eax
 80498d9:	0f 95 c0             	setne  %al
 80498dc:	84 c0                	test   %al,%al
 80498de:	74 49                	je     8049929 <_ZN9TiXmlNode12ReplaceChildEPS_RKS_+0x8f>
/home/fabrizio/C++Examples/tinyXml/tinyxml/tinyxml.cpp:302
 80498e0:	8b 45 08             	mov    0x8(%ebp),%eax
 80498e3:	89 04 24             	mov    %eax,(%esp)
 80498e6:	e8 e5 3d 00 00       	call   804d6d0 <_ZN9TiXmlNode11GetDocumentEv>
 80498eb:	89 45 f4             	mov    %eax,-0xc(%ebp)
/home/fabrizio/C++Examples/tinyXml/tinyxml/tinyxml.cpp:303
 80498ee:	83 7d f4 00          	cmpl   $0x0,-0xc(%ebp)
 80498f2:	74 2b                	je     804991f <_ZN9TiXmlNode12ReplaceChildEPS_RKS_+0x85>
/home/fabrizio/C++Examples/tinyXml/tinyxml/tinyxml.cpp:304
 80498f4:	c7 44 24 10 00 00 00 	movl   $0x0,0x10(%esp)
 80498fb:	00 
 80498fc:	c7 44 24 0c 00 00 00 	movl   $0x0,0xc(%esp)
 8049903:	00 
 8049904:	c7 44 24 08 00 00 00 	movl   $0x0,0x8(%esp)
 804990b:	00 
 804990c:	c7 44 24 04 0f 00 00 	movl   $0xf,0x4(%esp)
 8049913:	00 
 8049914:	8b 45 f4             	mov    -0xc(%ebp),%eax
 8049917:	89 04 24             	mov    %eax,(%esp)
 804991a:	e8 b7 55 00 00       	call   804eed6 <_ZN13TiXmlDocument8SetErrorEiPKcP16TiXmlParsingData13TiXmlEncoding>
/home/fabrizio/C++Examples/tinyXml/tinyxml/tinyxml.cpp:305
 804991f:	b8 00 00 00 00       	mov    $0x0,%eax
 8049924:	e9 a0 00 00 00       	jmp    80499c9 <_ZN9TiXmlNode12ReplaceChildEPS_RKS_+0x12f>
/home/fabrizio/C++Examples/tinyXml/tinyxml/tinyxml.cpp:308
 8049929:	8b 45 10             	mov    0x10(%ebp),%eax
 804992c:	8b 00                	mov    (%eax),%eax
 804992e:	83 c0 40             	add    $0x40,%eax
 8049931:	8b 10                	mov    (%eax),%edx
 8049933:	8b 45 10             	mov    0x10(%ebp),%eax
 8049936:	89 04 24             	mov    %eax,(%esp)
 8049939:	ff d2                	call   *%edx
 804993b:	89 45 f0             	mov    %eax,-0x10(%ebp)
/home/fabrizio/C++Examples/tinyXml/tinyxml/tinyxml.cpp:309
 804993e:	83 7d f0 00          	cmpl   $0x0,-0x10(%ebp)
 8049942:	75 07                	jne    804994b <_ZN9TiXmlNode12ReplaceChildEPS_RKS_+0xb1>
/home/fabrizio/C++Examples/tinyXml/tinyxml/tinyxml.cpp:310
 8049944:	b8 00 00 00 00       	mov    $0x0,%eax
 8049949:	eb 7e                	jmp    80499c9 <_ZN9TiXmlNode12ReplaceChildEPS_RKS_+0x12f>
/home/fabrizio/C++Examples/tinyXml/tinyxml/tinyxml.cpp:312
 804994b:	8b 45 0c             	mov    0xc(%ebp),%eax
 804994e:	8b 50 28             	mov    0x28(%eax),%edx
 8049951:	8b 45 f0             	mov    -0x10(%ebp),%eax
 8049954:	89 50 28             	mov    %edx,0x28(%eax)
/home/fabrizio/C++Examples/tinyXml/tinyxml/tinyxml.cpp:313
 8049957:	8b 45 0c             	mov    0xc(%ebp),%eax
 804995a:	8b 50 24             	mov    0x24(%eax),%edx
 804995d:	8b 45 f0             	mov    -0x10(%ebp),%eax
 8049960:	89 50 24             	mov    %edx,0x24(%eax)
/home/fabrizio/C++Examples/tinyXml/tinyxml/tinyxml.cpp:315
 8049963:	8b 45 0c             	mov    0xc(%ebp),%eax
 8049966:	8b 40 28             	mov    0x28(%eax),%eax
 8049969:	85 c0                	test   %eax,%eax
 804996b:	74 0e                	je     804997b <_ZN9TiXmlNode12ReplaceChildEPS_RKS_+0xe1>
/home/fabrizio/C++Examples/tinyXml/tinyxml/tinyxml.cpp:316
 804996d:	8b 45 0c             	mov    0xc(%ebp),%eax
 8049970:	8b 40 28             	mov    0x28(%eax),%eax
 8049973:	8b 55 f0             	mov    -0x10(%ebp),%edx
 8049976:	89 50 24             	mov    %edx,0x24(%eax)
 8049979:	eb 09                	jmp    8049984 <_ZN9TiXmlNode12ReplaceChildEPS_RKS_+0xea>
/home/fabrizio/C++Examples/tinyXml/tinyxml/tinyxml.cpp:318
 804997b:	8b 45 08             	mov    0x8(%ebp),%eax
 804997e:	8b 55 f0             	mov    -0x10(%ebp),%edx
 8049981:	89 50 1c             	mov    %edx,0x1c(%eax)
/home/fabrizio/C++Examples/tinyXml/tinyxml/tinyxml.cpp:320
 8049984:	8b 45 0c             	mov    0xc(%ebp),%eax
 8049987:	8b 40 24             	mov    0x24(%eax),%eax
 804998a:	85 c0                	test   %eax,%eax
 804998c:	74 0e                	je     804999c <_ZN9TiXmlNode12ReplaceChildEPS_RKS_+0x102>
/home/fabrizio/C++Examples/tinyXml/tinyxml/tinyxml.cpp:321
 804998e:	8b 45 0c             	mov    0xc(%ebp),%eax
 8049991:	8b 40 24             	mov    0x24(%eax),%eax
 8049994:	8b 55 f0             	mov    -0x10(%ebp),%edx
 8049997:	89 50 28             	mov    %edx,0x28(%eax)
 804999a:	eb 09                	jmp    80499a5 <_ZN9TiXmlNode12ReplaceChildEPS_RKS_+0x10b>
/home/fabrizio/C++Examples/tinyXml/tinyxml/tinyxml.cpp:323
 804999c:	8b 45 08             	mov    0x8(%ebp),%eax
 804999f:	8b 55 f0             	mov    -0x10(%ebp),%edx
 80499a2:	89 50 18             	mov    %edx,0x18(%eax)
/home/fabrizio/C++Examples/tinyXml/tinyxml/tinyxml.cpp:325
 80499a5:	83 7d 0c 00          	cmpl   $0x0,0xc(%ebp)
 80499a9:	74 12                	je     80499bd <_ZN9TiXmlNode12ReplaceChildEPS_RKS_+0x123>
 80499ab:	8b 45 0c             	mov    0xc(%ebp),%eax
 80499ae:	8b 00                	mov    (%eax),%eax
 80499b0:	83 c0 04             	add    $0x4,%eax
 80499b3:	8b 10                	mov    (%eax),%edx
 80499b5:	8b 45 0c             	mov    0xc(%ebp),%eax
 80499b8:	89 04 24             	mov    %eax,(%esp)
 80499bb:	ff d2                	call   *%edx
/home/fabrizio/C++Examples/tinyXml/tinyxml/tinyxml.cpp:326
 80499bd:	8b 45 f0             	mov    -0x10(%ebp),%eax
 80499c0:	8b 55 08             	mov    0x8(%ebp),%edx
 80499c3:	89 50 10             	mov    %edx,0x10(%eax)
/home/fabrizio/C++Examples/tinyXml/tinyxml/tinyxml.cpp:327
 80499c6:	8b 45 f0             	mov    -0x10(%ebp),%eax
/home/fabrizio/C++Examples/tinyXml/tinyxml/tinyxml.cpp:328
 80499c9:	c9                   	leave  
 80499ca:	c3                   	ret    
 80499cb:	90                   	nop

080499cc <_ZN9TiXmlNode11RemoveChildEPS_>:
_ZN9TiXmlNode11RemoveChildEPS_():
/home/fabrizio/C++Examples/tinyXml/tinyxml/tinyxml.cpp:332
 80499cc:	55                   	push   %ebp
 80499cd:	89 e5                	mov    %esp,%ebp
 80499cf:	83 ec 18             	sub    $0x18,%esp
/home/fabrizio/C++Examples/tinyXml/tinyxml/tinyxml.cpp:333
 80499d2:	83 7d 0c 00          	cmpl   $0x0,0xc(%ebp)
 80499d6:	75 0a                	jne    80499e2 <_ZN9TiXmlNode11RemoveChildEPS_+0x16>
/home/fabrizio/C++Examples/tinyXml/tinyxml/tinyxml.cpp:334
 80499d8:	b8 00 00 00 00       	mov    $0x0,%eax
 80499dd:	e9 9a 00 00 00       	jmp    8049a7c <_ZN9TiXmlNode11RemoveChildEPS_+0xb0>
/home/fabrizio/C++Examples/tinyXml/tinyxml/tinyxml.cpp:337
 80499e2:	8b 45 0c             	mov    0xc(%ebp),%eax
 80499e5:	8b 40 10             	mov    0x10(%eax),%eax
 80499e8:	3b 45 08             	cmp    0x8(%ebp),%eax
 80499eb:	74 24                	je     8049a11 <_ZN9TiXmlNode11RemoveChildEPS_+0x45>
/home/fabrizio/C++Examples/tinyXml/tinyxml/tinyxml.cpp:339
 80499ed:	c7 44 24 0c 60 69 05 	movl   $0x8056960,0xc(%esp)
 80499f4:	08 
 80499f5:	c7 44 24 08 53 01 00 	movl   $0x153,0x8(%esp)
 80499fc:	00 
 80499fd:	c7 44 24 04 65 64 05 	movl   $0x8056465,0x4(%esp)
 8049a04:	08 
 8049a05:	c7 04 24 17 65 05 08 	movl   $0x8056517,(%esp)
 8049a0c:	e8 4b f1 ff ff       	call   8048b5c <__assert_fail@plt>
/home/fabrizio/C++Examples/tinyXml/tinyxml/tinyxml.cpp:343
 8049a11:	8b 45 0c             	mov    0xc(%ebp),%eax
 8049a14:	8b 40 28             	mov    0x28(%eax),%eax
 8049a17:	85 c0                	test   %eax,%eax
 8049a19:	74 11                	je     8049a2c <_ZN9TiXmlNode11RemoveChildEPS_+0x60>
/home/fabrizio/C++Examples/tinyXml/tinyxml/tinyxml.cpp:344
 8049a1b:	8b 45 0c             	mov    0xc(%ebp),%eax
 8049a1e:	8b 40 28             	mov    0x28(%eax),%eax
 8049a21:	8b 55 0c             	mov    0xc(%ebp),%edx
 8049a24:	8b 52 24             	mov    0x24(%edx),%edx
 8049a27:	89 50 24             	mov    %edx,0x24(%eax)
 8049a2a:	eb 0c                	jmp    8049a38 <_ZN9TiXmlNode11RemoveChildEPS_+0x6c>
/home/fabrizio/C++Examples/tinyXml/tinyxml/tinyxml.cpp:346
 8049a2c:	8b 45 0c             	mov    0xc(%ebp),%eax
 8049a2f:	8b 50 24             	mov    0x24(%eax),%edx
 8049a32:	8b 45 08             	mov    0x8(%ebp),%eax
 8049a35:	89 50 1c             	mov    %edx,0x1c(%eax)
/home/fabrizio/C++Examples/tinyXml/tinyxml/tinyxml.cpp:348
 8049a38:	8b 45 0c             	mov    0xc(%ebp),%eax
 8049a3b:	8b 40 24             	mov    0x24(%eax),%eax
 8049a3e:	85 c0                	test   %eax,%eax
 8049a40:	74 11                	je     8049a53 <_ZN9TiXmlNode11RemoveChildEPS_+0x87>
/home/fabrizio/C++Examples/tinyXml/tinyxml/tinyxml.cpp:349
 8049a42:	8b 45 0c             	mov    0xc(%ebp),%eax
 8049a45:	8b 40 24             	mov    0x24(%eax),%eax
 8049a48:	8b 55 0c             	mov    0xc(%ebp),%edx
 8049a4b:	8b 52 28             	mov    0x28(%edx),%edx
 8049a4e:	89 50 28             	mov    %edx,0x28(%eax)
 8049a51:	eb 0c                	jmp    8049a5f <_ZN9TiXmlNode11RemoveChildEPS_+0x93>
/home/fabrizio/C++Examples/tinyXml/tinyxml/tinyxml.cpp:351
 8049a53:	8b 45 0c             	mov    0xc(%ebp),%eax
 8049a56:	8b 50 28             	mov    0x28(%eax),%edx
 8049a59:	8b 45 08             	mov    0x8(%ebp),%eax
 8049a5c:	89 50 18             	mov    %edx,0x18(%eax)
/home/fabrizio/C++Examples/tinyXml/tinyxml/tinyxml.cpp:353
 8049a5f:	83 7d 0c 00          	cmpl   $0x0,0xc(%ebp)
 8049a63:	74 12                	je     8049a77 <_ZN9TiXmlNode11RemoveChildEPS_+0xab>
 8049a65:	8b 45 0c             	mov    0xc(%ebp),%eax
 8049a68:	8b 00                	mov    (%eax),%eax
 8049a6a:	83 c0 04             	add    $0x4,%eax
 8049a6d:	8b 10                	mov    (%eax),%edx
 8049a6f:	8b 45 0c             	mov    0xc(%ebp),%eax
 8049a72:	89 04 24             	mov    %eax,(%esp)
 8049a75:	ff d2                	call   *%edx
/home/fabrizio/C++Examples/tinyXml/tinyxml/tinyxml.cpp:354
 8049a77:	b8 01 00 00 00       	mov    $0x1,%eax
/home/fabrizio/C++Examples/tinyXml/tinyxml/tinyxml.cpp:355
 8049a7c:	c9                   	leave  
 8049a7d:	c3                   	ret    

08049a7e <_ZNK9TiXmlNode10FirstChildEPKc>:
_ZNK9TiXmlNode10FirstChildEPKc():
/home/fabrizio/C++Examples/tinyXml/tinyxml/tinyxml.cpp:358
 8049a7e:	55                   	push   %ebp
 8049a7f:	89 e5                	mov    %esp,%ebp
 8049a81:	83 ec 28             	sub    $0x28,%esp
/home/fabrizio/C++Examples/tinyXml/tinyxml/tinyxml.cpp:360
 8049a84:	8b 45 08             	mov    0x8(%ebp),%eax
 8049a87:	8b 40 18             	mov    0x18(%eax),%eax
 8049a8a:	89 45 f4             	mov    %eax,-0xc(%ebp)
 8049a8d:	eb 31                	jmp    8049ac0 <_ZNK9TiXmlNode10FirstChildEPKc+0x42>
/home/fabrizio/C++Examples/tinyXml/tinyxml/tinyxml.cpp:362
 8049a8f:	8b 45 f4             	mov    -0xc(%ebp),%eax
 8049a92:	89 04 24             	mov    %eax,(%esp)
 8049a95:	e8 1e 3b 00 00       	call   804d5b8 <_ZNK9TiXmlNode5ValueEv>
 8049a9a:	8b 55 0c             	mov    0xc(%ebp),%edx
 8049a9d:	89 54 24 04          	mov    %edx,0x4(%esp)
 8049aa1:	89 04 24             	mov    %eax,(%esp)
 8049aa4:	e8 93 f2 ff ff       	call   8048d3c <strcmp@plt>
 8049aa9:	85 c0                	test   %eax,%eax
 8049aab:	0f 94 c0             	sete   %al
 8049aae:	84 c0                	test   %al,%al
 8049ab0:	74 05                	je     8049ab7 <_ZNK9TiXmlNode10FirstChildEPKc+0x39>
/home/fabrizio/C++Examples/tinyXml/tinyxml/tinyxml.cpp:363
 8049ab2:	8b 45 f4             	mov    -0xc(%ebp),%eax
 8049ab5:	eb 19                	jmp    8049ad0 <_ZNK9TiXmlNode10FirstChildEPKc+0x52>
/home/fabrizio/C++Examples/tinyXml/tinyxml/tinyxml.cpp:360
 8049ab7:	8b 45 f4             	mov    -0xc(%ebp),%eax
 8049aba:	8b 40 28             	mov    0x28(%eax),%eax
 8049abd:	89 45 f4             	mov    %eax,-0xc(%ebp)
 8049ac0:	83 7d f4 00          	cmpl   $0x0,-0xc(%ebp)
 8049ac4:	0f 95 c0             	setne  %al
 8049ac7:	84 c0                	test   %al,%al
 8049ac9:	75 c4                	jne    8049a8f <_ZNK9TiXmlNode10FirstChildEPKc+0x11>
/home/fabrizio/C++Examples/tinyXml/tinyxml/tinyxml.cpp:365
 8049acb:	b8 00 00 00 00       	mov    $0x0,%eax
/home/fabrizio/C++Examples/tinyXml/tinyxml/tinyxml.cpp:366
 8049ad0:	c9                   	leave  
 8049ad1:	c3                   	ret    

08049ad2 <_ZNK9TiXmlNode9LastChildEPKc>:
_ZNK9TiXmlNode9LastChildEPKc():
/home/fabrizio/C++Examples/tinyXml/tinyxml/tinyxml.cpp:370
 8049ad2:	55                   	push   %ebp
 8049ad3:	89 e5                	mov    %esp,%ebp
 8049ad5:	83 ec 28             	sub    $0x28,%esp
/home/fabrizio/C++Examples/tinyXml/tinyxml/tinyxml.cpp:372
 8049ad8:	8b 45 08             	mov    0x8(%ebp),%eax
 8049adb:	8b 40 1c             	mov    0x1c(%eax),%eax
 8049ade:	89 45 f4             	mov    %eax,-0xc(%ebp)
 8049ae1:	eb 31                	jmp    8049b14 <_ZNK9TiXmlNode9LastChildEPKc+0x42>
/home/fabrizio/C++Examples/tinyXml/tinyxml/tinyxml.cpp:374
 8049ae3:	8b 45 f4             	mov    -0xc(%ebp),%eax
 8049ae6:	89 04 24             	mov    %eax,(%esp)
 8049ae9:	e8 ca 3a 00 00       	call   804d5b8 <_ZNK9TiXmlNode5ValueEv>
 8049aee:	8b 55 0c             	mov    0xc(%ebp),%edx
 8049af1:	89 54 24 04          	mov    %edx,0x4(%esp)
 8049af5:	89 04 24             	mov    %eax,(%esp)
 8049af8:	e8 3f f2 ff ff       	call   8048d3c <strcmp@plt>
 8049afd:	85 c0                	test   %eax,%eax
 8049aff:	0f 94 c0             	sete   %al
 8049b02:	84 c0                	test   %al,%al
 8049b04:	74 05                	je     8049b0b <_ZNK9TiXmlNode9LastChildEPKc+0x39>
/home/fabrizio/C++Examples/tinyXml/tinyxml/tinyxml.cpp:375
 8049b06:	8b 45 f4             	mov    -0xc(%ebp),%eax
 8049b09:	eb 19                	jmp    8049b24 <_ZNK9TiXmlNode9LastChildEPKc+0x52>
/home/fabrizio/C++Examples/tinyXml/tinyxml/tinyxml.cpp:372
 8049b0b:	8b 45 f4             	mov    -0xc(%ebp),%eax
 8049b0e:	8b 40 24             	mov    0x24(%eax),%eax
 8049b11:	89 45 f4             	mov    %eax,-0xc(%ebp)
 8049b14:	83 7d f4 00          	cmpl   $0x0,-0xc(%ebp)
 8049b18:	0f 95 c0             	setne  %al
 8049b1b:	84 c0                	test   %al,%al
 8049b1d:	75 c4                	jne    8049ae3 <_ZNK9TiXmlNode9LastChildEPKc+0x11>
/home/fabrizio/C++Examples/tinyXml/tinyxml/tinyxml.cpp:377
 8049b1f:	b8 00 00 00 00       	mov    $0x0,%eax
/home/fabrizio/C++Examples/tinyXml/tinyxml/tinyxml.cpp:378
 8049b24:	c9                   	leave  
 8049b25:	c3                   	ret    

08049b26 <_ZNK9TiXmlNode15IterateChildrenEPKS_>:
_ZNK9TiXmlNode15IterateChildrenEPKS_():
/home/fabrizio/C++Examples/tinyXml/tinyxml/tinyxml.cpp:382
 8049b26:	55                   	push   %ebp
 8049b27:	89 e5                	mov    %esp,%ebp
 8049b29:	83 ec 18             	sub    $0x18,%esp
/home/fabrizio/C++Examples/tinyXml/tinyxml/tinyxml.cpp:383
 8049b2c:	83 7d 0c 00          	cmpl   $0x0,0xc(%ebp)
 8049b30:	75 0d                	jne    8049b3f <_ZNK9TiXmlNode15IterateChildrenEPKS_+0x19>
/home/fabrizio/C++Examples/tinyXml/tinyxml/tinyxml.cpp:385
 8049b32:	8b 45 08             	mov    0x8(%ebp),%eax
 8049b35:	89 04 24             	mov    %eax,(%esp)
 8049b38:	e8 bb 3a 00 00       	call   804d5f8 <_ZNK9TiXmlNode10FirstChildEv>
 8049b3d:	eb 3a                	jmp    8049b79 <_ZNK9TiXmlNode15IterateChildrenEPKS_+0x53>
/home/fabrizio/C++Examples/tinyXml/tinyxml/tinyxml.cpp:389
 8049b3f:	8b 45 0c             	mov    0xc(%ebp),%eax
 8049b42:	8b 40 10             	mov    0x10(%eax),%eax
 8049b45:	3b 45 08             	cmp    0x8(%ebp),%eax
 8049b48:	74 24                	je     8049b6e <_ZNK9TiXmlNode15IterateChildrenEPKS_+0x48>
 8049b4a:	c7 44 24 0c 00 69 05 	movl   $0x8056900,0xc(%esp)
 8049b51:	08 
 8049b52:	c7 44 24 08 85 01 00 	movl   $0x185,0x8(%esp)
 8049b59:	00 
 8049b5a:	c7 44 24 04 65 64 05 	movl   $0x8056465,0x4(%esp)
 8049b61:	08 
 8049b62:	c7 04 24 19 65 05 08 	movl   $0x8056519,(%esp)
 8049b69:	e8 ee ef ff ff       	call   8048b5c <__assert_fail@plt>
/home/fabrizio/C++Examples/tinyXml/tinyxml/tinyxml.cpp:390
 8049b6e:	8b 45 0c             	mov    0xc(%ebp),%eax
 8049b71:	89 04 24             	mov    %eax,(%esp)
 8049b74:	e8 bd 3a 00 00       	call   804d636 <_ZNK9TiXmlNode11NextSiblingEv>
/home/fabrizio/C++Examples/tinyXml/tinyxml/tinyxml.cpp:392
 8049b79:	c9                   	leave  
 8049b7a:	c3                   	ret    
 8049b7b:	90                   	nop

08049b7c <_ZNK9TiXmlNode15IterateChildrenEPKcPKS_>:
_ZNK9TiXmlNode15IterateChildrenEPKcPKS_():
/home/fabrizio/C++Examples/tinyXml/tinyxml/tinyxml.cpp:396
 8049b7c:	55                   	push   %ebp
 8049b7d:	89 e5                	mov    %esp,%ebp
 8049b7f:	83 ec 18             	sub    $0x18,%esp
/home/fabrizio/C++Examples/tinyXml/tinyxml/tinyxml.cpp:397
 8049b82:	83 7d 10 00          	cmpl   $0x0,0x10(%ebp)
 8049b86:	75 14                	jne    8049b9c <_ZNK9TiXmlNode15IterateChildrenEPKcPKS_+0x20>
/home/fabrizio/C++Examples/tinyXml/tinyxml/tinyxml.cpp:399
 8049b88:	8b 45 0c             	mov    0xc(%ebp),%eax
 8049b8b:	89 44 24 04          	mov    %eax,0x4(%esp)
 8049b8f:	8b 45 08             	mov    0x8(%ebp),%eax
 8049b92:	89 04 24             	mov    %eax,(%esp)
 8049b95:	e8 e4 fe ff ff       	call   8049a7e <_ZNK9TiXmlNode10FirstChildEPKc>
 8049b9a:	eb 41                	jmp    8049bdd <_ZNK9TiXmlNode15IterateChildrenEPKcPKS_+0x61>
/home/fabrizio/C++Examples/tinyXml/tinyxml/tinyxml.cpp:403
 8049b9c:	8b 45 10             	mov    0x10(%ebp),%eax
 8049b9f:	8b 40 10             	mov    0x10(%eax),%eax
 8049ba2:	3b 45 08             	cmp    0x8(%ebp),%eax
 8049ba5:	74 24                	je     8049bcb <_ZNK9TiXmlNode15IterateChildrenEPKcPKS_+0x4f>
 8049ba7:	c7 44 24 0c a0 68 05 	movl   $0x80568a0,0xc(%esp)
 8049bae:	08 
 8049baf:	c7 44 24 08 93 01 00 	movl   $0x193,0x8(%esp)
 8049bb6:	00 
 8049bb7:	c7 44 24 04 65 64 05 	movl   $0x8056465,0x4(%esp)
 8049bbe:	08 
 8049bbf:	c7 04 24 19 65 05 08 	movl   $0x8056519,(%esp)
 8049bc6:	e8 91 ef ff ff       	call   8048b5c <__assert_fail@plt>
/home/fabrizio/C++Examples/tinyXml/tinyxml/tinyxml.cpp:404
 8049bcb:	8b 45 0c             	mov    0xc(%ebp),%eax
 8049bce:	89 44 24 04          	mov    %eax,0x4(%esp)
 8049bd2:	8b 45 10             	mov    0x10(%ebp),%eax
 8049bd5:	89 04 24             	mov    %eax,(%esp)
 8049bd8:	e8 03 00 00 00       	call   8049be0 <_ZNK9TiXmlNode11NextSiblingEPKc>
/home/fabrizio/C++Examples/tinyXml/tinyxml/tinyxml.cpp:406
 8049bdd:	c9                   	leave  
 8049bde:	c3                   	ret    
 8049bdf:	90                   	nop

08049be0 <_ZNK9TiXmlNode11NextSiblingEPKc>:
_ZNK9TiXmlNode11NextSiblingEPKc():
/home/fabrizio/C++Examples/tinyXml/tinyxml/tinyxml.cpp:410
 8049be0:	55                   	push   %ebp
 8049be1:	89 e5                	mov    %esp,%ebp
 8049be3:	83 ec 28             	sub    $0x28,%esp
/home/fabrizio/C++Examples/tinyXml/tinyxml/tinyxml.cpp:412
 8049be6:	8b 45 08             	mov    0x8(%ebp),%eax
 8049be9:	8b 40 28             	mov    0x28(%eax),%eax
 8049bec:	89 45 f4             	mov    %eax,-0xc(%ebp)
 8049bef:	eb 31                	jmp    8049c22 <_ZNK9TiXmlNode11NextSiblingEPKc+0x42>
/home/fabrizio/C++Examples/tinyXml/tinyxml/tinyxml.cpp:414
 8049bf1:	8b 45 f4             	mov    -0xc(%ebp),%eax
 8049bf4:	89 04 24             	mov    %eax,(%esp)
 8049bf7:	e8 bc 39 00 00       	call   804d5b8 <_ZNK9TiXmlNode5ValueEv>
 8049bfc:	8b 55 0c             	mov    0xc(%ebp),%edx
 8049bff:	89 54 24 04          	mov    %edx,0x4(%esp)
 8049c03:	89 04 24             	mov    %eax,(%esp)
 8049c06:	e8 31 f1 ff ff       	call   8048d3c <strcmp@plt>
 8049c0b:	85 c0                	test   %eax,%eax
 8049c0d:	0f 94 c0             	sete   %al
 8049c10:	84 c0                	test   %al,%al
 8049c12:	74 05                	je     8049c19 <_ZNK9TiXmlNode11NextSiblingEPKc+0x39>
/home/fabrizio/C++Examples/tinyXml/tinyxml/tinyxml.cpp:415
 8049c14:	8b 45 f4             	mov    -0xc(%ebp),%eax
 8049c17:	eb 19                	jmp    8049c32 <_ZNK9TiXmlNode11NextSiblingEPKc+0x52>
/home/fabrizio/C++Examples/tinyXml/tinyxml/tinyxml.cpp:412
 8049c19:	8b 45 f4             	mov    -0xc(%ebp),%eax
 8049c1c:	8b 40 28             	mov    0x28(%eax),%eax
 8049c1f:	89 45 f4             	mov    %eax,-0xc(%ebp)
 8049c22:	83 7d f4 00          	cmpl   $0x0,-0xc(%ebp)
 8049c26:	0f 95 c0             	setne  %al
 8049c29:	84 c0                	test   %al,%al
 8049c2b:	75 c4                	jne    8049bf1 <_ZNK9TiXmlNode11NextSiblingEPKc+0x11>
/home/fabrizio/C++Examples/tinyXml/tinyxml/tinyxml.cpp:417
 8049c2d:	b8 00 00 00 00       	mov    $0x0,%eax
/home/fabrizio/C++Examples/tinyXml/tinyxml/tinyxml.cpp:418
 8049c32:	c9                   	leave  
 8049c33:	c3                   	ret    

08049c34 <_ZNK9TiXmlNode15PreviousSiblingEPKc>:
_ZNK9TiXmlNode15PreviousSiblingEPKc():
/home/fabrizio/C++Examples/tinyXml/tinyxml/tinyxml.cpp:422
 8049c34:	55                   	push   %ebp
 8049c35:	89 e5                	mov    %esp,%ebp
 8049c37:	83 ec 28             	sub    $0x28,%esp
/home/fabrizio/C++Examples/tinyXml/tinyxml/tinyxml.cpp:424
 8049c3a:	8b 45 08             	mov    0x8(%ebp),%eax
 8049c3d:	8b 40 24             	mov    0x24(%eax),%eax
 8049c40:	89 45 f4             	mov    %eax,-0xc(%ebp)
 8049c43:	eb 31                	jmp    8049c76 <_ZNK9TiXmlNode15PreviousSiblingEPKc+0x42>
/home/fabrizio/C++Examples/tinyXml/tinyxml/tinyxml.cpp:426
 8049c45:	8b 45 f4             	mov    -0xc(%ebp),%eax
 8049c48:	89 04 24             	mov    %eax,(%esp)
 8049c4b:	e8 68 39 00 00       	call   804d5b8 <_ZNK9TiXmlNode5ValueEv>
 8049c50:	8b 55 0c             	mov    0xc(%ebp),%edx
 8049c53:	89 54 24 04          	mov    %edx,0x4(%esp)
 8049c57:	89 04 24             	mov    %eax,(%esp)
 8049c5a:	e8 dd f0 ff ff       	call   8048d3c <strcmp@plt>
 8049c5f:	85 c0                	test   %eax,%eax
 8049c61:	0f 94 c0             	sete   %al
 8049c64:	84 c0                	test   %al,%al
 8049c66:	74 05                	je     8049c6d <_ZNK9TiXmlNode15PreviousSiblingEPKc+0x39>
/home/fabrizio/C++Examples/tinyXml/tinyxml/tinyxml.cpp:427
 8049c68:	8b 45 f4             	mov    -0xc(%ebp),%eax
 8049c6b:	eb 19                	jmp    8049c86 <_ZNK9TiXmlNode15PreviousSiblingEPKc+0x52>
/home/fabrizio/C++Examples/tinyXml/tinyxml/tinyxml.cpp:424
 8049c6d:	8b 45 f4             	mov    -0xc(%ebp),%eax
 8049c70:	8b 40 24             	mov    0x24(%eax),%eax
 8049c73:	89 45 f4             	mov    %eax,-0xc(%ebp)
 8049c76:	83 7d f4 00          	cmpl   $0x0,-0xc(%ebp)
 8049c7a:	0f 95 c0             	setne  %al
 8049c7d:	84 c0                	test   %al,%al
 8049c7f:	75 c4                	jne    8049c45 <_ZNK9TiXmlNode15PreviousSiblingEPKc+0x11>
/home/fabrizio/C++Examples/tinyXml/tinyxml/tinyxml.cpp:429
 8049c81:	b8 00 00 00 00       	mov    $0x0,%eax
/home/fabrizio/C++Examples/tinyXml/tinyxml/tinyxml.cpp:430
 8049c86:	c9                   	leave  
 8049c87:	c3                   	ret    

08049c88 <_ZN12TiXmlElement15RemoveAttributeEPKc>:
_ZN12TiXmlElement15RemoveAttributeEPKc():
/home/fabrizio/C++Examples/tinyXml/tinyxml/tinyxml.cpp:434
 8049c88:	55                   	push   %ebp
 8049c89:	89 e5                	mov    %esp,%ebp
 8049c8b:	83 ec 28             	sub    $0x28,%esp
/home/fabrizio/C++Examples/tinyXml/tinyxml/tinyxml.cpp:439
 8049c8e:	8b 45 08             	mov    0x8(%ebp),%eax
 8049c91:	8d 50 2c             	lea    0x2c(%eax),%edx
 8049c94:	8b 45 0c             	mov    0xc(%ebp),%eax
 8049c97:	89 44 24 04          	mov    %eax,0x4(%esp)
 8049c9b:	89 14 24             	mov    %edx,(%esp)
 8049c9e:	e8 b3 2a 00 00       	call   804c756 <_ZNK17TiXmlAttributeSet4FindEPKc>
 8049ca3:	89 45 f4             	mov    %eax,-0xc(%ebp)
/home/fabrizio/C++Examples/tinyXml/tinyxml/tinyxml.cpp:441
 8049ca6:	83 7d f4 00          	cmpl   $0x0,-0xc(%ebp)
 8049caa:	74 2d                	je     8049cd9 <_ZN12TiXmlElement15RemoveAttributeEPKc+0x51>
/home/fabrizio/C++Examples/tinyXml/tinyxml/tinyxml.cpp:443
 8049cac:	8b 45 08             	mov    0x8(%ebp),%eax
 8049caf:	8d 50 2c             	lea    0x2c(%eax),%edx
 8049cb2:	8b 45 f4             	mov    -0xc(%ebp),%eax
 8049cb5:	89 44 24 04          	mov    %eax,0x4(%esp)
 8049cb9:	89 14 24             	mov    %edx,(%esp)
 8049cbc:	e8 0d 2a 00 00       	call   804c6ce <_ZN17TiXmlAttributeSet6RemoveEP14TiXmlAttribute>
/home/fabrizio/C++Examples/tinyXml/tinyxml/tinyxml.cpp:444
 8049cc1:	83 7d f4 00          	cmpl   $0x0,-0xc(%ebp)
 8049cc5:	74 12                	je     8049cd9 <_ZN12TiXmlElement15RemoveAttributeEPKc+0x51>
 8049cc7:	8b 45 f4             	mov    -0xc(%ebp),%eax
 8049cca:	8b 00                	mov    (%eax),%eax
 8049ccc:	83 c0 04             	add    $0x4,%eax
 8049ccf:	8b 10                	mov    (%eax),%edx
 8049cd1:	8b 45 f4             	mov    -0xc(%ebp),%eax
 8049cd4:	89 04 24             	mov    %eax,(%esp)
 8049cd7:	ff d2                	call   *%edx
/home/fabrizio/C++Examples/tinyXml/tinyxml/tinyxml.cpp:446
 8049cd9:	c9                   	leave  
 8049cda:	c3                   	ret    
 8049cdb:	90                   	nop

08049cdc <_ZNK9TiXmlNode17FirstChildElementEv>:
_ZNK9TiXmlNode17FirstChildElementEv():
/home/fabrizio/C++Examples/tinyXml/tinyxml/tinyxml.cpp:449
 8049cdc:	55                   	push   %ebp
 8049cdd:	89 e5                	mov    %esp,%ebp
 8049cdf:	83 ec 28             	sub    $0x28,%esp
/home/fabrizio/C++Examples/tinyXml/tinyxml/tinyxml.cpp:452
 8049ce2:	8b 45 08             	mov    0x8(%ebp),%eax
 8049ce5:	89 04 24             	mov    %eax,(%esp)
 8049ce8:	e8 0b 39 00 00       	call   804d5f8 <_ZNK9TiXmlNode10FirstChildEv>
 8049ced:	89 45 f4             	mov    %eax,-0xc(%ebp)
 8049cf0:	eb 3d                	jmp    8049d2f <_ZNK9TiXmlNode17FirstChildElementEv+0x53>
/home/fabrizio/C++Examples/tinyXml/tinyxml/tinyxml.cpp:456
 8049cf2:	8b 45 f4             	mov    -0xc(%ebp),%eax
 8049cf5:	8b 00                	mov    (%eax),%eax
 8049cf7:	83 c0 14             	add    $0x14,%eax
 8049cfa:	8b 10                	mov    (%eax),%edx
 8049cfc:	8b 45 f4             	mov    -0xc(%ebp),%eax
 8049cff:	89 04 24             	mov    %eax,(%esp)
 8049d02:	ff d2                	call   *%edx
 8049d04:	85 c0                	test   %eax,%eax
 8049d06:	0f 95 c0             	setne  %al
 8049d09:	84 c0                	test   %al,%al
 8049d0b:	74 14                	je     8049d21 <_ZNK9TiXmlNode17FirstChildElementEv+0x45>
/home/fabrizio/C++Examples/tinyXml/tinyxml/tinyxml.cpp:457
 8049d0d:	8b 45 f4             	mov    -0xc(%ebp),%eax
 8049d10:	8b 00                	mov    (%eax),%eax
 8049d12:	83 c0 14             	add    $0x14,%eax
 8049d15:	8b 10                	mov    (%eax),%edx
 8049d17:	8b 45 f4             	mov    -0xc(%ebp),%eax
 8049d1a:	89 04 24             	mov    %eax,(%esp)
 8049d1d:	ff d2                	call   *%edx
 8049d1f:	eb 1e                	jmp    8049d3f <_ZNK9TiXmlNode17FirstChildElementEv+0x63>
/home/fabrizio/C++Examples/tinyXml/tinyxml/tinyxml.cpp:452
 8049d21:	8b 45 f4             	mov    -0xc(%ebp),%eax
 8049d24:	89 04 24             	mov    %eax,(%esp)
 8049d27:	e8 0a 39 00 00       	call   804d636 <_ZNK9TiXmlNode11NextSiblingEv>
 8049d2c:	89 45 f4             	mov    %eax,-0xc(%ebp)
 8049d2f:	83 7d f4 00          	cmpl   $0x0,-0xc(%ebp)
 8049d33:	0f 95 c0             	setne  %al
 8049d36:	84 c0                	test   %al,%al
 8049d38:	75 b8                	jne    8049cf2 <_ZNK9TiXmlNode17FirstChildElementEv+0x16>
/home/fabrizio/C++Examples/tinyXml/tinyxml/tinyxml.cpp:459
 8049d3a:	b8 00 00 00 00       	mov    $0x0,%eax
/home/fabrizio/C++Examples/tinyXml/tinyxml/tinyxml.cpp:460
 8049d3f:	c9                   	leave  
 8049d40:	c3                   	ret    
 8049d41:	90                   	nop

08049d42 <_ZNK9TiXmlNode17FirstChildElementEPKc>:
_ZNK9TiXmlNode17FirstChildElementEPKc():
/home/fabrizio/C++Examples/tinyXml/tinyxml/tinyxml.cpp:464
 8049d42:	55                   	push   %ebp
 8049d43:	89 e5                	mov    %esp,%ebp
 8049d45:	83 ec 28             	sub    $0x28,%esp
/home/fabrizio/C++Examples/tinyXml/tinyxml/tinyxml.cpp:467
 8049d48:	8b 45 0c             	mov    0xc(%ebp),%eax
 8049d4b:	89 44 24 04          	mov    %eax,0x4(%esp)
 8049d4f:	8b 45 08             	mov    0x8(%ebp),%eax
 8049d52:	89 04 24             	mov    %eax,(%esp)
 8049d55:	e8 24 fd ff ff       	call   8049a7e <_ZNK9TiXmlNode10FirstChildEPKc>
 8049d5a:	89 45 f4             	mov    %eax,-0xc(%ebp)
 8049d5d:	eb 44                	jmp    8049da3 <_ZNK9TiXmlNode17FirstChildElementEPKc+0x61>
/home/fabrizio/C++Examples/tinyXml/tinyxml/tinyxml.cpp:471
 8049d5f:	8b 45 f4             	mov    -0xc(%ebp),%eax
 8049d62:	8b 00                	mov    (%eax),%eax
 8049d64:	83 c0 14             	add    $0x14,%eax
 8049d67:	8b 10                	mov    (%eax),%edx
 8049d69:	8b 45 f4             	mov    -0xc(%ebp),%eax
 8049d6c:	89 04 24             	mov    %eax,(%esp)
 8049d6f:	ff d2                	call   *%edx
 8049d71:	85 c0                	test   %eax,%eax
 8049d73:	0f 95 c0             	setne  %al
 8049d76:	84 c0                	test   %al,%al
 8049d78:	74 14                	je     8049d8e <_ZNK9TiXmlNode17FirstChildElementEPKc+0x4c>
/home/fabrizio/C++Examples/tinyXml/tinyxml/tinyxml.cpp:472
 8049d7a:	8b 45 f4             	mov    -0xc(%ebp),%eax
 8049d7d:	8b 00                	mov    (%eax),%eax
 8049d7f:	83 c0 14             	add    $0x14,%eax
 8049d82:	8b 10                	mov    (%eax),%edx
 8049d84:	8b 45 f4             	mov    -0xc(%ebp),%eax
 8049d87:	89 04 24             	mov    %eax,(%esp)
 8049d8a:	ff d2                	call   *%edx
 8049d8c:	eb 25                	jmp    8049db3 <_ZNK9TiXmlNode17FirstChildElementEPKc+0x71>
/home/fabrizio/C++Examples/tinyXml/tinyxml/tinyxml.cpp:467
 8049d8e:	8b 45 0c             	mov    0xc(%ebp),%eax
 8049d91:	89 44 24 04          	mov    %eax,0x4(%esp)
 8049d95:	8b 45 f4             	mov    -0xc(%ebp),%eax
 8049d98:	89 04 24             	mov    %eax,(%esp)
 8049d9b:	e8 40 fe ff ff       	call   8049be0 <_ZNK9TiXmlNode11NextSiblingEPKc>
 8049da0:	89 45 f4             	mov    %eax,-0xc(%ebp)
 8049da3:	83 7d f4 00          	cmpl   $0x0,-0xc(%ebp)
 8049da7:	0f 95 c0             	setne  %al
 8049daa:	84 c0                	test   %al,%al
 8049dac:	75 b1                	jne    8049d5f <_ZNK9TiXmlNode17FirstChildElementEPKc+0x1d>
/home/fabrizio/C++Examples/tinyXml/tinyxml/tinyxml.cpp:474
 8049dae:	b8 00 00 00 00       	mov    $0x0,%eax
/home/fabrizio/C++Examples/tinyXml/tinyxml/tinyxml.cpp:475
 8049db3:	c9                   	leave  
 8049db4:	c3                   	ret    
 8049db5:	90                   	nop

08049db6 <_ZNK9TiXmlNode18NextSiblingElementEv>:
_ZNK9TiXmlNode18NextSiblingElementEv():
/home/fabrizio/C++Examples/tinyXml/tinyxml/tinyxml.cpp:479
 8049db6:	55                   	push   %ebp
 8049db7:	89 e5                	mov    %esp,%ebp
 8049db9:	83 ec 28             	sub    $0x28,%esp
/home/fabrizio/C++Examples/tinyXml/tinyxml/tinyxml.cpp:482
 8049dbc:	8b 45 08             	mov    0x8(%ebp),%eax
 8049dbf:	89 04 24             	mov    %eax,(%esp)
 8049dc2:	e8 6f 38 00 00       	call   804d636 <_ZNK9TiXmlNode11NextSiblingEv>
 8049dc7:	89 45 f4             	mov    %eax,-0xc(%ebp)
 8049dca:	eb 3d                	jmp    8049e09 <_ZNK9TiXmlNode18NextSiblingElementEv+0x53>
/home/fabrizio/C++Examples/tinyXml/tinyxml/tinyxml.cpp:486
 8049dcc:	8b 45 f4             	mov    -0xc(%ebp),%eax
 8049dcf:	8b 00                	mov    (%eax),%eax
 8049dd1:	83 c0 14             	add    $0x14,%eax
 8049dd4:	8b 10                	mov    (%eax),%edx
 8049dd6:	8b 45 f4             	mov    -0xc(%ebp),%eax
 8049dd9:	89 04 24             	mov    %eax,(%esp)
 8049ddc:	ff d2                	call   *%edx
 8049dde:	85 c0                	test   %eax,%eax
 8049de0:	0f 95 c0             	setne  %al
 8049de3:	84 c0                	test   %al,%al
 8049de5:	74 14                	je     8049dfb <_ZNK9TiXmlNode18NextSiblingElementEv+0x45>
/home/fabrizio/C++Examples/tinyXml/tinyxml/tinyxml.cpp:487
 8049de7:	8b 45 f4             	mov    -0xc(%ebp),%eax
 8049dea:	8b 00                	mov    (%eax),%eax
 8049dec:	83 c0 14             	add    $0x14,%eax
 8049def:	8b 10                	mov    (%eax),%edx
 8049df1:	8b 45 f4             	mov    -0xc(%ebp),%eax
 8049df4:	89 04 24             	mov    %eax,(%esp)
 8049df7:	ff d2                	call   *%edx
 8049df9:	eb 1e                	jmp    8049e19 <_ZNK9TiXmlNode18NextSiblingElementEv+0x63>
/home/fabrizio/C++Examples/tinyXml/tinyxml/tinyxml.cpp:482
 8049dfb:	8b 45 f4             	mov    -0xc(%ebp),%eax
 8049dfe:	89 04 24             	mov    %eax,(%esp)
 8049e01:	e8 30 38 00 00       	call   804d636 <_ZNK9TiXmlNode11NextSiblingEv>
 8049e06:	89 45 f4             	mov    %eax,-0xc(%ebp)
 8049e09:	83 7d f4 00          	cmpl   $0x0,-0xc(%ebp)
 8049e0d:	0f 95 c0             	setne  %al
 8049e10:	84 c0                	test   %al,%al
 8049e12:	75 b8                	jne    8049dcc <_ZNK9TiXmlNode18NextSiblingElementEv+0x16>
/home/fabrizio/C++Examples/tinyXml/tinyxml/tinyxml.cpp:489
 8049e14:	b8 00 00 00 00       	mov    $0x0,%eax
/home/fabrizio/C++Examples/tinyXml/tinyxml/tinyxml.cpp:490
 8049e19:	c9                   	leave  
 8049e1a:	c3                   	ret    
 8049e1b:	90                   	nop

08049e1c <_ZNK9TiXmlNode18NextSiblingElementEPKc>:
_ZNK9TiXmlNode18NextSiblingElementEPKc():
/home/fabrizio/C++Examples/tinyXml/tinyxml/tinyxml.cpp:494
 8049e1c:	55                   	push   %ebp
 8049e1d:	89 e5                	mov    %esp,%ebp
 8049e1f:	83 ec 28             	sub    $0x28,%esp
/home/fabrizio/C++Examples/tinyXml/tinyxml/tinyxml.cpp:497
 8049e22:	8b 45 0c             	mov    0xc(%ebp),%eax
 8049e25:	89 44 24 04          	mov    %eax,0x4(%esp)
 8049e29:	8b 45 08             	mov    0x8(%ebp),%eax
 8049e2c:	89 04 24             	mov    %eax,(%esp)
 8049e2f:	e8 ac fd ff ff       	call   8049be0 <_ZNK9TiXmlNode11NextSiblingEPKc>
 8049e34:	89 45 f4             	mov    %eax,-0xc(%ebp)
 8049e37:	eb 44                	jmp    8049e7d <_ZNK9TiXmlNode18NextSiblingElementEPKc+0x61>
/home/fabrizio/C++Examples/tinyXml/tinyxml/tinyxml.cpp:501
 8049e39:	8b 45 f4             	mov    -0xc(%ebp),%eax
 8049e3c:	8b 00                	mov    (%eax),%eax
 8049e3e:	83 c0 14             	add    $0x14,%eax
 8049e41:	8b 10                	mov    (%eax),%edx
 8049e43:	8b 45 f4             	mov    -0xc(%ebp),%eax
 8049e46:	89 04 24             	mov    %eax,(%esp)
 8049e49:	ff d2                	call   *%edx
 8049e4b:	85 c0                	test   %eax,%eax
 8049e4d:	0f 95 c0             	setne  %al
 8049e50:	84 c0                	test   %al,%al
 8049e52:	74 14                	je     8049e68 <_ZNK9TiXmlNode18NextSiblingElementEPKc+0x4c>
/home/fabrizio/C++Examples/tinyXml/tinyxml/tinyxml.cpp:502
 8049e54:	8b 45 f4             	mov    -0xc(%ebp),%eax
 8049e57:	8b 00                	mov    (%eax),%eax
 8049e59:	83 c0 14             	add    $0x14,%eax
 8049e5c:	8b 10                	mov    (%eax),%edx
 8049e5e:	8b 45 f4             	mov    -0xc(%ebp),%eax
 8049e61:	89 04 24             	mov    %eax,(%esp)
 8049e64:	ff d2                	call   *%edx
 8049e66:	eb 25                	jmp    8049e8d <_ZNK9TiXmlNode18NextSiblingElementEPKc+0x71>
/home/fabrizio/C++Examples/tinyXml/tinyxml/tinyxml.cpp:497
 8049e68:	8b 45 0c             	mov    0xc(%ebp),%eax
 8049e6b:	89 44 24 04          	mov    %eax,0x4(%esp)
 8049e6f:	8b 45 f4             	mov    -0xc(%ebp),%eax
 8049e72:	89 04 24             	mov    %eax,(%esp)
 8049e75:	e8 66 fd ff ff       	call   8049be0 <_ZNK9TiXmlNode11NextSiblingEPKc>
 8049e7a:	89 45 f4             	mov    %eax,-0xc(%ebp)
 8049e7d:	83 7d f4 00          	cmpl   $0x0,-0xc(%ebp)
 8049e81:	0f 95 c0             	setne  %al
 8049e84:	84 c0                	test   %al,%al
 8049e86:	75 b1                	jne    8049e39 <_ZNK9TiXmlNode18NextSiblingElementEPKc+0x1d>
/home/fabrizio/C++Examples/tinyXml/tinyxml/tinyxml.cpp:504
 8049e88:	b8 00 00 00 00       	mov    $0x0,%eax
/home/fabrizio/C++Examples/tinyXml/tinyxml/tinyxml.cpp:505
 8049e8d:	c9                   	leave  
 8049e8e:	c3                   	ret    
 8049e8f:	90                   	nop

08049e90 <_ZNK9TiXmlNode11GetDocumentEv>:
_ZNK9TiXmlNode11GetDocumentEv():
/home/fabrizio/C++Examples/tinyXml/tinyxml/tinyxml.cpp:509
 8049e90:	55                   	push   %ebp
 8049e91:	89 e5                	mov    %esp,%ebp
 8049e93:	83 ec 28             	sub    $0x28,%esp
/home/fabrizio/C++Examples/tinyXml/tinyxml/tinyxml.cpp:512
 8049e96:	8b 45 08             	mov    0x8(%ebp),%eax
 8049e99:	89 45 f4             	mov    %eax,-0xc(%ebp)
 8049e9c:	eb 38                	jmp    8049ed6 <_ZNK9TiXmlNode11GetDocumentEv+0x46>
/home/fabrizio/C++Examples/tinyXml/tinyxml/tinyxml.cpp:514
 8049e9e:	8b 45 f4             	mov    -0xc(%ebp),%eax
 8049ea1:	8b 00                	mov    (%eax),%eax
 8049ea3:	83 c0 10             	add    $0x10,%eax
 8049ea6:	8b 10                	mov    (%eax),%edx
 8049ea8:	8b 45 f4             	mov    -0xc(%ebp),%eax
 8049eab:	89 04 24             	mov    %eax,(%esp)
 8049eae:	ff d2                	call   *%edx
 8049eb0:	85 c0                	test   %eax,%eax
 8049eb2:	0f 95 c0             	setne  %al
 8049eb5:	84 c0                	test   %al,%al
 8049eb7:	74 14                	je     8049ecd <_ZNK9TiXmlNode11GetDocumentEv+0x3d>
/home/fabrizio/C++Examples/tinyXml/tinyxml/tinyxml.cpp:515
 8049eb9:	8b 45 f4             	mov    -0xc(%ebp),%eax
 8049ebc:	8b 00                	mov    (%eax),%eax
 8049ebe:	83 c0 10             	add    $0x10,%eax
 8049ec1:	8b 10                	mov    (%eax),%edx
 8049ec3:	8b 45 f4             	mov    -0xc(%ebp),%eax
 8049ec6:	89 04 24             	mov    %eax,(%esp)
 8049ec9:	ff d2                	call   *%edx
 8049ecb:	eb 19                	jmp    8049ee6 <_ZNK9TiXmlNode11GetDocumentEv+0x56>
/home/fabrizio/C++Examples/tinyXml/tinyxml/tinyxml.cpp:512
 8049ecd:	8b 45 f4             	mov    -0xc(%ebp),%eax
 8049ed0:	8b 40 10             	mov    0x10(%eax),%eax
 8049ed3:	89 45 f4             	mov    %eax,-0xc(%ebp)
 8049ed6:	83 7d f4 00          	cmpl   $0x0,-0xc(%ebp)
 8049eda:	0f 95 c0             	setne  %al
 8049edd:	84 c0                	test   %al,%al
 8049edf:	75 bd                	jne    8049e9e <_ZNK9TiXmlNode11GetDocumentEv+0xe>
/home/fabrizio/C++Examples/tinyXml/tinyxml/tinyxml.cpp:517
 8049ee1:	b8 00 00 00 00       	mov    $0x0,%eax
/home/fabrizio/C++Examples/tinyXml/tinyxml/tinyxml.cpp:518
 8049ee6:	c9                   	leave  
 8049ee7:	c3                   	ret    

08049ee8 <_ZN12TiXmlElementC2EPKc>:
TiXmlElement():
/home/fabrizio/C++Examples/tinyXml/tinyxml/tinyxml.cpp:521
 8049ee8:	55                   	push   %ebp
 8049ee9:	89 e5                	mov    %esp,%ebp
 8049eeb:	56                   	push   %esi
 8049eec:	53                   	push   %ebx
 8049eed:	83 ec 10             	sub    $0x10,%esp
/home/fabrizio/C++Examples/tinyXml/tinyxml/tinyxml.cpp:522
 8049ef0:	8b 45 08             	mov    0x8(%ebp),%eax
 8049ef3:	c7 44 24 04 01 00 00 	movl   $0x1,0x4(%esp)
 8049efa:	00 
 8049efb:	89 04 24             	mov    %eax,(%esp)
 8049efe:	e8 b1 f1 ff ff       	call   80490b4 <_ZN9TiXmlNodeC2ENS_8NodeTypeE>
 8049f03:	8b 45 08             	mov    0x8(%ebp),%eax
 8049f06:	c7 00 a8 6c 05 08    	movl   $0x8056ca8,(%eax)
 8049f0c:	8b 45 08             	mov    0x8(%ebp),%eax
 8049f0f:	83 c0 2c             	add    $0x2c,%eax
 8049f12:	89 04 24             	mov    %eax,(%esp)
 8049f15:	e8 2e 26 00 00       	call   804c548 <_ZN17TiXmlAttributeSetC1Ev>
/home/fabrizio/C++Examples/tinyXml/tinyxml/tinyxml.cpp:524
 8049f1a:	8b 45 08             	mov    0x8(%ebp),%eax
 8049f1d:	c7 40 1c 00 00 00 00 	movl   $0x0,0x1c(%eax)
 8049f24:	8b 45 08             	mov    0x8(%ebp),%eax
 8049f27:	8b 50 1c             	mov    0x1c(%eax),%edx
 8049f2a:	8b 45 08             	mov    0x8(%ebp),%eax
 8049f2d:	89 50 18             	mov    %edx,0x18(%eax)
/home/fabrizio/C++Examples/tinyXml/tinyxml/tinyxml.cpp:525
 8049f30:	8b 45 08             	mov    0x8(%ebp),%eax
 8049f33:	8d 50 20             	lea    0x20(%eax),%edx
 8049f36:	8b 45 0c             	mov    0xc(%ebp),%eax
 8049f39:	89 44 24 04          	mov    %eax,0x4(%esp)
 8049f3d:	89 14 24             	mov    %edx,(%esp)
 8049f40:	e8 13 32 00 00       	call   804d158 <_ZN11TiXmlStringaSEPKc>
/home/fabrizio/C++Examples/tinyXml/tinyxml/tinyxml.cpp:526
 8049f45:	eb 33                	jmp    8049f7a <_ZN12TiXmlElementC2EPKc+0x92>
 8049f47:	89 d3                	mov    %edx,%ebx
 8049f49:	89 c6                	mov    %eax,%esi
 8049f4b:	8b 45 08             	mov    0x8(%ebp),%eax
 8049f4e:	83 c0 2c             	add    $0x2c,%eax
 8049f51:	89 04 24             	mov    %eax,(%esp)
 8049f54:	e8 8b 26 00 00       	call   804c5e4 <_ZN17TiXmlAttributeSetD1Ev>
 8049f59:	89 f0                	mov    %esi,%eax
 8049f5b:	89 da                	mov    %ebx,%edx
 8049f5d:	eb 00                	jmp    8049f5f <_ZN12TiXmlElementC2EPKc+0x77>
 8049f5f:	89 d3                	mov    %edx,%ebx
 8049f61:	89 c6                	mov    %eax,%esi
 8049f63:	8b 45 08             	mov    0x8(%ebp),%eax
 8049f66:	89 04 24             	mov    %eax,(%esp)
 8049f69:	e8 12 f2 ff ff       	call   8049180 <_ZN9TiXmlNodeD2Ev>
 8049f6e:	89 f0                	mov    %esi,%eax
 8049f70:	89 da                	mov    %ebx,%edx
 8049f72:	89 04 24             	mov    %eax,(%esp)
 8049f75:	e8 92 ed ff ff       	call   8048d0c <_Unwind_Resume@plt>
 8049f7a:	83 c4 10             	add    $0x10,%esp
 8049f7d:	5b                   	pop    %ebx
 8049f7e:	5e                   	pop    %esi
 8049f7f:	5d                   	pop    %ebp
 8049f80:	c3                   	ret    
_ZN12TiXmlElementC2EPKc():
 8049f81:	90                   	nop

08049f82 <_ZN12TiXmlElementC1EPKc>:
TiXmlElement():
/home/fabrizio/C++Examples/tinyXml/tinyxml/tinyxml.cpp:521
 8049f82:	55                   	push   %ebp
 8049f83:	89 e5                	mov    %esp,%ebp
 8049f85:	56                   	push   %esi
 8049f86:	53                   	push   %ebx
 8049f87:	83 ec 10             	sub    $0x10,%esp
/home/fabrizio/C++Examples/tinyXml/tinyxml/tinyxml.cpp:522
 8049f8a:	8b 45 08             	mov    0x8(%ebp),%eax
 8049f8d:	c7 44 24 04 01 00 00 	movl   $0x1,0x4(%esp)
 8049f94:	00 
 8049f95:	89 04 24             	mov    %eax,(%esp)
 8049f98:	e8 17 f1 ff ff       	call   80490b4 <_ZN9TiXmlNodeC2ENS_8NodeTypeE>
 8049f9d:	8b 45 08             	mov    0x8(%ebp),%eax
 8049fa0:	c7 00 a8 6c 05 08    	movl   $0x8056ca8,(%eax)
 8049fa6:	8b 45 08             	mov    0x8(%ebp),%eax
 8049fa9:	83 c0 2c             	add    $0x2c,%eax
 8049fac:	89 04 24             	mov    %eax,(%esp)
 8049faf:	e8 94 25 00 00       	call   804c548 <_ZN17TiXmlAttributeSetC1Ev>
/home/fabrizio/C++Examples/tinyXml/tinyxml/tinyxml.cpp:524
 8049fb4:	8b 45 08             	mov    0x8(%ebp),%eax
 8049fb7:	c7 40 1c 00 00 00 00 	movl   $0x0,0x1c(%eax)
 8049fbe:	8b 45 08             	mov    0x8(%ebp),%eax
 8049fc1:	8b 50 1c             	mov    0x1c(%eax),%edx
 8049fc4:	8b 45 08             	mov    0x8(%ebp),%eax
 8049fc7:	89 50 18             	mov    %edx,0x18(%eax)
/home/fabrizio/C++Examples/tinyXml/tinyxml/tinyxml.cpp:525
 8049fca:	8b 45 08             	mov    0x8(%ebp),%eax
 8049fcd:	8d 50 20             	lea    0x20(%eax),%edx
 8049fd0:	8b 45 0c             	mov    0xc(%ebp),%eax
 8049fd3:	89 44 24 04          	mov    %eax,0x4(%esp)
 8049fd7:	89 14 24             	mov    %edx,(%esp)
 8049fda:	e8 79 31 00 00       	call   804d158 <_ZN11TiXmlStringaSEPKc>
/home/fabrizio/C++Examples/tinyXml/tinyxml/tinyxml.cpp:526
 8049fdf:	eb 33                	jmp    804a014 <_ZN12TiXmlElementC1EPKc+0x92>
 8049fe1:	89 d3                	mov    %edx,%ebx
 8049fe3:	89 c6                	mov    %eax,%esi
 8049fe5:	8b 45 08             	mov    0x8(%ebp),%eax
 8049fe8:	83 c0 2c             	add    $0x2c,%eax
 8049feb:	89 04 24             	mov    %eax,(%esp)
 8049fee:	e8 f1 25 00 00       	call   804c5e4 <_ZN17TiXmlAttributeSetD1Ev>
 8049ff3:	89 f0                	mov    %esi,%eax
 8049ff5:	89 da                	mov    %ebx,%edx
 8049ff7:	eb 00                	jmp    8049ff9 <_ZN12TiXmlElementC1EPKc+0x77>
 8049ff9:	89 d3                	mov    %edx,%ebx
 8049ffb:	89 c6                	mov    %eax,%esi
 8049ffd:	8b 45 08             	mov    0x8(%ebp),%eax
 804a000:	89 04 24             	mov    %eax,(%esp)
 804a003:	e8 78 f1 ff ff       	call   8049180 <_ZN9TiXmlNodeD2Ev>
 804a008:	89 f0                	mov    %esi,%eax
 804a00a:	89 da                	mov    %ebx,%edx
 804a00c:	89 04 24             	mov    %eax,(%esp)
 804a00f:	e8 f8 ec ff ff       	call   8048d0c <_Unwind_Resume@plt>
 804a014:	83 c4 10             	add    $0x10,%esp
 804a017:	5b                   	pop    %ebx
 804a018:	5e                   	pop    %esi
 804a019:	5d                   	pop    %ebp
 804a01a:	c3                   	ret    
_ZN12TiXmlElementC1EPKc():
 804a01b:	90                   	nop

0804a01c <_ZN12TiXmlElementC2ERKS_>:
TiXmlElement():
/home/fabrizio/C++Examples/tinyXml/tinyxml/tinyxml.cpp:539
 804a01c:	55                   	push   %ebp
 804a01d:	89 e5                	mov    %esp,%ebp
 804a01f:	56                   	push   %esi
 804a020:	53                   	push   %ebx
 804a021:	83 ec 10             	sub    $0x10,%esp
/home/fabrizio/C++Examples/tinyXml/tinyxml/tinyxml.cpp:540
 804a024:	8b 45 08             	mov    0x8(%ebp),%eax
 804a027:	c7 44 24 04 01 00 00 	movl   $0x1,0x4(%esp)
 804a02e:	00 
 804a02f:	89 04 24             	mov    %eax,(%esp)
 804a032:	e8 7d f0 ff ff       	call   80490b4 <_ZN9TiXmlNodeC2ENS_8NodeTypeE>
 804a037:	8b 45 08             	mov    0x8(%ebp),%eax
 804a03a:	c7 00 a8 6c 05 08    	movl   $0x8056ca8,(%eax)
 804a040:	8b 45 08             	mov    0x8(%ebp),%eax
 804a043:	83 c0 2c             	add    $0x2c,%eax
 804a046:	89 04 24             	mov    %eax,(%esp)
 804a049:	e8 fa 24 00 00       	call   804c548 <_ZN17TiXmlAttributeSetC1Ev>
/home/fabrizio/C++Examples/tinyXml/tinyxml/tinyxml.cpp:542
 804a04e:	8b 45 08             	mov    0x8(%ebp),%eax
 804a051:	c7 40 1c 00 00 00 00 	movl   $0x0,0x1c(%eax)
 804a058:	8b 45 08             	mov    0x8(%ebp),%eax
 804a05b:	8b 50 1c             	mov    0x1c(%eax),%edx
 804a05e:	8b 45 08             	mov    0x8(%ebp),%eax
 804a061:	89 50 18             	mov    %edx,0x18(%eax)
/home/fabrizio/C++Examples/tinyXml/tinyxml/tinyxml.cpp:543
 804a064:	8b 45 08             	mov    0x8(%ebp),%eax
 804a067:	89 44 24 04          	mov    %eax,0x4(%esp)
 804a06b:	8b 45 0c             	mov    0xc(%ebp),%eax
 804a06e:	89 04 24             	mov    %eax,(%esp)
 804a071:	e8 d6 07 00 00       	call   804a84c <_ZNK12TiXmlElement6CopyToEPS_>
/home/fabrizio/C++Examples/tinyXml/tinyxml/tinyxml.cpp:544
 804a076:	eb 33                	jmp    804a0ab <_ZN12TiXmlElementC2ERKS_+0x8f>
 804a078:	89 d3                	mov    %edx,%ebx
 804a07a:	89 c6                	mov    %eax,%esi
 804a07c:	8b 45 08             	mov    0x8(%ebp),%eax
 804a07f:	83 c0 2c             	add    $0x2c,%eax
 804a082:	89 04 24             	mov    %eax,(%esp)
 804a085:	e8 5a 25 00 00       	call   804c5e4 <_ZN17TiXmlAttributeSetD1Ev>
 804a08a:	89 f0                	mov    %esi,%eax
 804a08c:	89 da                	mov    %ebx,%edx
 804a08e:	eb 00                	jmp    804a090 <_ZN12TiXmlElementC2ERKS_+0x74>
 804a090:	89 d3                	mov    %edx,%ebx
 804a092:	89 c6                	mov    %eax,%esi
 804a094:	8b 45 08             	mov    0x8(%ebp),%eax
 804a097:	89 04 24             	mov    %eax,(%esp)
 804a09a:	e8 e1 f0 ff ff       	call   8049180 <_ZN9TiXmlNodeD2Ev>
 804a09f:	89 f0                	mov    %esi,%eax
 804a0a1:	89 da                	mov    %ebx,%edx
 804a0a3:	89 04 24             	mov    %eax,(%esp)
 804a0a6:	e8 61 ec ff ff       	call   8048d0c <_Unwind_Resume@plt>
 804a0ab:	83 c4 10             	add    $0x10,%esp
 804a0ae:	5b                   	pop    %ebx
 804a0af:	5e                   	pop    %esi
 804a0b0:	5d                   	pop    %ebp
 804a0b1:	c3                   	ret    

0804a0b2 <_ZN12TiXmlElementC1ERKS_>:
/home/fabrizio/C++Examples/tinyXml/tinyxml/tinyxml.cpp:539
 804a0b2:	55                   	push   %ebp
 804a0b3:	89 e5                	mov    %esp,%ebp
 804a0b5:	56                   	push   %esi
 804a0b6:	53                   	push   %ebx
 804a0b7:	83 ec 10             	sub    $0x10,%esp
/home/fabrizio/C++Examples/tinyXml/tinyxml/tinyxml.cpp:540
 804a0ba:	8b 45 08             	mov    0x8(%ebp),%eax
 804a0bd:	c7 44 24 04 01 00 00 	movl   $0x1,0x4(%esp)
 804a0c4:	00 
 804a0c5:	89 04 24             	mov    %eax,(%esp)
 804a0c8:	e8 e7 ef ff ff       	call   80490b4 <_ZN9TiXmlNodeC2ENS_8NodeTypeE>
 804a0cd:	8b 45 08             	mov    0x8(%ebp),%eax
 804a0d0:	c7 00 a8 6c 05 08    	movl   $0x8056ca8,(%eax)
 804a0d6:	8b 45 08             	mov    0x8(%ebp),%eax
 804a0d9:	83 c0 2c             	add    $0x2c,%eax
 804a0dc:	89 04 24             	mov    %eax,(%esp)
 804a0df:	e8 64 24 00 00       	call   804c548 <_ZN17TiXmlAttributeSetC1Ev>
/home/fabrizio/C++Examples/tinyXml/tinyxml/tinyxml.cpp:542
 804a0e4:	8b 45 08             	mov    0x8(%ebp),%eax
 804a0e7:	c7 40 1c 00 00 00 00 	movl   $0x0,0x1c(%eax)
 804a0ee:	8b 45 08             	mov    0x8(%ebp),%eax
 804a0f1:	8b 50 1c             	mov    0x1c(%eax),%edx
 804a0f4:	8b 45 08             	mov    0x8(%ebp),%eax
 804a0f7:	89 50 18             	mov    %edx,0x18(%eax)
/home/fabrizio/C++Examples/tinyXml/tinyxml/tinyxml.cpp:543
 804a0fa:	8b 45 08             	mov    0x8(%ebp),%eax
 804a0fd:	89 44 24 04          	mov    %eax,0x4(%esp)
 804a101:	8b 45 0c             	mov    0xc(%ebp),%eax
 804a104:	89 04 24             	mov    %eax,(%esp)
 804a107:	e8 40 07 00 00       	call   804a84c <_ZNK12TiXmlElement6CopyToEPS_>
/home/fabrizio/C++Examples/tinyXml/tinyxml/tinyxml.cpp:544
 804a10c:	eb 33                	jmp    804a141 <_ZN12TiXmlElementC1ERKS_+0x8f>
 804a10e:	89 d3                	mov    %edx,%ebx
 804a110:	89 c6                	mov    %eax,%esi
 804a112:	8b 45 08             	mov    0x8(%ebp),%eax
 804a115:	83 c0 2c             	add    $0x2c,%eax
 804a118:	89 04 24             	mov    %eax,(%esp)
 804a11b:	e8 c4 24 00 00       	call   804c5e4 <_ZN17TiXmlAttributeSetD1Ev>
 804a120:	89 f0                	mov    %esi,%eax
 804a122:	89 da                	mov    %ebx,%edx
 804a124:	eb 00                	jmp    804a126 <_ZN12TiXmlElementC1ERKS_+0x74>
 804a126:	89 d3                	mov    %edx,%ebx
 804a128:	89 c6                	mov    %eax,%esi
 804a12a:	8b 45 08             	mov    0x8(%ebp),%eax
 804a12d:	89 04 24             	mov    %eax,(%esp)
 804a130:	e8 4b f0 ff ff       	call   8049180 <_ZN9TiXmlNodeD2Ev>
 804a135:	89 f0                	mov    %esi,%eax
 804a137:	89 da                	mov    %ebx,%edx
 804a139:	89 04 24             	mov    %eax,(%esp)
 804a13c:	e8 cb eb ff ff       	call   8048d0c <_Unwind_Resume@plt>
 804a141:	83 c4 10             	add    $0x10,%esp
 804a144:	5b                   	pop    %ebx
 804a145:	5e                   	pop    %esi
 804a146:	5d                   	pop    %ebp
 804a147:	c3                   	ret    

0804a148 <_ZN12TiXmlElementaSERKS_>:
_ZN12TiXmlElementaSERKS_():
/home/fabrizio/C++Examples/tinyXml/tinyxml/tinyxml.cpp:548
 804a148:	55                   	push   %ebp
 804a149:	89 e5                	mov    %esp,%ebp
 804a14b:	83 ec 18             	sub    $0x18,%esp
/home/fabrizio/C++Examples/tinyXml/tinyxml/tinyxml.cpp:549
 804a14e:	8b 45 08             	mov    0x8(%ebp),%eax
 804a151:	89 04 24             	mov    %eax,(%esp)
 804a154:	e8 ad 01 00 00       	call   804a306 <_ZN12TiXmlElement9ClearThisEv>
/home/fabrizio/C++Examples/tinyXml/tinyxml/tinyxml.cpp:550
 804a159:	8b 45 08             	mov    0x8(%ebp),%eax
 804a15c:	89 44 24 04          	mov    %eax,0x4(%esp)
 804a160:	8b 45 0c             	mov    0xc(%ebp),%eax
 804a163:	89 04 24             	mov    %eax,(%esp)
 804a166:	e8 e1 06 00 00       	call   804a84c <_ZNK12TiXmlElement6CopyToEPS_>
/home/fabrizio/C++Examples/tinyXml/tinyxml/tinyxml.cpp:551
 804a16b:	c9                   	leave  
 804a16c:	c3                   	ret    
 804a16d:	90                   	nop

0804a16e <_ZN12TiXmlElementD2Ev>:
~TiXmlElement():
/home/fabrizio/C++Examples/tinyXml/tinyxml/tinyxml.cpp:554
 804a16e:	55                   	push   %ebp
 804a16f:	89 e5                	mov    %esp,%ebp
 804a171:	56                   	push   %esi
 804a172:	53                   	push   %ebx
 804a173:	83 ec 10             	sub    $0x10,%esp
 804a176:	8b 45 08             	mov    0x8(%ebp),%eax
 804a179:	c7 00 a8 6c 05 08    	movl   $0x8056ca8,(%eax)
/home/fabrizio/C++Examples/tinyXml/tinyxml/tinyxml.cpp:556
 804a17f:	8b 45 08             	mov    0x8(%ebp),%eax
 804a182:	89 04 24             	mov    %eax,(%esp)
 804a185:	e8 7c 01 00 00       	call   804a306 <_ZN12TiXmlElement9ClearThisEv>
/home/fabrizio/C++Examples/tinyXml/tinyxml/tinyxml.cpp:557
 804a18a:	8b 45 08             	mov    0x8(%ebp),%eax
 804a18d:	83 c0 2c             	add    $0x2c,%eax
 804a190:	89 04 24             	mov    %eax,(%esp)
 804a193:	e8 4c 24 00 00       	call   804c5e4 <_ZN17TiXmlAttributeSetD1Ev>
 804a198:	eb 18                	jmp    804a1b2 <_ZN12TiXmlElementD2Ev+0x44>
 804a19a:	89 d3                	mov    %edx,%ebx
 804a19c:	89 c6                	mov    %eax,%esi
 804a19e:	8b 45 08             	mov    0x8(%ebp),%eax
 804a1a1:	83 c0 2c             	add    $0x2c,%eax
 804a1a4:	89 04 24             	mov    %eax,(%esp)
 804a1a7:	e8 38 24 00 00       	call   804c5e4 <_ZN17TiXmlAttributeSetD1Ev>
 804a1ac:	89 f0                	mov    %esi,%eax
 804a1ae:	89 da                	mov    %ebx,%edx
 804a1b0:	eb 16                	jmp    804a1c8 <_ZN12TiXmlElementD2Ev+0x5a>
 804a1b2:	8b 45 08             	mov    0x8(%ebp),%eax
 804a1b5:	89 04 24             	mov    %eax,(%esp)
 804a1b8:	e8 c3 ef ff ff       	call   8049180 <_ZN9TiXmlNodeD2Ev>
 804a1bd:	b8 00 00 00 00       	mov    $0x0,%eax
 804a1c2:	84 c0                	test   %al,%al
 804a1c4:	74 28                	je     804a1ee <_ZN12TiXmlElementD2Ev+0x80>
 804a1c6:	eb 1b                	jmp    804a1e3 <_ZN12TiXmlElementD2Ev+0x75>
 804a1c8:	89 d3                	mov    %edx,%ebx
 804a1ca:	89 c6                	mov    %eax,%esi
 804a1cc:	8b 45 08             	mov    0x8(%ebp),%eax
 804a1cf:	89 04 24             	mov    %eax,(%esp)
 804a1d2:	e8 a9 ef ff ff       	call   8049180 <_ZN9TiXmlNodeD2Ev>
 804a1d7:	89 f0                	mov    %esi,%eax
 804a1d9:	89 da                	mov    %ebx,%edx
 804a1db:	89 04 24             	mov    %eax,(%esp)
 804a1de:	e8 29 eb ff ff       	call   8048d0c <_Unwind_Resume@plt>
 804a1e3:	8b 45 08             	mov    0x8(%ebp),%eax
 804a1e6:	89 04 24             	mov    %eax,(%esp)
 804a1e9:	e8 1e e9 ff ff       	call   8048b0c <_ZdlPv@plt>
 804a1ee:	83 c4 10             	add    $0x10,%esp
 804a1f1:	5b                   	pop    %ebx
 804a1f2:	5e                   	pop    %esi
 804a1f3:	5d                   	pop    %ebp
 804a1f4:	c3                   	ret    
_ZN12TiXmlElementD2Ev():
 804a1f5:	90                   	nop

0804a1f6 <_ZN12TiXmlElementD1Ev>:
~TiXmlElement():
/home/fabrizio/C++Examples/tinyXml/tinyxml/tinyxml.cpp:554
 804a1f6:	55                   	push   %ebp
 804a1f7:	89 e5                	mov    %esp,%ebp
 804a1f9:	56                   	push   %esi
 804a1fa:	53                   	push   %ebx
 804a1fb:	83 ec 10             	sub    $0x10,%esp
 804a1fe:	8b 45 08             	mov    0x8(%ebp),%eax
 804a201:	c7 00 a8 6c 05 08    	movl   $0x8056ca8,(%eax)
/home/fabrizio/C++Examples/tinyXml/tinyxml/tinyxml.cpp:556
 804a207:	8b 45 08             	mov    0x8(%ebp),%eax
 804a20a:	89 04 24             	mov    %eax,(%esp)
 804a20d:	e8 f4 00 00 00       	call   804a306 <_ZN12TiXmlElement9ClearThisEv>
/home/fabrizio/C++Examples/tinyXml/tinyxml/tinyxml.cpp:557
 804a212:	8b 45 08             	mov    0x8(%ebp),%eax
 804a215:	83 c0 2c             	add    $0x2c,%eax
 804a218:	89 04 24             	mov    %eax,(%esp)
 804a21b:	e8 c4 23 00 00       	call   804c5e4 <_ZN17TiXmlAttributeSetD1Ev>
 804a220:	eb 18                	jmp    804a23a <_ZN12TiXmlElementD1Ev+0x44>
 804a222:	89 d3                	mov    %edx,%ebx
 804a224:	89 c6                	mov    %eax,%esi
 804a226:	8b 45 08             	mov    0x8(%ebp),%eax
 804a229:	83 c0 2c             	add    $0x2c,%eax
 804a22c:	89 04 24             	mov    %eax,(%esp)
 804a22f:	e8 b0 23 00 00       	call   804c5e4 <_ZN17TiXmlAttributeSetD1Ev>
 804a234:	89 f0                	mov    %esi,%eax
 804a236:	89 da                	mov    %ebx,%edx
 804a238:	eb 16                	jmp    804a250 <_ZN12TiXmlElementD1Ev+0x5a>
 804a23a:	8b 45 08             	mov    0x8(%ebp),%eax
 804a23d:	89 04 24             	mov    %eax,(%esp)
 804a240:	e8 3b ef ff ff       	call   8049180 <_ZN9TiXmlNodeD2Ev>
 804a245:	b8 00 00 00 00       	mov    $0x0,%eax
 804a24a:	84 c0                	test   %al,%al
 804a24c:	74 28                	je     804a276 <_ZN12TiXmlElementD1Ev+0x80>
 804a24e:	eb 1b                	jmp    804a26b <_ZN12TiXmlElementD1Ev+0x75>
 804a250:	89 d3                	mov    %edx,%ebx
 804a252:	89 c6                	mov    %eax,%esi
 804a254:	8b 45 08             	mov    0x8(%ebp),%eax
 804a257:	89 04 24             	mov    %eax,(%esp)
 804a25a:	e8 21 ef ff ff       	call   8049180 <_ZN9TiXmlNodeD2Ev>
 804a25f:	89 f0                	mov    %esi,%eax
 804a261:	89 da                	mov    %ebx,%edx
 804a263:	89 04 24             	mov    %eax,(%esp)
 804a266:	e8 a1 ea ff ff       	call   8048d0c <_Unwind_Resume@plt>
 804a26b:	8b 45 08             	mov    0x8(%ebp),%eax
 804a26e:	89 04 24             	mov    %eax,(%esp)
 804a271:	e8 96 e8 ff ff       	call   8048b0c <_ZdlPv@plt>
 804a276:	83 c4 10             	add    $0x10,%esp
 804a279:	5b                   	pop    %ebx
 804a27a:	5e                   	pop    %esi
 804a27b:	5d                   	pop    %ebp
 804a27c:	c3                   	ret    
_ZN12TiXmlElementD1Ev():
 804a27d:	90                   	nop

0804a27e <_ZN12TiXmlElementD0Ev>:
~TiXmlElement():
/home/fabrizio/C++Examples/tinyXml/tinyxml/tinyxml.cpp:554
 804a27e:	55                   	push   %ebp
 804a27f:	89 e5                	mov    %esp,%ebp
 804a281:	56                   	push   %esi
 804a282:	53                   	push   %ebx
 804a283:	83 ec 10             	sub    $0x10,%esp
 804a286:	8b 45 08             	mov    0x8(%ebp),%eax
 804a289:	c7 00 a8 6c 05 08    	movl   $0x8056ca8,(%eax)
/home/fabrizio/C++Examples/tinyXml/tinyxml/tinyxml.cpp:556
 804a28f:	8b 45 08             	mov    0x8(%ebp),%eax
 804a292:	89 04 24             	mov    %eax,(%esp)
 804a295:	e8 6c 00 00 00       	call   804a306 <_ZN12TiXmlElement9ClearThisEv>
/home/fabrizio/C++Examples/tinyXml/tinyxml/tinyxml.cpp:557
 804a29a:	8b 45 08             	mov    0x8(%ebp),%eax
 804a29d:	83 c0 2c             	add    $0x2c,%eax
 804a2a0:	89 04 24             	mov    %eax,(%esp)
 804a2a3:	e8 3c 23 00 00       	call   804c5e4 <_ZN17TiXmlAttributeSetD1Ev>
 804a2a8:	eb 18                	jmp    804a2c2 <_ZN12TiXmlElementD0Ev+0x44>
 804a2aa:	89 d3                	mov    %edx,%ebx
 804a2ac:	89 c6                	mov    %eax,%esi
 804a2ae:	8b 45 08             	mov    0x8(%ebp),%eax
 804a2b1:	83 c0 2c             	add    $0x2c,%eax
 804a2b4:	89 04 24             	mov    %eax,(%esp)
 804a2b7:	e8 28 23 00 00       	call   804c5e4 <_ZN17TiXmlAttributeSetD1Ev>
 804a2bc:	89 f0                	mov    %esi,%eax
 804a2be:	89 da                	mov    %ebx,%edx
 804a2c0:	eb 16                	jmp    804a2d8 <_ZN12TiXmlElementD0Ev+0x5a>
 804a2c2:	8b 45 08             	mov    0x8(%ebp),%eax
 804a2c5:	89 04 24             	mov    %eax,(%esp)
 804a2c8:	e8 b3 ee ff ff       	call   8049180 <_ZN9TiXmlNodeD2Ev>
 804a2cd:	b8 01 00 00 00       	mov    $0x1,%eax
 804a2d2:	84 c0                	test   %al,%al
 804a2d4:	74 28                	je     804a2fe <_ZN12TiXmlElementD0Ev+0x80>
 804a2d6:	eb 1b                	jmp    804a2f3 <_ZN12TiXmlElementD0Ev+0x75>
 804a2d8:	89 d3                	mov    %edx,%ebx
 804a2da:	89 c6                	mov    %eax,%esi
 804a2dc:	8b 45 08             	mov    0x8(%ebp),%eax
 804a2df:	89 04 24             	mov    %eax,(%esp)
 804a2e2:	e8 99 ee ff ff       	call   8049180 <_ZN9TiXmlNodeD2Ev>
 804a2e7:	89 f0                	mov    %esi,%eax
 804a2e9:	89 da                	mov    %ebx,%edx
 804a2eb:	89 04 24             	mov    %eax,(%esp)
 804a2ee:	e8 19 ea ff ff       	call   8048d0c <_Unwind_Resume@plt>
 804a2f3:	8b 45 08             	mov    0x8(%ebp),%eax
 804a2f6:	89 04 24             	mov    %eax,(%esp)
 804a2f9:	e8 0e e8 ff ff       	call   8048b0c <_ZdlPv@plt>
 804a2fe:	83 c4 10             	add    $0x10,%esp
 804a301:	5b                   	pop    %ebx
 804a302:	5e                   	pop    %esi
 804a303:	5d                   	pop    %ebp
 804a304:	c3                   	ret    
_ZN12TiXmlElementD0Ev():
 804a305:	90                   	nop

0804a306 <_ZN12TiXmlElement9ClearThisEv>:
_ZN12TiXmlElement9ClearThisEv():
/home/fabrizio/C++Examples/tinyXml/tinyxml/tinyxml.cpp:561
 804a306:	55                   	push   %ebp
 804a307:	89 e5                	mov    %esp,%ebp
 804a309:	83 ec 28             	sub    $0x28,%esp
/home/fabrizio/C++Examples/tinyXml/tinyxml/tinyxml.cpp:562
 804a30c:	8b 45 08             	mov    0x8(%ebp),%eax
 804a30f:	89 04 24             	mov    %eax,(%esp)
 804a312:	e8 e1 f0 ff ff       	call   80493f8 <_ZN9TiXmlNode5ClearEv>
/home/fabrizio/C++Examples/tinyXml/tinyxml/tinyxml.cpp:563
 804a317:	eb 3e                	jmp    804a357 <_ZN12TiXmlElement9ClearThisEv+0x51>
/home/fabrizio/C++Examples/tinyXml/tinyxml/tinyxml.cpp:565
 804a319:	8b 45 08             	mov    0x8(%ebp),%eax
 804a31c:	83 c0 2c             	add    $0x2c,%eax
 804a31f:	89 04 24             	mov    %eax,(%esp)
 804a322:	e8 15 35 00 00       	call   804d83c <_ZN17TiXmlAttributeSet5FirstEv>
 804a327:	89 45 f4             	mov    %eax,-0xc(%ebp)
/home/fabrizio/C++Examples/tinyXml/tinyxml/tinyxml.cpp:566
 804a32a:	8b 45 08             	mov    0x8(%ebp),%eax
 804a32d:	8d 50 2c             	lea    0x2c(%eax),%edx
 804a330:	8b 45 f4             	mov    -0xc(%ebp),%eax
 804a333:	89 44 24 04          	mov    %eax,0x4(%esp)
 804a337:	89 14 24             	mov    %edx,(%esp)
 804a33a:	e8 8f 23 00 00       	call   804c6ce <_ZN17TiXmlAttributeSet6RemoveEP14TiXmlAttribute>
/home/fabrizio/C++Examples/tinyXml/tinyxml/tinyxml.cpp:567
 804a33f:	83 7d f4 00          	cmpl   $0x0,-0xc(%ebp)
 804a343:	74 12                	je     804a357 <_ZN12TiXmlElement9ClearThisEv+0x51>
 804a345:	8b 45 f4             	mov    -0xc(%ebp),%eax
 804a348:	8b 00                	mov    (%eax),%eax
 804a34a:	83 c0 04             	add    $0x4,%eax
 804a34d:	8b 10                	mov    (%eax),%edx
 804a34f:	8b 45 f4             	mov    -0xc(%ebp),%eax
 804a352:	89 04 24             	mov    %eax,(%esp)
 804a355:	ff d2                	call   *%edx
/home/fabrizio/C++Examples/tinyXml/tinyxml/tinyxml.cpp:563
 804a357:	8b 45 08             	mov    0x8(%ebp),%eax
 804a35a:	83 c0 2c             	add    $0x2c,%eax
 804a35d:	89 04 24             	mov    %eax,(%esp)
 804a360:	e8 d7 34 00 00       	call   804d83c <_ZN17TiXmlAttributeSet5FirstEv>
 804a365:	85 c0                	test   %eax,%eax
 804a367:	0f 95 c0             	setne  %al
 804a36a:	84 c0                	test   %al,%al
 804a36c:	75 ab                	jne    804a319 <_ZN12TiXmlElement9ClearThisEv+0x13>
/home/fabrizio/C++Examples/tinyXml/tinyxml/tinyxml.cpp:569
 804a36e:	c9                   	leave  
 804a36f:	c3                   	ret    

0804a370 <_ZNK12TiXmlElement9AttributeEPKc>:
_ZNK12TiXmlElement9AttributeEPKc():
/home/fabrizio/C++Examples/tinyXml/tinyxml/tinyxml.cpp:573
 804a370:	55                   	push   %ebp
 804a371:	89 e5                	mov    %esp,%ebp
 804a373:	83 ec 28             	sub    $0x28,%esp
/home/fabrizio/C++Examples/tinyXml/tinyxml/tinyxml.cpp:574
 804a376:	8b 45 08             	mov    0x8(%ebp),%eax
 804a379:	8d 50 2c             	lea    0x2c(%eax),%edx
 804a37c:	8b 45 0c             	mov    0xc(%ebp),%eax
 804a37f:	89 44 24 04          	mov    %eax,0x4(%esp)
 804a383:	89 14 24             	mov    %edx,(%esp)
 804a386:	e8 cb 23 00 00       	call   804c756 <_ZNK17TiXmlAttributeSet4FindEPKc>
 804a38b:	89 45 f4             	mov    %eax,-0xc(%ebp)
/home/fabrizio/C++Examples/tinyXml/tinyxml/tinyxml.cpp:575
 804a38e:	83 7d f4 00          	cmpl   $0x0,-0xc(%ebp)
 804a392:	74 0d                	je     804a3a1 <_ZNK12TiXmlElement9AttributeEPKc+0x31>
/home/fabrizio/C++Examples/tinyXml/tinyxml/tinyxml.cpp:576
 804a394:	8b 45 f4             	mov    -0xc(%ebp),%eax
 804a397:	89 04 24             	mov    %eax,(%esp)
 804a39a:	e8 2b 34 00 00       	call   804d7ca <_ZNK14TiXmlAttribute5ValueEv>
 804a39f:	eb 05                	jmp    804a3a6 <_ZNK12TiXmlElement9AttributeEPKc+0x36>
/home/fabrizio/C++Examples/tinyXml/tinyxml/tinyxml.cpp:577
 804a3a1:	b8 00 00 00 00       	mov    $0x0,%eax
/home/fabrizio/C++Examples/tinyXml/tinyxml/tinyxml.cpp:578
 804a3a6:	c9                   	leave  
 804a3a7:	c3                   	ret    

0804a3a8 <_ZNK12TiXmlElement9AttributeEPKcPi>:
_ZNK12TiXmlElement9AttributeEPKcPi():
/home/fabrizio/C++Examples/tinyXml/tinyxml/tinyxml.cpp:593
 804a3a8:	55                   	push   %ebp
 804a3a9:	89 e5                	mov    %esp,%ebp
 804a3ab:	83 ec 28             	sub    $0x28,%esp
/home/fabrizio/C++Examples/tinyXml/tinyxml/tinyxml.cpp:594
 804a3ae:	8b 45 08             	mov    0x8(%ebp),%eax
 804a3b1:	8d 50 2c             	lea    0x2c(%eax),%edx
 804a3b4:	8b 45 0c             	mov    0xc(%ebp),%eax
 804a3b7:	89 44 24 04          	mov    %eax,0x4(%esp)
 804a3bb:	89 14 24             	mov    %edx,(%esp)
 804a3be:	e8 93 23 00 00       	call   804c756 <_ZNK17TiXmlAttributeSet4FindEPKc>
 804a3c3:	89 45 f4             	mov    %eax,-0xc(%ebp)
/home/fabrizio/C++Examples/tinyXml/tinyxml/tinyxml.cpp:595
 804a3c6:	c7 45 f0 00 00 00 00 	movl   $0x0,-0x10(%ebp)
/home/fabrizio/C++Examples/tinyXml/tinyxml/tinyxml.cpp:597
 804a3cd:	83 7d f4 00          	cmpl   $0x0,-0xc(%ebp)
 804a3d1:	74 26                	je     804a3f9 <_ZNK12TiXmlElement9AttributeEPKcPi+0x51>
/home/fabrizio/C++Examples/tinyXml/tinyxml/tinyxml.cpp:598
 804a3d3:	8b 45 f4             	mov    -0xc(%ebp),%eax
 804a3d6:	89 04 24             	mov    %eax,(%esp)
 804a3d9:	e8 ec 33 00 00       	call   804d7ca <_ZNK14TiXmlAttribute5ValueEv>
 804a3de:	89 45 f0             	mov    %eax,-0x10(%ebp)
/home/fabrizio/C++Examples/tinyXml/tinyxml/tinyxml.cpp:599
 804a3e1:	83 7d 10 00          	cmpl   $0x0,0x10(%ebp)
 804a3e5:	74 12                	je     804a3f9 <_ZNK12TiXmlElement9AttributeEPKcPi+0x51>
/home/fabrizio/C++Examples/tinyXml/tinyxml/tinyxml.cpp:600
 804a3e7:	8b 45 10             	mov    0x10(%ebp),%eax
 804a3ea:	89 44 24 04          	mov    %eax,0x4(%esp)
 804a3ee:	8b 45 f4             	mov    -0xc(%ebp),%eax
 804a3f1:	89 04 24             	mov    %eax,(%esp)
 804a3f4:	e8 ef 13 00 00       	call   804b7e8 <_ZNK14TiXmlAttribute13QueryIntValueEPi>
/home/fabrizio/C++Examples/tinyXml/tinyxml/tinyxml.cpp:603
 804a3f9:	8b 45 f0             	mov    -0x10(%ebp),%eax
/home/fabrizio/C++Examples/tinyXml/tinyxml/tinyxml.cpp:604
 804a3fc:	c9                   	leave  
 804a3fd:	c3                   	ret    

0804a3fe <_ZNK12TiXmlElement9AttributeEPKcPd>:
_ZNK12TiXmlElement9AttributeEPKcPd():
/home/fabrizio/C++Examples/tinyXml/tinyxml/tinyxml.cpp:625
 804a3fe:	55                   	push   %ebp
 804a3ff:	89 e5                	mov    %esp,%ebp
 804a401:	83 ec 28             	sub    $0x28,%esp
/home/fabrizio/C++Examples/tinyXml/tinyxml/tinyxml.cpp:626
 804a404:	8b 45 08             	mov    0x8(%ebp),%eax
 804a407:	8d 50 2c             	lea    0x2c(%eax),%edx
 804a40a:	8b 45 0c             	mov    0xc(%ebp),%eax
 804a40d:	89 44 24 04          	mov    %eax,0x4(%esp)
 804a411:	89 14 24             	mov    %edx,(%esp)
 804a414:	e8 3d 23 00 00       	call   804c756 <_ZNK17TiXmlAttributeSet4FindEPKc>
 804a419:	89 45 f4             	mov    %eax,-0xc(%ebp)
/home/fabrizio/C++Examples/tinyXml/tinyxml/tinyxml.cpp:627
 804a41c:	c7 45 f0 00 00 00 00 	movl   $0x0,-0x10(%ebp)
/home/fabrizio/C++Examples/tinyXml/tinyxml/tinyxml.cpp:629
 804a423:	83 7d f4 00          	cmpl   $0x0,-0xc(%ebp)
 804a427:	74 26                	je     804a44f <_ZNK12TiXmlElement9AttributeEPKcPd+0x51>
/home/fabrizio/C++Examples/tinyXml/tinyxml/tinyxml.cpp:630
 804a429:	8b 45 f4             	mov    -0xc(%ebp),%eax
 804a42c:	89 04 24             	mov    %eax,(%esp)
 804a42f:	e8 96 33 00 00       	call   804d7ca <_ZNK14TiXmlAttribute5ValueEv>
 804a434:	89 45 f0             	mov    %eax,-0x10(%ebp)
/home/fabrizio/C++Examples/tinyXml/tinyxml/tinyxml.cpp:631
 804a437:	83 7d 10 00          	cmpl   $0x0,0x10(%ebp)
 804a43b:	74 12                	je     804a44f <_ZNK12TiXmlElement9AttributeEPKcPd+0x51>
/home/fabrizio/C++Examples/tinyXml/tinyxml/tinyxml.cpp:632
 804a43d:	8b 45 10             	mov    0x10(%ebp),%eax
 804a440:	89 44 24 04          	mov    %eax,0x4(%esp)
 804a444:	8b 45 f4             	mov    -0xc(%ebp),%eax
 804a447:	89 04 24             	mov    %eax,(%esp)
 804a44a:	e8 dd 13 00 00       	call   804b82c <_ZNK14TiXmlAttribute16QueryDoubleValueEPd>
/home/fabrizio/C++Examples/tinyXml/tinyxml/tinyxml.cpp:635
 804a44f:	8b 45 f0             	mov    -0x10(%ebp),%eax
/home/fabrizio/C++Examples/tinyXml/tinyxml/tinyxml.cpp:636
 804a452:	c9                   	leave  
 804a453:	c3                   	ret    

0804a454 <_ZNK12TiXmlElement17QueryIntAttributeEPKcPi>:
_ZNK12TiXmlElement17QueryIntAttributeEPKcPi():
/home/fabrizio/C++Examples/tinyXml/tinyxml/tinyxml.cpp:657
 804a454:	55                   	push   %ebp
 804a455:	89 e5                	mov    %esp,%ebp
 804a457:	83 ec 28             	sub    $0x28,%esp
/home/fabrizio/C++Examples/tinyXml/tinyxml/tinyxml.cpp:658
 804a45a:	8b 45 08             	mov    0x8(%ebp),%eax
 804a45d:	8d 50 2c             	lea    0x2c(%eax),%edx
 804a460:	8b 45 0c             	mov    0xc(%ebp),%eax
 804a463:	89 44 24 04          	mov    %eax,0x4(%esp)
 804a467:	89 14 24             	mov    %edx,(%esp)
 804a46a:	e8 e7 22 00 00       	call   804c756 <_ZNK17TiXmlAttributeSet4FindEPKc>
 804a46f:	89 45 f4             	mov    %eax,-0xc(%ebp)
/home/fabrizio/C++Examples/tinyXml/tinyxml/tinyxml.cpp:659
 804a472:	83 7d f4 00          	cmpl   $0x0,-0xc(%ebp)
 804a476:	75 07                	jne    804a47f <_ZNK12TiXmlElement17QueryIntAttributeEPKcPi+0x2b>
/home/fabrizio/C++Examples/tinyXml/tinyxml/tinyxml.cpp:660
 804a478:	b8 01 00 00 00       	mov    $0x1,%eax
 804a47d:	eb 12                	jmp    804a491 <_ZNK12TiXmlElement17QueryIntAttributeEPKcPi+0x3d>
/home/fabrizio/C++Examples/tinyXml/tinyxml/tinyxml.cpp:661
 804a47f:	8b 45 10             	mov    0x10(%ebp),%eax
 804a482:	89 44 24 04          	mov    %eax,0x4(%esp)
 804a486:	8b 45 f4             	mov    -0xc(%ebp),%eax
 804a489:	89 04 24             	mov    %eax,(%esp)
 804a48c:	e8 57 13 00 00       	call   804b7e8 <_ZNK14TiXmlAttribute13QueryIntValueEPi>
/home/fabrizio/C++Examples/tinyXml/tinyxml/tinyxml.cpp:662
 804a491:	c9                   	leave  
 804a492:	c3                   	ret    
 804a493:	90                   	nop

0804a494 <_ZNK12TiXmlElement20QueryDoubleAttributeEPKcPd>:
_ZNK12TiXmlElement20QueryDoubleAttributeEPKcPd():
/home/fabrizio/C++Examples/tinyXml/tinyxml/tinyxml.cpp:677
 804a494:	55                   	push   %ebp
 804a495:	89 e5                	mov    %esp,%ebp
 804a497:	83 ec 28             	sub    $0x28,%esp
/home/fabrizio/C++Examples/tinyXml/tinyxml/tinyxml.cpp:678
 804a49a:	8b 45 08             	mov    0x8(%ebp),%eax
 804a49d:	8d 50 2c             	lea    0x2c(%eax),%edx
 804a4a0:	8b 45 0c             	mov    0xc(%ebp),%eax
 804a4a3:	89 44 24 04          	mov    %eax,0x4(%esp)
 804a4a7:	89 14 24             	mov    %edx,(%esp)
 804a4aa:	e8 a7 22 00 00       	call   804c756 <_ZNK17TiXmlAttributeSet4FindEPKc>
 804a4af:	89 45 f4             	mov    %eax,-0xc(%ebp)
/home/fabrizio/C++Examples/tinyXml/tinyxml/tinyxml.cpp:679
 804a4b2:	83 7d f4 00          	cmpl   $0x0,-0xc(%ebp)
 804a4b6:	75 07                	jne    804a4bf <_ZNK12TiXmlElement20QueryDoubleAttributeEPKcPd+0x2b>
/home/fabrizio/C++Examples/tinyXml/tinyxml/tinyxml.cpp:680
 804a4b8:	b8 01 00 00 00       	mov    $0x1,%eax
 804a4bd:	eb 12                	jmp    804a4d1 <_ZNK12TiXmlElement20QueryDoubleAttributeEPKcPd+0x3d>
/home/fabrizio/C++Examples/tinyXml/tinyxml/tinyxml.cpp:681
 804a4bf:	8b 45 10             	mov    0x10(%ebp),%eax
 804a4c2:	89 44 24 04          	mov    %eax,0x4(%esp)
 804a4c6:	8b 45 f4             	mov    -0xc(%ebp),%eax
 804a4c9:	89 04 24             	mov    %eax,(%esp)
 804a4cc:	e8 5b 13 00 00       	call   804b82c <_ZNK14TiXmlAttribute16QueryDoubleValueEPd>
/home/fabrizio/C++Examples/tinyXml/tinyxml/tinyxml.cpp:682
 804a4d1:	c9                   	leave  
 804a4d2:	c3                   	ret    
 804a4d3:	90                   	nop

0804a4d4 <_ZN12TiXmlElement12SetAttributeEPKci>:
_ZN12TiXmlElement12SetAttributeEPKci():
/home/fabrizio/C++Examples/tinyXml/tinyxml/tinyxml.cpp:697
 804a4d4:	55                   	push   %ebp
 804a4d5:	89 e5                	mov    %esp,%ebp
 804a4d7:	83 ec 28             	sub    $0x28,%esp
/home/fabrizio/C++Examples/tinyXml/tinyxml/tinyxml.cpp:698
 804a4da:	8b 45 08             	mov    0x8(%ebp),%eax
 804a4dd:	8d 50 2c             	lea    0x2c(%eax),%edx
 804a4e0:	8b 45 0c             	mov    0xc(%ebp),%eax
 804a4e3:	89 44 24 04          	mov    %eax,0x4(%esp)
 804a4e7:	89 14 24             	mov    %edx,(%esp)
 804a4ea:	e8 c1 22 00 00       	call   804c7b0 <_ZN17TiXmlAttributeSet12FindOrCreateEPKc>
 804a4ef:	89 45 f4             	mov    %eax,-0xc(%ebp)
/home/fabrizio/C++Examples/tinyXml/tinyxml/tinyxml.cpp:699
 804a4f2:	83 7d f4 00          	cmpl   $0x0,-0xc(%ebp)
 804a4f6:	74 12                	je     804a50a <_ZN12TiXmlElement12SetAttributeEPKci+0x36>
/home/fabrizio/C++Examples/tinyXml/tinyxml/tinyxml.cpp:700
 804a4f8:	8b 45 10             	mov    0x10(%ebp),%eax
 804a4fb:	89 44 24 04          	mov    %eax,0x4(%esp)
 804a4ff:	8b 45 f4             	mov    -0xc(%ebp),%eax
 804a502:	89 04 24             	mov    %eax,(%esp)
 804a505:	e8 66 13 00 00       	call   804b870 <_ZN14TiXmlAttribute11SetIntValueEi>
/home/fabrizio/C++Examples/tinyXml/tinyxml/tinyxml.cpp:702
 804a50a:	c9                   	leave  
 804a50b:	c3                   	ret    

0804a50c <_ZN12TiXmlElement18SetDoubleAttributeEPKcd>:
_ZN12TiXmlElement18SetDoubleAttributeEPKcd():
/home/fabrizio/C++Examples/tinyXml/tinyxml/tinyxml.cpp:717
 804a50c:	55                   	push   %ebp
 804a50d:	89 e5                	mov    %esp,%ebp
 804a50f:	83 ec 38             	sub    $0x38,%esp
 804a512:	8b 45 10             	mov    0x10(%ebp),%eax
 804a515:	89 45 e0             	mov    %eax,-0x20(%ebp)
 804a518:	8b 45 14             	mov    0x14(%ebp),%eax
 804a51b:	89 45 e4             	mov    %eax,-0x1c(%ebp)
/home/fabrizio/C++Examples/tinyXml/tinyxml/tinyxml.cpp:718
 804a51e:	8b 45 08             	mov    0x8(%ebp),%eax
 804a521:	8d 50 2c             	lea    0x2c(%eax),%edx
 804a524:	8b 45 0c             	mov    0xc(%ebp),%eax
 804a527:	89 44 24 04          	mov    %eax,0x4(%esp)
 804a52b:	89 14 24             	mov    %edx,(%esp)
 804a52e:	e8 7d 22 00 00       	call   804c7b0 <_ZN17TiXmlAttributeSet12FindOrCreateEPKc>
 804a533:	89 45 f4             	mov    %eax,-0xc(%ebp)
/home/fabrizio/C++Examples/tinyXml/tinyxml/tinyxml.cpp:719
 804a536:	83 7d f4 00          	cmpl   $0x0,-0xc(%ebp)
 804a53a:	74 12                	je     804a54e <_ZN12TiXmlElement18SetDoubleAttributeEPKcd+0x42>
/home/fabrizio/C++Examples/tinyXml/tinyxml/tinyxml.cpp:720
 804a53c:	dd 45 e0             	fldl   -0x20(%ebp)
 804a53f:	dd 5c 24 04          	fstpl  0x4(%esp)
 804a543:	8b 45 f4             	mov    -0xc(%ebp),%eax
 804a546:	89 04 24             	mov    %eax,(%esp)
 804a549:	e8 80 13 00 00       	call   804b8ce <_ZN14TiXmlAttribute14SetDoubleValueEd>
/home/fabrizio/C++Examples/tinyXml/tinyxml/tinyxml.cpp:722
 804a54e:	c9                   	leave  
 804a54f:	c3                   	ret    

0804a550 <_ZN12TiXmlElement12SetAttributeEPKcS1_>:
_ZN12TiXmlElement12SetAttributeEPKcS1_():
/home/fabrizio/C++Examples/tinyXml/tinyxml/tinyxml.cpp:737
 804a550:	55                   	push   %ebp
 804a551:	89 e5                	mov    %esp,%ebp
 804a553:	83 ec 28             	sub    $0x28,%esp
/home/fabrizio/C++Examples/tinyXml/tinyxml/tinyxml.cpp:738
 804a556:	8b 45 08             	mov    0x8(%ebp),%eax
 804a559:	8d 50 2c             	lea    0x2c(%eax),%edx
 804a55c:	8b 45 0c             	mov    0xc(%ebp),%eax
 804a55f:	89 44 24 04          	mov    %eax,0x4(%esp)
 804a563:	89 14 24             	mov    %edx,(%esp)
 804a566:	e8 45 22 00 00       	call   804c7b0 <_ZN17TiXmlAttributeSet12FindOrCreateEPKc>
 804a56b:	89 45 f4             	mov    %eax,-0xc(%ebp)
/home/fabrizio/C++Examples/tinyXml/tinyxml/tinyxml.cpp:739
 804a56e:	83 7d f4 00          	cmpl   $0x0,-0xc(%ebp)
 804a572:	74 12                	je     804a586 <_ZN12TiXmlElement12SetAttributeEPKcS1_+0x36>
/home/fabrizio/C++Examples/tinyXml/tinyxml/tinyxml.cpp:740
 804a574:	8b 45 10             	mov    0x10(%ebp),%eax
 804a577:	89 44 24 04          	mov    %eax,0x4(%esp)
 804a57b:	8b 45 f4             	mov    -0xc(%ebp),%eax
 804a57e:	89 04 24             	mov    %eax,(%esp)
 804a581:	e8 78 32 00 00       	call   804d7fe <_ZN14TiXmlAttribute8SetValueEPKc>
/home/fabrizio/C++Examples/tinyXml/tinyxml/tinyxml.cpp:742
 804a586:	c9                   	leave  
 804a587:	c3                   	ret    

0804a588 <_ZNK12TiXmlElement5PrintEP8_IO_FILEi>:
_ZNK12TiXmlElement5PrintEP8_IO_FILEi():
/home/fabrizio/C++Examples/tinyXml/tinyxml/tinyxml.cpp:757
 804a588:	55                   	push   %ebp
 804a589:	89 e5                	mov    %esp,%ebp
 804a58b:	83 ec 28             	sub    $0x28,%esp
/home/fabrizio/C++Examples/tinyXml/tinyxml/tinyxml.cpp:759
 804a58e:	83 7d 0c 00          	cmpl   $0x0,0xc(%ebp)
 804a592:	75 24                	jne    804a5b8 <_ZNK12TiXmlElement5PrintEP8_IO_FILEi+0x30>
 804a594:	c7 44 24 0c 60 68 05 	movl   $0x8056860,0xc(%esp)
 804a59b:	08 
 804a59c:	c7 44 24 08 f7 02 00 	movl   $0x2f7,0x8(%esp)
 804a5a3:	00 
 804a5a4:	c7 44 24 04 65 64 05 	movl   $0x8056465,0x4(%esp)
 804a5ab:	08 
 804a5ac:	c7 04 24 32 65 05 08 	movl   $0x8056532,(%esp)
 804a5b3:	e8 a4 e5 ff ff       	call   8048b5c <__assert_fail@plt>
/home/fabrizio/C++Examples/tinyXml/tinyxml/tinyxml.cpp:760
 804a5b8:	c7 45 f4 00 00 00 00 	movl   $0x0,-0xc(%ebp)
 804a5bf:	eb 27                	jmp    804a5e8 <_ZNK12TiXmlElement5PrintEP8_IO_FILEi+0x60>
/home/fabrizio/C++Examples/tinyXml/tinyxml/tinyxml.cpp:761
 804a5c1:	8b 45 0c             	mov    0xc(%ebp),%eax
 804a5c4:	89 44 24 0c          	mov    %eax,0xc(%esp)
 804a5c8:	c7 44 24 08 04 00 00 	movl   $0x4,0x8(%esp)
 804a5cf:	00 
 804a5d0:	c7 44 24 04 01 00 00 	movl   $0x1,0x4(%esp)
 804a5d7:	00 
 804a5d8:	c7 04 24 38 65 05 08 	movl   $0x8056538,(%esp)
 804a5df:	e8 48 e6 ff ff       	call   8048c2c <fwrite@plt>
/home/fabrizio/C++Examples/tinyXml/tinyxml/tinyxml.cpp:760
 804a5e4:	83 45 f4 01          	addl   $0x1,-0xc(%ebp)
 804a5e8:	8b 45 f4             	mov    -0xc(%ebp),%eax
 804a5eb:	3b 45 10             	cmp    0x10(%ebp),%eax
 804a5ee:	0f 9c c0             	setl   %al
 804a5f1:	84 c0                	test   %al,%al
 804a5f3:	75 cc                	jne    804a5c1 <_ZNK12TiXmlElement5PrintEP8_IO_FILEi+0x39>
/home/fabrizio/C++Examples/tinyXml/tinyxml/tinyxml.cpp:764
 804a5f5:	8b 45 08             	mov    0x8(%ebp),%eax
 804a5f8:	83 c0 20             	add    $0x20,%eax
 804a5fb:	89 04 24             	mov    %eax,(%esp)
 804a5fe:	e8 41 2c 00 00       	call   804d244 <_ZNK11TiXmlString5c_strEv>
 804a603:	89 44 24 08          	mov    %eax,0x8(%esp)
 804a607:	c7 44 24 04 3d 65 05 	movl   $0x805653d,0x4(%esp)
 804a60e:	08 
 804a60f:	8b 45 0c             	mov    0xc(%ebp),%eax
 804a612:	89 04 24             	mov    %eax,(%esp)
 804a615:	e8 42 e6 ff ff       	call   8048c5c <fprintf@plt>
/home/fabrizio/C++Examples/tinyXml/tinyxml/tinyxml.cpp:767
 804a61a:	8b 45 08             	mov    0x8(%ebp),%eax
 804a61d:	83 c0 2c             	add    $0x2c,%eax
 804a620:	89 04 24             	mov    %eax,(%esp)
 804a623:	e8 f4 31 00 00       	call   804d81c <_ZNK17TiXmlAttributeSet5FirstEv>
 804a628:	89 45 f0             	mov    %eax,-0x10(%ebp)
 804a62b:	eb 41                	jmp    804a66e <_ZNK12TiXmlElement5PrintEP8_IO_FILEi+0xe6>
/home/fabrizio/C++Examples/tinyXml/tinyxml/tinyxml.cpp:769
 804a62d:	8b 45 0c             	mov    0xc(%ebp),%eax
 804a630:	89 44 24 04          	mov    %eax,0x4(%esp)
 804a634:	c7 04 24 20 00 00 00 	movl   $0x20,(%esp)
 804a63b:	e8 3c e6 ff ff       	call   8048c7c <fputc@plt>
/home/fabrizio/C++Examples/tinyXml/tinyxml/tinyxml.cpp:770
 804a640:	8b 45 f0             	mov    -0x10(%ebp),%eax
 804a643:	8b 00                	mov    (%eax),%eax
 804a645:	83 c0 08             	add    $0x8,%eax
 804a648:	8b 10                	mov    (%eax),%edx
 804a64a:	8b 45 10             	mov    0x10(%ebp),%eax
 804a64d:	89 44 24 08          	mov    %eax,0x8(%esp)
 804a651:	8b 45 0c             	mov    0xc(%ebp),%eax
 804a654:	89 44 24 04          	mov    %eax,0x4(%esp)
 804a658:	8b 45 f0             	mov    -0x10(%ebp),%eax
 804a65b:	89 04 24             	mov    %eax,(%esp)
 804a65e:	ff d2                	call   *%edx
/home/fabrizio/C++Examples/tinyXml/tinyxml/tinyxml.cpp:767
 804a660:	8b 45 f0             	mov    -0x10(%ebp),%eax
 804a663:	89 04 24             	mov    %eax,(%esp)
 804a666:	e8 03 0f 00 00       	call   804b56e <_ZNK14TiXmlAttribute4NextEv>
 804a66b:	89 45 f0             	mov    %eax,-0x10(%ebp)
 804a66e:	83 7d f0 00          	cmpl   $0x0,-0x10(%ebp)
 804a672:	0f 95 c0             	setne  %al
 804a675:	84 c0                	test   %al,%al
 804a677:	75 b4                	jne    804a62d <_ZNK12TiXmlElement5PrintEP8_IO_FILEi+0xa5>
/home/fabrizio/C++Examples/tinyXml/tinyxml/tinyxml.cpp:778
 804a679:	8b 45 08             	mov    0x8(%ebp),%eax
 804a67c:	8b 40 18             	mov    0x18(%eax),%eax
 804a67f:	85 c0                	test   %eax,%eax
 804a681:	75 28                	jne    804a6ab <_ZNK12TiXmlElement5PrintEP8_IO_FILEi+0x123>
/home/fabrizio/C++Examples/tinyXml/tinyxml/tinyxml.cpp:780
 804a683:	8b 45 0c             	mov    0xc(%ebp),%eax
 804a686:	89 44 24 0c          	mov    %eax,0xc(%esp)
 804a68a:	c7 44 24 08 03 00 00 	movl   $0x3,0x8(%esp)
 804a691:	00 
 804a692:	c7 44 24 04 01 00 00 	movl   $0x1,0x4(%esp)
 804a699:	00 
 804a69a:	c7 04 24 41 65 05 08 	movl   $0x8056541,(%esp)
 804a6a1:	e8 86 e5 ff ff       	call   8048c2c <fwrite@plt>
 804a6a6:	e9 9f 01 00 00       	jmp    804a84a <_ZNK12TiXmlElement5PrintEP8_IO_FILEi+0x2c2>
/home/fabrizio/C++Examples/tinyXml/tinyxml/tinyxml.cpp:782
 804a6ab:	8b 45 08             	mov    0x8(%ebp),%eax
 804a6ae:	8b 50 18             	mov    0x18(%eax),%edx
 804a6b1:	8b 45 08             	mov    0x8(%ebp),%eax
 804a6b4:	8b 40 1c             	mov    0x1c(%eax),%eax
 804a6b7:	39 c2                	cmp    %eax,%edx
 804a6b9:	75 23                	jne    804a6de <_ZNK12TiXmlElement5PrintEP8_IO_FILEi+0x156>
 804a6bb:	8b 45 08             	mov    0x8(%ebp),%eax
 804a6be:	8b 40 18             	mov    0x18(%eax),%eax
 804a6c1:	8b 00                	mov    (%eax),%eax
 804a6c3:	83 c0 38             	add    $0x38,%eax
 804a6c6:	8b 10                	mov    (%eax),%edx
 804a6c8:	8b 45 08             	mov    0x8(%ebp),%eax
 804a6cb:	8b 40 18             	mov    0x18(%eax),%eax
 804a6ce:	89 04 24             	mov    %eax,(%esp)
 804a6d1:	ff d2                	call   *%edx
 804a6d3:	85 c0                	test   %eax,%eax
 804a6d5:	74 07                	je     804a6de <_ZNK12TiXmlElement5PrintEP8_IO_FILEi+0x156>
 804a6d7:	b8 01 00 00 00       	mov    $0x1,%eax
 804a6dc:	eb 05                	jmp    804a6e3 <_ZNK12TiXmlElement5PrintEP8_IO_FILEi+0x15b>
 804a6de:	b8 00 00 00 00       	mov    $0x0,%eax
 804a6e3:	84 c0                	test   %al,%al
 804a6e5:	74 66                	je     804a74d <_ZNK12TiXmlElement5PrintEP8_IO_FILEi+0x1c5>
/home/fabrizio/C++Examples/tinyXml/tinyxml/tinyxml.cpp:784
 804a6e7:	8b 45 0c             	mov    0xc(%ebp),%eax
 804a6ea:	89 44 24 04          	mov    %eax,0x4(%esp)
 804a6ee:	c7 04 24 3e 00 00 00 	movl   $0x3e,(%esp)
 804a6f5:	e8 82 e5 ff ff       	call   8048c7c <fputc@plt>
/home/fabrizio/C++Examples/tinyXml/tinyxml/tinyxml.cpp:785
 804a6fa:	8b 45 08             	mov    0x8(%ebp),%eax
 804a6fd:	8b 40 18             	mov    0x18(%eax),%eax
 804a700:	8b 00                	mov    (%eax),%eax
 804a702:	83 c0 08             	add    $0x8,%eax
 804a705:	8b 08                	mov    (%eax),%ecx
 804a707:	8b 45 10             	mov    0x10(%ebp),%eax
 804a70a:	8d 50 01             	lea    0x1(%eax),%edx
 804a70d:	8b 45 08             	mov    0x8(%ebp),%eax
 804a710:	8b 40 18             	mov    0x18(%eax),%eax
 804a713:	89 54 24 08          	mov    %edx,0x8(%esp)
 804a717:	8b 55 0c             	mov    0xc(%ebp),%edx
 804a71a:	89 54 24 04          	mov    %edx,0x4(%esp)
 804a71e:	89 04 24             	mov    %eax,(%esp)
 804a721:	ff d1                	call   *%ecx
/home/fabrizio/C++Examples/tinyXml/tinyxml/tinyxml.cpp:786
 804a723:	8b 45 08             	mov    0x8(%ebp),%eax
 804a726:	83 c0 20             	add    $0x20,%eax
 804a729:	89 04 24             	mov    %eax,(%esp)
 804a72c:	e8 13 2b 00 00       	call   804d244 <_ZNK11TiXmlString5c_strEv>
 804a731:	89 44 24 08          	mov    %eax,0x8(%esp)
 804a735:	c7 44 24 04 45 65 05 	movl   $0x8056545,0x4(%esp)
 804a73c:	08 
 804a73d:	8b 45 0c             	mov    0xc(%ebp),%eax
 804a740:	89 04 24             	mov    %eax,(%esp)
 804a743:	e8 14 e5 ff ff       	call   8048c5c <fprintf@plt>
 804a748:	e9 fd 00 00 00       	jmp    804a84a <_ZNK12TiXmlElement5PrintEP8_IO_FILEi+0x2c2>
/home/fabrizio/C++Examples/tinyXml/tinyxml/tinyxml.cpp:790
 804a74d:	8b 45 0c             	mov    0xc(%ebp),%eax
 804a750:	89 44 24 04          	mov    %eax,0x4(%esp)
 804a754:	c7 04 24 3e 00 00 00 	movl   $0x3e,(%esp)
 804a75b:	e8 1c e5 ff ff       	call   8048c7c <fputc@plt>
/home/fabrizio/C++Examples/tinyXml/tinyxml/tinyxml.cpp:792
 804a760:	8b 45 08             	mov    0x8(%ebp),%eax
 804a763:	8b 40 18             	mov    0x18(%eax),%eax
 804a766:	89 45 ec             	mov    %eax,-0x14(%ebp)
 804a769:	eb 5f                	jmp    804a7ca <_ZNK12TiXmlElement5PrintEP8_IO_FILEi+0x242>
/home/fabrizio/C++Examples/tinyXml/tinyxml/tinyxml.cpp:794
 804a76b:	8b 45 ec             	mov    -0x14(%ebp),%eax
 804a76e:	8b 00                	mov    (%eax),%eax
 804a770:	83 c0 38             	add    $0x38,%eax
 804a773:	8b 10                	mov    (%eax),%edx
 804a775:	8b 45 ec             	mov    -0x14(%ebp),%eax
 804a778:	89 04 24             	mov    %eax,(%esp)
 804a77b:	ff d2                	call   *%edx
 804a77d:	85 c0                	test   %eax,%eax
 804a77f:	0f 94 c0             	sete   %al
 804a782:	84 c0                	test   %al,%al
 804a784:	74 13                	je     804a799 <_ZNK12TiXmlElement5PrintEP8_IO_FILEi+0x211>
/home/fabrizio/C++Examples/tinyXml/tinyxml/tinyxml.cpp:796
 804a786:	8b 45 0c             	mov    0xc(%ebp),%eax
 804a789:	89 44 24 04          	mov    %eax,0x4(%esp)
 804a78d:	c7 04 24 0a 00 00 00 	movl   $0xa,(%esp)
 804a794:	e8 e3 e4 ff ff       	call   8048c7c <fputc@plt>
/home/fabrizio/C++Examples/tinyXml/tinyxml/tinyxml.cpp:798
 804a799:	8b 45 ec             	mov    -0x14(%ebp),%eax
 804a79c:	8b 00                	mov    (%eax),%eax
 804a79e:	83 c0 08             	add    $0x8,%eax
 804a7a1:	8b 08                	mov    (%eax),%ecx
 804a7a3:	8b 45 10             	mov    0x10(%ebp),%eax
 804a7a6:	8d 50 01             	lea    0x1(%eax),%edx
 804a7a9:	8b 45 ec             	mov    -0x14(%ebp),%eax
 804a7ac:	89 54 24 08          	mov    %edx,0x8(%esp)
 804a7b0:	8b 55 0c             	mov    0xc(%ebp),%edx
 804a7b3:	89 54 24 04          	mov    %edx,0x4(%esp)
 804a7b7:	89 04 24             	mov    %eax,(%esp)
 804a7ba:	ff d1                	call   *%ecx
/home/fabrizio/C++Examples/tinyXml/tinyxml/tinyxml.cpp:792
 804a7bc:	8b 45 ec             	mov    -0x14(%ebp),%eax
 804a7bf:	89 04 24             	mov    %eax,(%esp)
 804a7c2:	e8 7b 2e 00 00       	call   804d642 <_ZN9TiXmlNode11NextSiblingEv>
 804a7c7:	89 45 ec             	mov    %eax,-0x14(%ebp)
 804a7ca:	83 7d ec 00          	cmpl   $0x0,-0x14(%ebp)
 804a7ce:	0f 95 c0             	setne  %al
 804a7d1:	84 c0                	test   %al,%al
 804a7d3:	75 96                	jne    804a76b <_ZNK12TiXmlElement5PrintEP8_IO_FILEi+0x1e3>
/home/fabrizio/C++Examples/tinyXml/tinyxml/tinyxml.cpp:800
 804a7d5:	8b 45 0c             	mov    0xc(%ebp),%eax
 804a7d8:	89 44 24 04          	mov    %eax,0x4(%esp)
 804a7dc:	c7 04 24 0a 00 00 00 	movl   $0xa,(%esp)
 804a7e3:	e8 94 e4 ff ff       	call   8048c7c <fputc@plt>
/home/fabrizio/C++Examples/tinyXml/tinyxml/tinyxml.cpp:801
 804a7e8:	c7 45 f4 00 00 00 00 	movl   $0x0,-0xc(%ebp)
 804a7ef:	eb 27                	jmp    804a818 <_ZNK12TiXmlElement5PrintEP8_IO_FILEi+0x290>
/home/fabrizio/C++Examples/tinyXml/tinyxml/tinyxml.cpp:802
 804a7f1:	8b 45 0c             	mov    0xc(%ebp),%eax
 804a7f4:	89 44 24 0c          	mov    %eax,0xc(%esp)
 804a7f8:	c7 44 24 08 04 00 00 	movl   $0x4,0x8(%esp)
 804a7ff:	00 
 804a800:	c7 44 24 04 01 00 00 	movl   $0x1,0x4(%esp)
 804a807:	00 
 804a808:	c7 04 24 38 65 05 08 	movl   $0x8056538,(%esp)
 804a80f:	e8 18 e4 ff ff       	call   8048c2c <fwrite@plt>
/home/fabrizio/C++Examples/tinyXml/tinyxml/tinyxml.cpp:801
 804a814:	83 45 f4 01          	addl   $0x1,-0xc(%ebp)
 804a818:	8b 45 f4             	mov    -0xc(%ebp),%eax
 804a81b:	3b 45 10             	cmp    0x10(%ebp),%eax
 804a81e:	0f 9c c0             	setl   %al
 804a821:	84 c0                	test   %al,%al
 804a823:	75 cc                	jne    804a7f1 <_ZNK12TiXmlElement5PrintEP8_IO_FILEi+0x269>
/home/fabrizio/C++Examples/tinyXml/tinyxml/tinyxml.cpp:804
 804a825:	8b 45 08             	mov    0x8(%ebp),%eax
 804a828:	83 c0 20             	add    $0x20,%eax
 804a82b:	89 04 24             	mov    %eax,(%esp)
 804a82e:	e8 11 2a 00 00       	call   804d244 <_ZNK11TiXmlString5c_strEv>
 804a833:	89 44 24 08          	mov    %eax,0x8(%esp)
 804a837:	c7 44 24 04 45 65 05 	movl   $0x8056545,0x4(%esp)
 804a83e:	08 
 804a83f:	8b 45 0c             	mov    0xc(%ebp),%eax
 804a842:	89 04 24             	mov    %eax,(%esp)
 804a845:	e8 12 e4 ff ff       	call   8048c5c <fprintf@plt>
/home/fabrizio/C++Examples/tinyXml/tinyxml/tinyxml.cpp:806
 804a84a:	c9                   	leave  
 804a84b:	c3                   	ret    

0804a84c <_ZNK12TiXmlElement6CopyToEPS_>:
_ZNK12TiXmlElement6CopyToEPS_():
/home/fabrizio/C++Examples/tinyXml/tinyxml/tinyxml.cpp:810
 804a84c:	55                   	push   %ebp
 804a84d:	89 e5                	mov    %esp,%ebp
 804a84f:	53                   	push   %ebx
 804a850:	83 ec 24             	sub    $0x24,%esp
/home/fabrizio/C++Examples/tinyXml/tinyxml/tinyxml.cpp:812
 804a853:	8b 55 0c             	mov    0xc(%ebp),%edx
 804a856:	8b 45 08             	mov    0x8(%ebp),%eax
 804a859:	89 54 24 04          	mov    %edx,0x4(%esp)
 804a85d:	89 04 24             	mov    %eax,(%esp)
 804a860:	e8 4f eb ff ff       	call   80493b4 <_ZNK9TiXmlNode6CopyToEPS_>
/home/fabrizio/C++Examples/tinyXml/tinyxml/tinyxml.cpp:816
 804a865:	c7 45 f4 00 00 00 00 	movl   $0x0,-0xc(%ebp)
/home/fabrizio/C++Examples/tinyXml/tinyxml/tinyxml.cpp:817
 804a86c:	8b 45 08             	mov    0x8(%ebp),%eax
 804a86f:	83 c0 2c             	add    $0x2c,%eax
 804a872:	89 04 24             	mov    %eax,(%esp)
 804a875:	e8 a2 2f 00 00       	call   804d81c <_ZNK17TiXmlAttributeSet5FirstEv>
 804a87a:	89 45 f4             	mov    %eax,-0xc(%ebp)
 804a87d:	eb 39                	jmp    804a8b8 <_ZNK12TiXmlElement6CopyToEPS_+0x6c>
/home/fabrizio/C++Examples/tinyXml/tinyxml/tinyxml.cpp:821
 804a87f:	8b 45 f4             	mov    -0xc(%ebp),%eax
 804a882:	89 04 24             	mov    %eax,(%esp)
 804a885:	e8 40 2f 00 00       	call   804d7ca <_ZNK14TiXmlAttribute5ValueEv>
 804a88a:	89 c3                	mov    %eax,%ebx
 804a88c:	8b 45 f4             	mov    -0xc(%ebp),%eax
 804a88f:	89 04 24             	mov    %eax,(%esp)
 804a892:	e8 1d 2f 00 00       	call   804d7b4 <_ZNK14TiXmlAttribute4NameEv>
 804a897:	89 5c 24 08          	mov    %ebx,0x8(%esp)
 804a89b:	89 44 24 04          	mov    %eax,0x4(%esp)
 804a89f:	8b 45 0c             	mov    0xc(%ebp),%eax
 804a8a2:	89 04 24             	mov    %eax,(%esp)
 804a8a5:	e8 a6 fc ff ff       	call   804a550 <_ZN12TiXmlElement12SetAttributeEPKcS1_>
/home/fabrizio/C++Examples/tinyXml/tinyxml/tinyxml.cpp:817
 804a8aa:	8b 45 f4             	mov    -0xc(%ebp),%eax
 804a8ad:	89 04 24             	mov    %eax,(%esp)
 804a8b0:	e8 b9 0c 00 00       	call   804b56e <_ZNK14TiXmlAttribute4NextEv>
 804a8b5:	89 45 f4             	mov    %eax,-0xc(%ebp)
 804a8b8:	83 7d f4 00          	cmpl   $0x0,-0xc(%ebp)
 804a8bc:	0f 95 c0             	setne  %al
 804a8bf:	84 c0                	test   %al,%al
 804a8c1:	75 bc                	jne    804a87f <_ZNK12TiXmlElement6CopyToEPS_+0x33>
/home/fabrizio/C++Examples/tinyXml/tinyxml/tinyxml.cpp:824
 804a8c3:	c7 45 f0 00 00 00 00 	movl   $0x0,-0x10(%ebp)
/home/fabrizio/C++Examples/tinyXml/tinyxml/tinyxml.cpp:825
 804a8ca:	8b 45 08             	mov    0x8(%ebp),%eax
 804a8cd:	8b 40 18             	mov    0x18(%eax),%eax
 804a8d0:	89 45 f0             	mov    %eax,-0x10(%ebp)
 804a8d3:	eb 2f                	jmp    804a904 <_ZNK12TiXmlElement6CopyToEPS_+0xb8>
/home/fabrizio/C++Examples/tinyXml/tinyxml/tinyxml.cpp:827
 804a8d5:	8b 45 f0             	mov    -0x10(%ebp),%eax
 804a8d8:	8b 00                	mov    (%eax),%eax
 804a8da:	83 c0 40             	add    $0x40,%eax
 804a8dd:	8b 10                	mov    (%eax),%edx
 804a8df:	8b 45 f0             	mov    -0x10(%ebp),%eax
 804a8e2:	89 04 24             	mov    %eax,(%esp)
 804a8e5:	ff d2                	call   *%edx
 804a8e7:	8b 55 0c             	mov    0xc(%ebp),%edx
 804a8ea:	89 44 24 04          	mov    %eax,0x4(%esp)
 804a8ee:	89 14 24             	mov    %edx,(%esp)
 804a8f1:	e8 62 eb ff ff       	call   8049458 <_ZN9TiXmlNode12LinkEndChildEPS_>
/home/fabrizio/C++Examples/tinyXml/tinyxml/tinyxml.cpp:825
 804a8f6:	8b 45 f0             	mov    -0x10(%ebp),%eax
 804a8f9:	89 04 24             	mov    %eax,(%esp)
 804a8fc:	e8 41 2d 00 00       	call   804d642 <_ZN9TiXmlNode11NextSiblingEv>
 804a901:	89 45 f0             	mov    %eax,-0x10(%ebp)
 804a904:	83 7d f0 00          	cmpl   $0x0,-0x10(%ebp)
 804a908:	0f 95 c0             	setne  %al
 804a90b:	84 c0                	test   %al,%al
 804a90d:	75 c6                	jne    804a8d5 <_ZNK12TiXmlElement6CopyToEPS_+0x89>
/home/fabrizio/C++Examples/tinyXml/tinyxml/tinyxml.cpp:829
 804a90f:	83 c4 24             	add    $0x24,%esp
 804a912:	5b                   	pop    %ebx
 804a913:	5d                   	pop    %ebp
 804a914:	c3                   	ret    
 804a915:	90                   	nop

0804a916 <_ZNK12TiXmlElement6AcceptEP12TiXmlVisitor>:
_ZNK12TiXmlElement6AcceptEP12TiXmlVisitor():
/home/fabrizio/C++Examples/tinyXml/tinyxml/tinyxml.cpp:832
 804a916:	55                   	push   %ebp
 804a917:	89 e5                	mov    %esp,%ebp
 804a919:	53                   	push   %ebx
 804a91a:	83 ec 24             	sub    $0x24,%esp
/home/fabrizio/C++Examples/tinyXml/tinyxml/tinyxml.cpp:833
 804a91d:	8b 45 0c             	mov    0xc(%ebp),%eax
 804a920:	8b 00                	mov    (%eax),%eax
 804a922:	83 c0 10             	add    $0x10,%eax
 804a925:	8b 18                	mov    (%eax),%ebx
 804a927:	8b 45 08             	mov    0x8(%ebp),%eax
 804a92a:	83 c0 2c             	add    $0x2c,%eax
 804a92d:	89 04 24             	mov    %eax,(%esp)
 804a930:	e8 e7 2e 00 00       	call   804d81c <_ZNK17TiXmlAttributeSet5FirstEv>
 804a935:	89 44 24 08          	mov    %eax,0x8(%esp)
 804a939:	8b 45 08             	mov    0x8(%ebp),%eax
 804a93c:	89 44 24 04          	mov    %eax,0x4(%esp)
 804a940:	8b 45 0c             	mov    0xc(%ebp),%eax
 804a943:	89 04 24             	mov    %eax,(%esp)
 804a946:	ff d3                	call   *%ebx
 804a948:	84 c0                	test   %al,%al
 804a94a:	74 4c                	je     804a998 <_ZNK12TiXmlElement6AcceptEP12TiXmlVisitor+0x82>
/home/fabrizio/C++Examples/tinyXml/tinyxml/tinyxml.cpp:835
 804a94c:	8b 45 08             	mov    0x8(%ebp),%eax
 804a94f:	89 04 24             	mov    %eax,(%esp)
 804a952:	e8 a1 2c 00 00       	call   804d5f8 <_ZNK9TiXmlNode10FirstChildEv>
 804a957:	89 45 f4             	mov    %eax,-0xc(%ebp)
 804a95a:	eb 2e                	jmp    804a98a <_ZNK12TiXmlElement6AcceptEP12TiXmlVisitor+0x74>
/home/fabrizio/C++Examples/tinyXml/tinyxml/tinyxml.cpp:837
 804a95c:	8b 45 f4             	mov    -0xc(%ebp),%eax
 804a95f:	8b 00                	mov    (%eax),%eax
 804a961:	83 c0 44             	add    $0x44,%eax
 804a964:	8b 10                	mov    (%eax),%edx
 804a966:	8b 45 0c             	mov    0xc(%ebp),%eax
 804a969:	89 44 24 04          	mov    %eax,0x4(%esp)
 804a96d:	8b 45 f4             	mov    -0xc(%ebp),%eax
 804a970:	89 04 24             	mov    %eax,(%esp)
 804a973:	ff d2                	call   *%edx
 804a975:	83 f0 01             	xor    $0x1,%eax
 804a978:	84 c0                	test   %al,%al
 804a97a:	75 1b                	jne    804a997 <_ZNK12TiXmlElement6AcceptEP12TiXmlVisitor+0x81>
/home/fabrizio/C++Examples/tinyXml/tinyxml/tinyxml.cpp:835
 804a97c:	8b 45 f4             	mov    -0xc(%ebp),%eax
 804a97f:	89 04 24             	mov    %eax,(%esp)
 804a982:	e8 af 2c 00 00       	call   804d636 <_ZNK9TiXmlNode11NextSiblingEv>
 804a987:	89 45 f4             	mov    %eax,-0xc(%ebp)
 804a98a:	83 7d f4 00          	cmpl   $0x0,-0xc(%ebp)
 804a98e:	0f 95 c0             	setne  %al
 804a991:	84 c0                	test   %al,%al
 804a993:	75 c7                	jne    804a95c <_ZNK12TiXmlElement6AcceptEP12TiXmlVisitor+0x46>
 804a995:	eb 01                	jmp    804a998 <_ZNK12TiXmlElement6AcceptEP12TiXmlVisitor+0x82>
/home/fabrizio/C++Examples/tinyXml/tinyxml/tinyxml.cpp:838
 804a997:	90                   	nop
/home/fabrizio/C++Examples/tinyXml/tinyxml/tinyxml.cpp:841
 804a998:	8b 45 0c             	mov    0xc(%ebp),%eax
 804a99b:	8b 00                	mov    (%eax),%eax
 804a99d:	83 c0 14             	add    $0x14,%eax
 804a9a0:	8b 10                	mov    (%eax),%edx
 804a9a2:	8b 45 08             	mov    0x8(%ebp),%eax
 804a9a5:	89 44 24 04          	mov    %eax,0x4(%esp)
 804a9a9:	8b 45 0c             	mov    0xc(%ebp),%eax
 804a9ac:	89 04 24             	mov    %eax,(%esp)
 804a9af:	ff d2                	call   *%edx
/home/fabrizio/C++Examples/tinyXml/tinyxml/tinyxml.cpp:842
 804a9b1:	83 c4 24             	add    $0x24,%esp
 804a9b4:	5b                   	pop    %ebx
 804a9b5:	5d                   	pop    %ebp
 804a9b6:	c3                   	ret    
 804a9b7:	90                   	nop

0804a9b8 <_ZNK12TiXmlElement5CloneEv>:
_ZNK12TiXmlElement5CloneEv():
/home/fabrizio/C++Examples/tinyXml/tinyxml/tinyxml.cpp:846
 804a9b8:	55                   	push   %ebp
 804a9b9:	89 e5                	mov    %esp,%ebp
 804a9bb:	57                   	push   %edi
 804a9bc:	56                   	push   %esi
 804a9bd:	53                   	push   %ebx
 804a9be:	83 ec 2c             	sub    $0x2c,%esp
/home/fabrizio/C++Examples/tinyXml/tinyxml/tinyxml.cpp:847
 804a9c1:	8b 45 08             	mov    0x8(%ebp),%eax
 804a9c4:	89 04 24             	mov    %eax,(%esp)
 804a9c7:	e8 ec 2b 00 00       	call   804d5b8 <_ZNK9TiXmlNode5ValueEv>
 804a9cc:	89 c6                	mov    %eax,%esi
 804a9ce:	c7 04 24 50 00 00 00 	movl   $0x50,(%esp)
 804a9d5:	e8 32 e2 ff ff       	call   8048c0c <_Znwj@plt>
 804a9da:	89 c3                	mov    %eax,%ebx
 804a9dc:	89 d8                	mov    %ebx,%eax
 804a9de:	89 74 24 04          	mov    %esi,0x4(%esp)
 804a9e2:	89 04 24             	mov    %eax,(%esp)
 804a9e5:	e8 98 f5 ff ff       	call   8049f82 <_ZN12TiXmlElementC1EPKc>
 804a9ea:	89 5d e4             	mov    %ebx,-0x1c(%ebp)
/home/fabrizio/C++Examples/tinyXml/tinyxml/tinyxml.cpp:848
 804a9ed:	83 7d e4 00          	cmpl   $0x0,-0x1c(%ebp)
 804a9f1:	74 1a                	je     804aa0d <_ZNK12TiXmlElement5CloneEv+0x55>
 804a9f3:	eb 1f                	jmp    804aa14 <_ZNK12TiXmlElement5CloneEv+0x5c>
 804a9f5:	89 d6                	mov    %edx,%esi
 804a9f7:	89 c7                	mov    %eax,%edi
/home/fabrizio/C++Examples/tinyXml/tinyxml/tinyxml.cpp:847
 804a9f9:	89 1c 24             	mov    %ebx,(%esp)
 804a9fc:	e8 0b e1 ff ff       	call   8048b0c <_ZdlPv@plt>
 804aa01:	89 f8                	mov    %edi,%eax
 804aa03:	89 f2                	mov    %esi,%edx
 804aa05:	89 04 24             	mov    %eax,(%esp)
 804aa08:	e8 ff e2 ff ff       	call   8048d0c <_Unwind_Resume@plt>
/home/fabrizio/C++Examples/tinyXml/tinyxml/tinyxml.cpp:849
 804aa0d:	b8 00 00 00 00       	mov    $0x0,%eax
 804aa12:	eb 15                	jmp    804aa29 <_ZNK12TiXmlElement5CloneEv+0x71>
/home/fabrizio/C++Examples/tinyXml/tinyxml/tinyxml.cpp:851
 804aa14:	8b 45 e4             	mov    -0x1c(%ebp),%eax
 804aa17:	89 44 24 04          	mov    %eax,0x4(%esp)
 804aa1b:	8b 45 08             	mov    0x8(%ebp),%eax
 804aa1e:	89 04 24             	mov    %eax,(%esp)
 804aa21:	e8 26 fe ff ff       	call   804a84c <_ZNK12TiXmlElement6CopyToEPS_>
/home/fabrizio/C++Examples/tinyXml/tinyxml/tinyxml.cpp:852
 804aa26:	8b 45 e4             	mov    -0x1c(%ebp),%eax
/home/fabrizio/C++Examples/tinyXml/tinyxml/tinyxml.cpp:853
 804aa29:	83 c4 2c             	add    $0x2c,%esp
 804aa2c:	5b                   	pop    %ebx
 804aa2d:	5e                   	pop    %esi
 804aa2e:	5f                   	pop    %edi
 804aa2f:	5d                   	pop    %ebp
 804aa30:	c3                   	ret    
 804aa31:	90                   	nop

0804aa32 <_ZNK12TiXmlElement7GetTextEv>:
_ZNK12TiXmlElement7GetTextEv():
/home/fabrizio/C++Examples/tinyXml/tinyxml/tinyxml.cpp:857
 804aa32:	55                   	push   %ebp
 804aa33:	89 e5                	mov    %esp,%ebp
 804aa35:	83 ec 28             	sub    $0x28,%esp
/home/fabrizio/C++Examples/tinyXml/tinyxml/tinyxml.cpp:858
 804aa38:	8b 45 08             	mov    0x8(%ebp),%eax
 804aa3b:	89 04 24             	mov    %eax,(%esp)
 804aa3e:	e8 b5 2b 00 00       	call   804d5f8 <_ZNK9TiXmlNode10FirstChildEv>
 804aa43:	89 45 f4             	mov    %eax,-0xc(%ebp)
/home/fabrizio/C++Examples/tinyXml/tinyxml/tinyxml.cpp:859
 804aa46:	83 7d f4 00          	cmpl   $0x0,-0xc(%ebp)
 804aa4a:	74 28                	je     804aa74 <_ZNK12TiXmlElement7GetTextEv+0x42>
/home/fabrizio/C++Examples/tinyXml/tinyxml/tinyxml.cpp:860
 804aa4c:	8b 45 f4             	mov    -0xc(%ebp),%eax
 804aa4f:	8b 00                	mov    (%eax),%eax
 804aa51:	83 c0 20             	add    $0x20,%eax
 804aa54:	8b 10                	mov    (%eax),%edx
 804aa56:	8b 45 f4             	mov    -0xc(%ebp),%eax
 804aa59:	89 04 24             	mov    %eax,(%esp)
 804aa5c:	ff d2                	call   *%edx
 804aa5e:	89 45 f0             	mov    %eax,-0x10(%ebp)
/home/fabrizio/C++Examples/tinyXml/tinyxml/tinyxml.cpp:861
 804aa61:	83 7d f0 00          	cmpl   $0x0,-0x10(%ebp)
 804aa65:	74 0d                	je     804aa74 <_ZNK12TiXmlElement7GetTextEv+0x42>
/home/fabrizio/C++Examples/tinyXml/tinyxml/tinyxml.cpp:862
 804aa67:	8b 45 f0             	mov    -0x10(%ebp),%eax
 804aa6a:	89 04 24             	mov    %eax,(%esp)
 804aa6d:	e8 46 2b 00 00       	call   804d5b8 <_ZNK9TiXmlNode5ValueEv>
 804aa72:	eb 05                	jmp    804aa79 <_ZNK12TiXmlElement7GetTextEv+0x47>
/home/fabrizio/C++Examples/tinyXml/tinyxml/tinyxml.cpp:865
 804aa74:	b8 00 00 00 00       	mov    $0x0,%eax
/home/fabrizio/C++Examples/tinyXml/tinyxml/tinyxml.cpp:866
 804aa79:	c9                   	leave  
 804aa7a:	c3                   	ret    
 804aa7b:	90                   	nop

0804aa7c <_ZN13TiXmlDocumentC2Ev>:
TiXmlDocument():
/home/fabrizio/C++Examples/tinyXml/tinyxml/tinyxml.cpp:869
 804aa7c:	55                   	push   %ebp
 804aa7d:	89 e5                	mov    %esp,%ebp
 804aa7f:	56                   	push   %esi
 804aa80:	53                   	push   %ebx
 804aa81:	83 ec 10             	sub    $0x10,%esp
 804aa84:	8b 45 08             	mov    0x8(%ebp),%eax
 804aa87:	c7 44 24 04 00 00 00 	movl   $0x0,0x4(%esp)
 804aa8e:	00 
 804aa8f:	89 04 24             	mov    %eax,(%esp)
 804aa92:	e8 1d e6 ff ff       	call   80490b4 <_ZN9TiXmlNodeC2ENS_8NodeTypeE>
 804aa97:	8b 45 08             	mov    0x8(%ebp),%eax
 804aa9a:	c7 00 68 77 05 08    	movl   $0x8057768,(%eax)
 804aaa0:	8b 45 08             	mov    0x8(%ebp),%eax
 804aaa3:	83 c0 34             	add    $0x34,%eax
 804aaa6:	89 04 24             	mov    %eax,(%esp)
 804aaa9:	e8 2c 26 00 00       	call   804d0da <_ZN11TiXmlStringC1Ev>
 804aaae:	8b 45 08             	mov    0x8(%ebp),%eax
 804aab1:	83 c0 3c             	add    $0x3c,%eax
 804aab4:	89 04 24             	mov    %eax,(%esp)
 804aab7:	e8 70 29 00 00       	call   804d42c <_ZN11TiXmlCursorC1Ev>
/home/fabrizio/C++Examples/tinyXml/tinyxml/tinyxml.cpp:871
 804aabc:	8b 45 08             	mov    0x8(%ebp),%eax
 804aabf:	c7 40 38 04 00 00 00 	movl   $0x4,0x38(%eax)
/home/fabrizio/C++Examples/tinyXml/tinyxml/tinyxml.cpp:872
 804aac6:	8b 45 08             	mov    0x8(%ebp),%eax
 804aac9:	c6 40 44 00          	movb   $0x0,0x44(%eax)
/home/fabrizio/C++Examples/tinyXml/tinyxml/tinyxml.cpp:873
 804aacd:	8b 45 08             	mov    0x8(%ebp),%eax
 804aad0:	89 04 24             	mov    %eax,(%esp)
 804aad3:	e8 e6 30 00 00       	call   804dbbe <_ZN13TiXmlDocument10ClearErrorEv>
/home/fabrizio/C++Examples/tinyXml/tinyxml/tinyxml.cpp:874
 804aad8:	eb 31                	jmp    804ab0b <_ZN13TiXmlDocumentC2Ev+0x8f>
 804aada:	89 d3                	mov    %edx,%ebx
 804aadc:	89 c6                	mov    %eax,%esi
 804aade:	8b 45 08             	mov    0x8(%ebp),%eax
 804aae1:	83 c0 34             	add    $0x34,%eax
 804aae4:	89 04 24             	mov    %eax,(%esp)
 804aae7:	e8 58 26 00 00       	call   804d144 <_ZN11TiXmlStringD1Ev>
 804aaec:	89 f0                	mov    %esi,%eax
 804aaee:	89 da                	mov    %ebx,%edx
 804aaf0:	89 d3                	mov    %edx,%ebx
 804aaf2:	89 c6                	mov    %eax,%esi
 804aaf4:	8b 45 08             	mov    0x8(%ebp),%eax
 804aaf7:	89 04 24             	mov    %eax,(%esp)
 804aafa:	e8 81 e6 ff ff       	call   8049180 <_ZN9TiXmlNodeD2Ev>
 804aaff:	89 f0                	mov    %esi,%eax
 804ab01:	89 da                	mov    %ebx,%edx
 804ab03:	89 04 24             	mov    %eax,(%esp)
 804ab06:	e8 01 e2 ff ff       	call   8048d0c <_Unwind_Resume@plt>
 804ab0b:	83 c4 10             	add    $0x10,%esp
 804ab0e:	5b                   	pop    %ebx
 804ab0f:	5e                   	pop    %esi
 804ab10:	5d                   	pop    %ebp
 804ab11:	c3                   	ret    

0804ab12 <_ZN13TiXmlDocumentC1Ev>:
/home/fabrizio/C++Examples/tinyXml/tinyxml/tinyxml.cpp:869
 804ab12:	55                   	push   %ebp
 804ab13:	89 e5                	mov    %esp,%ebp
 804ab15:	56                   	push   %esi
 804ab16:	53                   	push   %ebx
 804ab17:	83 ec 10             	sub    $0x10,%esp
 804ab1a:	8b 45 08             	mov    0x8(%ebp),%eax
 804ab1d:	c7 44 24 04 00 00 00 	movl   $0x0,0x4(%esp)
 804ab24:	00 
 804ab25:	89 04 24             	mov    %eax,(%esp)
 804ab28:	e8 87 e5 ff ff       	call   80490b4 <_ZN9TiXmlNodeC2ENS_8NodeTypeE>
 804ab2d:	8b 45 08             	mov    0x8(%ebp),%eax
 804ab30:	c7 00 68 77 05 08    	movl   $0x8057768,(%eax)
 804ab36:	8b 45 08             	mov    0x8(%ebp),%eax
 804ab39:	83 c0 34             	add    $0x34,%eax
 804ab3c:	89 04 24             	mov    %eax,(%esp)
 804ab3f:	e8 96 25 00 00       	call   804d0da <_ZN11TiXmlStringC1Ev>
 804ab44:	8b 45 08             	mov    0x8(%ebp),%eax
 804ab47:	83 c0 3c             	add    $0x3c,%eax
 804ab4a:	89 04 24             	mov    %eax,(%esp)
 804ab4d:	e8 da 28 00 00       	call   804d42c <_ZN11TiXmlCursorC1Ev>
/home/fabrizio/C++Examples/tinyXml/tinyxml/tinyxml.cpp:871
 804ab52:	8b 45 08             	mov    0x8(%ebp),%eax
 804ab55:	c7 40 38 04 00 00 00 	movl   $0x4,0x38(%eax)
/home/fabrizio/C++Examples/tinyXml/tinyxml/tinyxml.cpp:872
 804ab5c:	8b 45 08             	mov    0x8(%ebp),%eax
 804ab5f:	c6 40 44 00          	movb   $0x0,0x44(%eax)
/home/fabrizio/C++Examples/tinyXml/tinyxml/tinyxml.cpp:873
 804ab63:	8b 45 08             	mov    0x8(%ebp),%eax
 804ab66:	89 04 24             	mov    %eax,(%esp)
 804ab69:	e8 50 30 00 00       	call   804dbbe <_ZN13TiXmlDocument10ClearErrorEv>
/home/fabrizio/C++Examples/tinyXml/tinyxml/tinyxml.cpp:874
 804ab6e:	eb 31                	jmp    804aba1 <_ZN13TiXmlDocumentC1Ev+0x8f>
 804ab70:	89 d3                	mov    %edx,%ebx
 804ab72:	89 c6                	mov    %eax,%esi
 804ab74:	8b 45 08             	mov    0x8(%ebp),%eax
 804ab77:	83 c0 34             	add    $0x34,%eax
 804ab7a:	89 04 24             	mov    %eax,(%esp)
 804ab7d:	e8 c2 25 00 00       	call   804d144 <_ZN11TiXmlStringD1Ev>
 804ab82:	89 f0                	mov    %esi,%eax
 804ab84:	89 da                	mov    %ebx,%edx
 804ab86:	89 d3                	mov    %edx,%ebx
 804ab88:	89 c6                	mov    %eax,%esi
 804ab8a:	8b 45 08             	mov    0x8(%ebp),%eax
 804ab8d:	89 04 24             	mov    %eax,(%esp)
 804ab90:	e8 eb e5 ff ff       	call   8049180 <_ZN9TiXmlNodeD2Ev>
 804ab95:	89 f0                	mov    %esi,%eax
 804ab97:	89 da                	mov    %ebx,%edx
 804ab99:	89 04 24             	mov    %eax,(%esp)
 804ab9c:	e8 6b e1 ff ff       	call   8048d0c <_Unwind_Resume@plt>
 804aba1:	83 c4 10             	add    $0x10,%esp
 804aba4:	5b                   	pop    %ebx
 804aba5:	5e                   	pop    %esi
 804aba6:	5d                   	pop    %ebp
 804aba7:	c3                   	ret    

0804aba8 <_ZN13TiXmlDocumentC2EPKc>:
/home/fabrizio/C++Examples/tinyXml/tinyxml/tinyxml.cpp:876
 804aba8:	55                   	push   %ebp
 804aba9:	89 e5                	mov    %esp,%ebp
 804abab:	56                   	push   %esi
 804abac:	53                   	push   %ebx
 804abad:	83 ec 10             	sub    $0x10,%esp
 804abb0:	8b 45 08             	mov    0x8(%ebp),%eax
 804abb3:	c7 44 24 04 00 00 00 	movl   $0x0,0x4(%esp)
 804abba:	00 
 804abbb:	89 04 24             	mov    %eax,(%esp)
 804abbe:	e8 f1 e4 ff ff       	call   80490b4 <_ZN9TiXmlNodeC2ENS_8NodeTypeE>
 804abc3:	8b 45 08             	mov    0x8(%ebp),%eax
 804abc6:	c7 00 68 77 05 08    	movl   $0x8057768,(%eax)
 804abcc:	8b 45 08             	mov    0x8(%ebp),%eax
 804abcf:	83 c0 34             	add    $0x34,%eax
 804abd2:	89 04 24             	mov    %eax,(%esp)
 804abd5:	e8 00 25 00 00       	call   804d0da <_ZN11TiXmlStringC1Ev>
 804abda:	8b 45 08             	mov    0x8(%ebp),%eax
 804abdd:	83 c0 3c             	add    $0x3c,%eax
 804abe0:	89 04 24             	mov    %eax,(%esp)
 804abe3:	e8 44 28 00 00       	call   804d42c <_ZN11TiXmlCursorC1Ev>
/home/fabrizio/C++Examples/tinyXml/tinyxml/tinyxml.cpp:878
 804abe8:	8b 45 08             	mov    0x8(%ebp),%eax
 804abeb:	c7 40 38 04 00 00 00 	movl   $0x4,0x38(%eax)
/home/fabrizio/C++Examples/tinyXml/tinyxml/tinyxml.cpp:879
 804abf2:	8b 45 08             	mov    0x8(%ebp),%eax
 804abf5:	c6 40 44 00          	movb   $0x0,0x44(%eax)
/home/fabrizio/C++Examples/tinyXml/tinyxml/tinyxml.cpp:880
 804abf9:	8b 45 08             	mov    0x8(%ebp),%eax
 804abfc:	8d 50 20             	lea    0x20(%eax),%edx
 804abff:	8b 45 0c             	mov    0xc(%ebp),%eax
 804ac02:	89 44 24 04          	mov    %eax,0x4(%esp)
 804ac06:	89 14 24             	mov    %edx,(%esp)
 804ac09:	e8 4a 25 00 00       	call   804d158 <_ZN11TiXmlStringaSEPKc>
/home/fabrizio/C++Examples/tinyXml/tinyxml/tinyxml.cpp:881
 804ac0e:	8b 45 08             	mov    0x8(%ebp),%eax
 804ac11:	89 04 24             	mov    %eax,(%esp)
 804ac14:	e8 a5 2f 00 00       	call   804dbbe <_ZN13TiXmlDocument10ClearErrorEv>
/home/fabrizio/C++Examples/tinyXml/tinyxml/tinyxml.cpp:882
 804ac19:	eb 31                	jmp    804ac4c <_ZN13TiXmlDocumentC2EPKc+0xa4>
 804ac1b:	89 d3                	mov    %edx,%ebx
 804ac1d:	89 c6                	mov    %eax,%esi
 804ac1f:	8b 45 08             	mov    0x8(%ebp),%eax
 804ac22:	83 c0 34             	add    $0x34,%eax
 804ac25:	89 04 24             	mov    %eax,(%esp)
 804ac28:	e8 17 25 00 00       	call   804d144 <_ZN11TiXmlStringD1Ev>
 804ac2d:	89 f0                	mov    %esi,%eax
 804ac2f:	89 da                	mov    %ebx,%edx
 804ac31:	89 d3                	mov    %edx,%ebx
 804ac33:	89 c6                	mov    %eax,%esi
 804ac35:	8b 45 08             	mov    0x8(%ebp),%eax
 804ac38:	89 04 24             	mov    %eax,(%esp)
 804ac3b:	e8 40 e5 ff ff       	call   8049180 <_ZN9TiXmlNodeD2Ev>
 804ac40:	89 f0                	mov    %esi,%eax
 804ac42:	89 da                	mov    %ebx,%edx
 804ac44:	89 04 24             	mov    %eax,(%esp)
 804ac47:	e8 c0 e0 ff ff       	call   8048d0c <_Unwind_Resume@plt>
 804ac4c:	83 c4 10             	add    $0x10,%esp
 804ac4f:	5b                   	pop    %ebx
 804ac50:	5e                   	pop    %esi
 804ac51:	5d                   	pop    %ebp
 804ac52:	c3                   	ret    
_ZN13TiXmlDocumentC2EPKc():
 804ac53:	90                   	nop

0804ac54 <_ZN13TiXmlDocumentC1EPKc>:
TiXmlDocument():
/home/fabrizio/C++Examples/tinyXml/tinyxml/tinyxml.cpp:876
 804ac54:	55                   	push   %ebp
 804ac55:	89 e5                	mov    %esp,%ebp
 804ac57:	56                   	push   %esi
 804ac58:	53                   	push   %ebx
 804ac59:	83 ec 10             	sub    $0x10,%esp
 804ac5c:	8b 45 08             	mov    0x8(%ebp),%eax
 804ac5f:	c7 44 24 04 00 00 00 	movl   $0x0,0x4(%esp)
 804ac66:	00 
 804ac67:	89 04 24             	mov    %eax,(%esp)
 804ac6a:	e8 45 e4 ff ff       	call   80490b4 <_ZN9TiXmlNodeC2ENS_8NodeTypeE>
 804ac6f:	8b 45 08             	mov    0x8(%ebp),%eax
 804ac72:	c7 00 68 77 05 08    	movl   $0x8057768,(%eax)
 804ac78:	8b 45 08             	mov    0x8(%ebp),%eax
 804ac7b:	83 c0 34             	add    $0x34,%eax
 804ac7e:	89 04 24             	mov    %eax,(%esp)
 804ac81:	e8 54 24 00 00       	call   804d0da <_ZN11TiXmlStringC1Ev>
 804ac86:	8b 45 08             	mov    0x8(%ebp),%eax
 804ac89:	83 c0 3c             	add    $0x3c,%eax
 804ac8c:	89 04 24             	mov    %eax,(%esp)
 804ac8f:	e8 98 27 00 00       	call   804d42c <_ZN11TiXmlCursorC1Ev>
/home/fabrizio/C++Examples/tinyXml/tinyxml/tinyxml.cpp:878
 804ac94:	8b 45 08             	mov    0x8(%ebp),%eax
 804ac97:	c7 40 38 04 00 00 00 	movl   $0x4,0x38(%eax)
/home/fabrizio/C++Examples/tinyXml/tinyxml/tinyxml.cpp:879
 804ac9e:	8b 45 08             	mov    0x8(%ebp),%eax
 804aca1:	c6 40 44 00          	movb   $0x0,0x44(%eax)
/home/fabrizio/C++Examples/tinyXml/tinyxml/tinyxml.cpp:880
 804aca5:	8b 45 08             	mov    0x8(%ebp),%eax
 804aca8:	8d 50 20             	lea    0x20(%eax),%edx
 804acab:	8b 45 0c             	mov    0xc(%ebp),%eax
 804acae:	89 44 24 04          	mov    %eax,0x4(%esp)
 804acb2:	89 14 24             	mov    %edx,(%esp)
 804acb5:	e8 9e 24 00 00       	call   804d158 <_ZN11TiXmlStringaSEPKc>
/home/fabrizio/C++Examples/tinyXml/tinyxml/tinyxml.cpp:881
 804acba:	8b 45 08             	mov    0x8(%ebp),%eax
 804acbd:	89 04 24             	mov    %eax,(%esp)
 804acc0:	e8 f9 2e 00 00       	call   804dbbe <_ZN13TiXmlDocument10ClearErrorEv>
/home/fabrizio/C++Examples/tinyXml/tinyxml/tinyxml.cpp:882
 804acc5:	eb 31                	jmp    804acf8 <_ZN13TiXmlDocumentC1EPKc+0xa4>
 804acc7:	89 d3                	mov    %edx,%ebx
 804acc9:	89 c6                	mov    %eax,%esi
 804accb:	8b 45 08             	mov    0x8(%ebp),%eax
 804acce:	83 c0 34             	add    $0x34,%eax
 804acd1:	89 04 24             	mov    %eax,(%esp)
 804acd4:	e8 6b 24 00 00       	call   804d144 <_ZN11TiXmlStringD1Ev>
 804acd9:	89 f0                	mov    %esi,%eax
 804acdb:	89 da                	mov    %ebx,%edx
 804acdd:	89 d3                	mov    %edx,%ebx
 804acdf:	89 c6                	mov    %eax,%esi
 804ace1:	8b 45 08             	mov    0x8(%ebp),%eax
 804ace4:	89 04 24             	mov    %eax,(%esp)
 804ace7:	e8 94 e4 ff ff       	call   8049180 <_ZN9TiXmlNodeD2Ev>
 804acec:	89 f0                	mov    %esi,%eax
 804acee:	89 da                	mov    %ebx,%edx
 804acf0:	89 04 24             	mov    %eax,(%esp)
 804acf3:	e8 14 e0 ff ff       	call   8048d0c <_Unwind_Resume@plt>
 804acf8:	83 c4 10             	add    $0x10,%esp
 804acfb:	5b                   	pop    %ebx
 804acfc:	5e                   	pop    %esi
 804acfd:	5d                   	pop    %ebp
 804acfe:	c3                   	ret    
_ZN13TiXmlDocumentC1EPKc():
 804acff:	90                   	nop

0804ad00 <_ZN13TiXmlDocumentC2ERKS_>:
TiXmlDocument():
/home/fabrizio/C++Examples/tinyXml/tinyxml/tinyxml.cpp:896
 804ad00:	55                   	push   %ebp
 804ad01:	89 e5                	mov    %esp,%ebp
 804ad03:	56                   	push   %esi
 804ad04:	53                   	push   %ebx
 804ad05:	83 ec 10             	sub    $0x10,%esp
 804ad08:	8b 45 08             	mov    0x8(%ebp),%eax
 804ad0b:	c7 44 24 04 00 00 00 	movl   $0x0,0x4(%esp)
 804ad12:	00 
 804ad13:	89 04 24             	mov    %eax,(%esp)
 804ad16:	e8 99 e3 ff ff       	call   80490b4 <_ZN9TiXmlNodeC2ENS_8NodeTypeE>
 804ad1b:	8b 45 08             	mov    0x8(%ebp),%eax
 804ad1e:	c7 00 68 77 05 08    	movl   $0x8057768,(%eax)
 804ad24:	8b 45 08             	mov    0x8(%ebp),%eax
 804ad27:	83 c0 34             	add    $0x34,%eax
 804ad2a:	89 04 24             	mov    %eax,(%esp)
 804ad2d:	e8 a8 23 00 00       	call   804d0da <_ZN11TiXmlStringC1Ev>
 804ad32:	8b 45 08             	mov    0x8(%ebp),%eax
 804ad35:	83 c0 3c             	add    $0x3c,%eax
 804ad38:	89 04 24             	mov    %eax,(%esp)
 804ad3b:	e8 ec 26 00 00       	call   804d42c <_ZN11TiXmlCursorC1Ev>
/home/fabrizio/C++Examples/tinyXml/tinyxml/tinyxml.cpp:898
 804ad40:	8b 45 08             	mov    0x8(%ebp),%eax
 804ad43:	89 44 24 04          	mov    %eax,0x4(%esp)
 804ad47:	8b 45 0c             	mov    0xc(%ebp),%eax
 804ad4a:	89 04 24             	mov    %eax,(%esp)
 804ad4d:	e8 da 05 00 00       	call   804b32c <_ZNK13TiXmlDocument6CopyToEPS_>
/home/fabrizio/C++Examples/tinyXml/tinyxml/tinyxml.cpp:899
 804ad52:	eb 31                	jmp    804ad85 <_ZN13TiXmlDocumentC2ERKS_+0x85>
 804ad54:	89 d3                	mov    %edx,%ebx
 804ad56:	89 c6                	mov    %eax,%esi
 804ad58:	8b 45 08             	mov    0x8(%ebp),%eax
 804ad5b:	83 c0 34             	add    $0x34,%eax
 804ad5e:	89 04 24             	mov    %eax,(%esp)
 804ad61:	e8 de 23 00 00       	call   804d144 <_ZN11TiXmlStringD1Ev>
 804ad66:	89 f0                	mov    %esi,%eax
 804ad68:	89 da                	mov    %ebx,%edx
 804ad6a:	89 d3                	mov    %edx,%ebx
 804ad6c:	89 c6                	mov    %eax,%esi
 804ad6e:	8b 45 08             	mov    0x8(%ebp),%eax
 804ad71:	89 04 24             	mov    %eax,(%esp)
 804ad74:	e8 07 e4 ff ff       	call   8049180 <_ZN9TiXmlNodeD2Ev>
 804ad79:	89 f0                	mov    %esi,%eax
 804ad7b:	89 da                	mov    %ebx,%edx
 804ad7d:	89 04 24             	mov    %eax,(%esp)
 804ad80:	e8 87 df ff ff       	call   8048d0c <_Unwind_Resume@plt>
 804ad85:	83 c4 10             	add    $0x10,%esp
 804ad88:	5b                   	pop    %ebx
 804ad89:	5e                   	pop    %esi
 804ad8a:	5d                   	pop    %ebp
 804ad8b:	c3                   	ret    

0804ad8c <_ZN13TiXmlDocumentC1ERKS_>:
/home/fabrizio/C++Examples/tinyXml/tinyxml/tinyxml.cpp:896
 804ad8c:	55                   	push   %ebp
 804ad8d:	89 e5                	mov    %esp,%ebp
 804ad8f:	56                   	push   %esi
 804ad90:	53                   	push   %ebx
 804ad91:	83 ec 10             	sub    $0x10,%esp
 804ad94:	8b 45 08             	mov    0x8(%ebp),%eax
 804ad97:	c7 44 24 04 00 00 00 	movl   $0x0,0x4(%esp)
 804ad9e:	00 
 804ad9f:	89 04 24             	mov    %eax,(%esp)
 804ada2:	e8 0d e3 ff ff       	call   80490b4 <_ZN9TiXmlNodeC2ENS_8NodeTypeE>
 804ada7:	8b 45 08             	mov    0x8(%ebp),%eax
 804adaa:	c7 00 68 77 05 08    	movl   $0x8057768,(%eax)
 804adb0:	8b 45 08             	mov    0x8(%ebp),%eax
 804adb3:	83 c0 34             	add    $0x34,%eax
 804adb6:	89 04 24             	mov    %eax,(%esp)
 804adb9:	e8 1c 23 00 00       	call   804d0da <_ZN11TiXmlStringC1Ev>
 804adbe:	8b 45 08             	mov    0x8(%ebp),%eax
 804adc1:	83 c0 3c             	add    $0x3c,%eax
 804adc4:	89 04 24             	mov    %eax,(%esp)
 804adc7:	e8 60 26 00 00       	call   804d42c <_ZN11TiXmlCursorC1Ev>
/home/fabrizio/C++Examples/tinyXml/tinyxml/tinyxml.cpp:898
 804adcc:	8b 45 08             	mov    0x8(%ebp),%eax
 804adcf:	89 44 24 04          	mov    %eax,0x4(%esp)
 804add3:	8b 45 0c             	mov    0xc(%ebp),%eax
 804add6:	89 04 24             	mov    %eax,(%esp)
 804add9:	e8 4e 05 00 00       	call   804b32c <_ZNK13TiXmlDocument6CopyToEPS_>
/home/fabrizio/C++Examples/tinyXml/tinyxml/tinyxml.cpp:899
 804adde:	eb 31                	jmp    804ae11 <_ZN13TiXmlDocumentC1ERKS_+0x85>
 804ade0:	89 d3                	mov    %edx,%ebx
 804ade2:	89 c6                	mov    %eax,%esi
 804ade4:	8b 45 08             	mov    0x8(%ebp),%eax
 804ade7:	83 c0 34             	add    $0x34,%eax
 804adea:	89 04 24             	mov    %eax,(%esp)
 804aded:	e8 52 23 00 00       	call   804d144 <_ZN11TiXmlStringD1Ev>
 804adf2:	89 f0                	mov    %esi,%eax
 804adf4:	89 da                	mov    %ebx,%edx
 804adf6:	89 d3                	mov    %edx,%ebx
 804adf8:	89 c6                	mov    %eax,%esi
 804adfa:	8b 45 08             	mov    0x8(%ebp),%eax
 804adfd:	89 04 24             	mov    %eax,(%esp)
 804ae00:	e8 7b e3 ff ff       	call   8049180 <_ZN9TiXmlNodeD2Ev>
 804ae05:	89 f0                	mov    %esi,%eax
 804ae07:	89 da                	mov    %ebx,%edx
 804ae09:	89 04 24             	mov    %eax,(%esp)
 804ae0c:	e8 fb de ff ff       	call   8048d0c <_Unwind_Resume@plt>
 804ae11:	83 c4 10             	add    $0x10,%esp
 804ae14:	5b                   	pop    %ebx
 804ae15:	5e                   	pop    %esi
 804ae16:	5d                   	pop    %ebp
 804ae17:	c3                   	ret    

0804ae18 <_ZN13TiXmlDocumentaSERKS_>:
_ZN13TiXmlDocumentaSERKS_():
/home/fabrizio/C++Examples/tinyXml/tinyxml/tinyxml.cpp:903
 804ae18:	55                   	push   %ebp
 804ae19:	89 e5                	mov    %esp,%ebp
 804ae1b:	83 ec 18             	sub    $0x18,%esp
/home/fabrizio/C++Examples/tinyXml/tinyxml/tinyxml.cpp:904
 804ae1e:	8b 45 08             	mov    0x8(%ebp),%eax
 804ae21:	89 04 24             	mov    %eax,(%esp)
 804ae24:	e8 cf e5 ff ff       	call   80493f8 <_ZN9TiXmlNode5ClearEv>
/home/fabrizio/C++Examples/tinyXml/tinyxml/tinyxml.cpp:905
 804ae29:	8b 45 08             	mov    0x8(%ebp),%eax
 804ae2c:	89 44 24 04          	mov    %eax,0x4(%esp)
 804ae30:	8b 45 0c             	mov    0xc(%ebp),%eax
 804ae33:	89 04 24             	mov    %eax,(%esp)
 804ae36:	e8 f1 04 00 00       	call   804b32c <_ZNK13TiXmlDocument6CopyToEPS_>
/home/fabrizio/C++Examples/tinyXml/tinyxml/tinyxml.cpp:906
 804ae3b:	c9                   	leave  
 804ae3c:	c3                   	ret    
 804ae3d:	90                   	nop

0804ae3e <_ZN13TiXmlDocument8LoadFileE13TiXmlEncoding>:
_ZN13TiXmlDocument8LoadFileE13TiXmlEncoding():
/home/fabrizio/C++Examples/tinyXml/tinyxml/tinyxml.cpp:910
 804ae3e:	55                   	push   %ebp
 804ae3f:	89 e5                	mov    %esp,%ebp
 804ae41:	83 ec 18             	sub    $0x18,%esp
/home/fabrizio/C++Examples/tinyXml/tinyxml/tinyxml.cpp:911
 804ae44:	8b 45 08             	mov    0x8(%ebp),%eax
 804ae47:	89 04 24             	mov    %eax,(%esp)
 804ae4a:	e8 69 27 00 00       	call   804d5b8 <_ZNK9TiXmlNode5ValueEv>
 804ae4f:	8b 55 0c             	mov    0xc(%ebp),%edx
 804ae52:	89 54 24 08          	mov    %edx,0x8(%esp)
 804ae56:	89 44 24 04          	mov    %eax,0x4(%esp)
 804ae5a:	8b 45 08             	mov    0x8(%ebp),%eax
 804ae5d:	89 04 24             	mov    %eax,(%esp)
 804ae60:	e8 25 00 00 00       	call   804ae8a <_ZN13TiXmlDocument8LoadFileEPKc13TiXmlEncoding>
/home/fabrizio/C++Examples/tinyXml/tinyxml/tinyxml.cpp:912
 804ae65:	c9                   	leave  
 804ae66:	c3                   	ret    
 804ae67:	90                   	nop

0804ae68 <_ZNK13TiXmlDocument8SaveFileEv>:
_ZNK13TiXmlDocument8SaveFileEv():
/home/fabrizio/C++Examples/tinyXml/tinyxml/tinyxml.cpp:916
 804ae68:	55                   	push   %ebp
 804ae69:	89 e5                	mov    %esp,%ebp
 804ae6b:	83 ec 18             	sub    $0x18,%esp
/home/fabrizio/C++Examples/tinyXml/tinyxml/tinyxml.cpp:917
 804ae6e:	8b 45 08             	mov    0x8(%ebp),%eax
 804ae71:	89 04 24             	mov    %eax,(%esp)
 804ae74:	e8 3f 27 00 00       	call   804d5b8 <_ZNK9TiXmlNode5ValueEv>
 804ae79:	89 44 24 04          	mov    %eax,0x4(%esp)
 804ae7d:	8b 45 08             	mov    0x8(%ebp),%eax
 804ae80:	89 04 24             	mov    %eax,(%esp)
 804ae83:	e8 ca 03 00 00       	call   804b252 <_ZNK13TiXmlDocument8SaveFileEPKc>
/home/fabrizio/C++Examples/tinyXml/tinyxml/tinyxml.cpp:918
 804ae88:	c9                   	leave  
 804ae89:	c3                   	ret    

0804ae8a <_ZN13TiXmlDocument8LoadFileEPKc13TiXmlEncoding>:
_ZN13TiXmlDocument8LoadFileEPKc13TiXmlEncoding():
/home/fabrizio/C++Examples/tinyXml/tinyxml/tinyxml.cpp:921
 804ae8a:	55                   	push   %ebp
 804ae8b:	89 e5                	mov    %esp,%ebp
 804ae8d:	56                   	push   %esi
 804ae8e:	53                   	push   %ebx
 804ae8f:	83 ec 30             	sub    $0x30,%esp
/home/fabrizio/C++Examples/tinyXml/tinyxml/tinyxml.cpp:922
 804ae92:	8b 45 0c             	mov    0xc(%ebp),%eax
 804ae95:	89 44 24 04          	mov    %eax,0x4(%esp)
 804ae99:	8d 45 f0             	lea    -0x10(%ebp),%eax
 804ae9c:	89 04 24             	mov    %eax,(%esp)
 804ae9f:	e8 44 22 00 00       	call   804d0e8 <_ZN11TiXmlStringC1EPKc>
/home/fabrizio/C++Examples/tinyXml/tinyxml/tinyxml.cpp:923
 804aea4:	8b 45 08             	mov    0x8(%ebp),%eax
 804aea7:	8d 50 20             	lea    0x20(%eax),%edx
 804aeaa:	8d 45 f0             	lea    -0x10(%ebp),%eax
 804aead:	89 44 24 04          	mov    %eax,0x4(%esp)
 804aeb1:	89 14 24             	mov    %edx,(%esp)
 804aeb4:	e8 c9 22 00 00       	call   804d182 <_ZN11TiXmlStringaSERKS_>
/home/fabrizio/C++Examples/tinyXml/tinyxml/tinyxml.cpp:926
 804aeb9:	8b 45 08             	mov    0x8(%ebp),%eax
 804aebc:	83 c0 20             	add    $0x20,%eax
 804aebf:	89 04 24             	mov    %eax,(%esp)
 804aec2:	e8 7d 23 00 00       	call   804d244 <_ZNK11TiXmlString5c_strEv>
 804aec7:	c7 44 24 04 4b 65 05 	movl   $0x805654b,0x4(%esp)
 804aece:	08 
 804aecf:	89 04 24             	mov    %eax,(%esp)
 804aed2:	e8 3d df ff ff       	call   8048e14 <_Z10TiXmlFOpenPKcS0_>
 804aed7:	89 45 ec             	mov    %eax,-0x14(%ebp)
/home/fabrizio/C++Examples/tinyXml/tinyxml/tinyxml.cpp:928
 804aeda:	83 7d ec 00          	cmpl   $0x0,-0x14(%ebp)
 804aede:	74 2d                	je     804af0d <_ZN13TiXmlDocument8LoadFileEPKc13TiXmlEncoding+0x83>
/home/fabrizio/C++Examples/tinyXml/tinyxml/tinyxml.cpp:930
 804aee0:	8b 45 10             	mov    0x10(%ebp),%eax
 804aee3:	89 44 24 08          	mov    %eax,0x8(%esp)
 804aee7:	8b 45 ec             	mov    -0x14(%ebp),%eax
 804aeea:	89 44 24 04          	mov    %eax,0x4(%esp)
 804aeee:	8b 45 08             	mov    0x8(%ebp),%eax
 804aef1:	89 04 24             	mov    %eax,(%esp)
 804aef4:	e8 75 00 00 00       	call   804af6e <_ZN13TiXmlDocument8LoadFileEP8_IO_FILE13TiXmlEncoding>
 804aef9:	88 45 f7             	mov    %al,-0x9(%ebp)
/home/fabrizio/C++Examples/tinyXml/tinyxml/tinyxml.cpp:931
 804aefc:	8b 45 ec             	mov    -0x14(%ebp),%eax
 804aeff:	89 04 24             	mov    %eax,(%esp)
 804af02:	e8 75 dc ff ff       	call   8048b7c <fclose@plt>
/home/fabrizio/C++Examples/tinyXml/tinyxml/tinyxml.cpp:932
 804af07:	0f b6 5d f7          	movzbl -0x9(%ebp),%ebx
 804af0b:	eb 4d                	jmp    804af5a <_ZN13TiXmlDocument8LoadFileEPKc13TiXmlEncoding+0xd0>
/home/fabrizio/C++Examples/tinyXml/tinyxml/tinyxml.cpp:936
 804af0d:	c7 44 24 10 00 00 00 	movl   $0x0,0x10(%esp)
 804af14:	00 
 804af15:	c7 44 24 0c 00 00 00 	movl   $0x0,0xc(%esp)
 804af1c:	00 
 804af1d:	c7 44 24 08 00 00 00 	movl   $0x0,0x8(%esp)
 804af24:	00 
 804af25:	c7 44 24 04 02 00 00 	movl   $0x2,0x4(%esp)
 804af2c:	00 
 804af2d:	8b 45 08             	mov    0x8(%ebp),%eax
 804af30:	89 04 24             	mov    %eax,(%esp)
 804af33:	e8 9e 3f 00 00       	call   804eed6 <_ZN13TiXmlDocument8SetErrorEiPKcP16TiXmlParsingData13TiXmlEncoding>
/home/fabrizio/C++Examples/tinyXml/tinyxml/tinyxml.cpp:937
 804af38:	bb 00 00 00 00       	mov    $0x0,%ebx
 804af3d:	eb 1b                	jmp    804af5a <_ZN13TiXmlDocument8LoadFileEPKc13TiXmlEncoding+0xd0>
 804af3f:	89 d3                	mov    %edx,%ebx
 804af41:	89 c6                	mov    %eax,%esi
/home/fabrizio/C++Examples/tinyXml/tinyxml/tinyxml.cpp:938
 804af43:	8d 45 f0             	lea    -0x10(%ebp),%eax
 804af46:	89 04 24             	mov    %eax,(%esp)
 804af49:	e8 f6 21 00 00       	call   804d144 <_ZN11TiXmlStringD1Ev>
 804af4e:	89 f0                	mov    %esi,%eax
 804af50:	89 da                	mov    %ebx,%edx
 804af52:	89 04 24             	mov    %eax,(%esp)
 804af55:	e8 b2 dd ff ff       	call   8048d0c <_Unwind_Resume@plt>
 804af5a:	8d 45 f0             	lea    -0x10(%ebp),%eax
 804af5d:	89 04 24             	mov    %eax,(%esp)
 804af60:	e8 df 21 00 00       	call   804d144 <_ZN11TiXmlStringD1Ev>
 804af65:	89 d8                	mov    %ebx,%eax
/home/fabrizio/C++Examples/tinyXml/tinyxml/tinyxml.cpp:939
 804af67:	83 c4 30             	add    $0x30,%esp
 804af6a:	5b                   	pop    %ebx
 804af6b:	5e                   	pop    %esi
 804af6c:	5d                   	pop    %ebp
 804af6d:	c3                   	ret    

0804af6e <_ZN13TiXmlDocument8LoadFileEP8_IO_FILE13TiXmlEncoding>:
_ZN13TiXmlDocument8LoadFileEP8_IO_FILE13TiXmlEncoding():
/home/fabrizio/C++Examples/tinyXml/tinyxml/tinyxml.cpp:942
 804af6e:	55                   	push   %ebp
 804af6f:	89 e5                	mov    %esp,%ebp
 804af71:	83 ec 48             	sub    $0x48,%esp
/home/fabrizio/C++Examples/tinyXml/tinyxml/tinyxml.cpp:943
 804af74:	83 7d 0c 00          	cmpl   $0x0,0xc(%ebp)
 804af78:	75 35                	jne    804afaf <_ZN13TiXmlDocument8LoadFileEP8_IO_FILE13TiXmlEncoding+0x41>
/home/fabrizio/C++Examples/tinyXml/tinyxml/tinyxml.cpp:945
 804af7a:	c7 44 24 10 00 00 00 	movl   $0x0,0x10(%esp)
 804af81:	00 
 804af82:	c7 44 24 0c 00 00 00 	movl   $0x0,0xc(%esp)
 804af89:	00 
 804af8a:	c7 44 24 08 00 00 00 	movl   $0x0,0x8(%esp)
 804af91:	00 
 804af92:	c7 44 24 04 02 00 00 	movl   $0x2,0x4(%esp)
 804af99:	00 
 804af9a:	8b 45 08             	mov    0x8(%ebp),%eax
 804af9d:	89 04 24             	mov    %eax,(%esp)
 804afa0:	e8 31 3f 00 00       	call   804eed6 <_ZN13TiXmlDocument8SetErrorEiPKcP16TiXmlParsingData13TiXmlEncoding>
/home/fabrizio/C++Examples/tinyXml/tinyxml/tinyxml.cpp:946
 804afa5:	b8 00 00 00 00       	mov    $0x0,%eax
 804afaa:	e9 a0 02 00 00       	jmp    804b24f <_ZN13TiXmlDocument8LoadFileEP8_IO_FILE13TiXmlEncoding+0x2e1>
/home/fabrizio/C++Examples/tinyXml/tinyxml/tinyxml.cpp:950
 804afaf:	8b 45 08             	mov    0x8(%ebp),%eax
 804afb2:	89 04 24             	mov    %eax,(%esp)
 804afb5:	e8 3e e4 ff ff       	call   80493f8 <_ZN9TiXmlNode5ClearEv>
/home/fabrizio/C++Examples/tinyXml/tinyxml/tinyxml.cpp:951
 804afba:	8b 45 08             	mov    0x8(%ebp),%eax
 804afbd:	83 c0 04             	add    $0x4,%eax
 804afc0:	89 04 24             	mov    %eax,(%esp)
 804afc3:	e8 78 24 00 00       	call   804d440 <_ZN11TiXmlCursor5ClearEv>
/home/fabrizio/C++Examples/tinyXml/tinyxml/tinyxml.cpp:954
 804afc8:	c7 45 f0 00 00 00 00 	movl   $0x0,-0x10(%ebp)
/home/fabrizio/C++Examples/tinyXml/tinyxml/tinyxml.cpp:955
 804afcf:	c7 44 24 08 02 00 00 	movl   $0x2,0x8(%esp)
 804afd6:	00 
 804afd7:	c7 44 24 04 00 00 00 	movl   $0x0,0x4(%esp)
 804afde:	00 
 804afdf:	8b 45 0c             	mov    0xc(%ebp),%eax
 804afe2:	89 04 24             	mov    %eax,(%esp)
 804afe5:	e8 82 db ff ff       	call   8048b6c <fseek@plt>
/home/fabrizio/C++Examples/tinyXml/tinyxml/tinyxml.cpp:956
 804afea:	8b 45 0c             	mov    0xc(%ebp),%eax
 804afed:	89 04 24             	mov    %eax,(%esp)
 804aff0:	e8 d7 db ff ff       	call   8048bcc <ftell@plt>
 804aff5:	89 45 f0             	mov    %eax,-0x10(%ebp)
/home/fabrizio/C++Examples/tinyXml/tinyxml/tinyxml.cpp:957
 804aff8:	c7 44 24 08 00 00 00 	movl   $0x0,0x8(%esp)
 804afff:	00 
 804b000:	c7 44 24 04 00 00 00 	movl   $0x0,0x4(%esp)
 804b007:	00 
 804b008:	8b 45 0c             	mov    0xc(%ebp),%eax
 804b00b:	89 04 24             	mov    %eax,(%esp)
 804b00e:	e8 59 db ff ff       	call   8048b6c <fseek@plt>
/home/fabrizio/C++Examples/tinyXml/tinyxml/tinyxml.cpp:960
 804b013:	83 7d f0 00          	cmpl   $0x0,-0x10(%ebp)
 804b017:	7f 35                	jg     804b04e <_ZN13TiXmlDocument8LoadFileEP8_IO_FILE13TiXmlEncoding+0xe0>
/home/fabrizio/C++Examples/tinyXml/tinyxml/tinyxml.cpp:962
 804b019:	c7 44 24 10 00 00 00 	movl   $0x0,0x10(%esp)
 804b020:	00 
 804b021:	c7 44 24 0c 00 00 00 	movl   $0x0,0xc(%esp)
 804b028:	00 
 804b029:	c7 44 24 08 00 00 00 	movl   $0x0,0x8(%esp)
 804b030:	00 
 804b031:	c7 44 24 04 0c 00 00 	movl   $0xc,0x4(%esp)
 804b038:	00 
 804b039:	8b 45 08             	mov    0x8(%ebp),%eax
 804b03c:	89 04 24             	mov    %eax,(%esp)
 804b03f:	e8 92 3e 00 00       	call   804eed6 <_ZN13TiXmlDocument8SetErrorEiPKcP16TiXmlParsingData13TiXmlEncoding>
/home/fabrizio/C++Examples/tinyXml/tinyxml/tinyxml.cpp:963
 804b044:	b8 00 00 00 00       	mov    $0x0,%eax
 804b049:	e9 01 02 00 00       	jmp    804b24f <_ZN13TiXmlDocument8LoadFileEP8_IO_FILE13TiXmlEncoding+0x2e1>
/home/fabrizio/C++Examples/tinyXml/tinyxml/tinyxml.cpp:987
 804b04e:	8b 45 f0             	mov    -0x10(%ebp),%eax
 804b051:	83 c0 01             	add    $0x1,%eax
 804b054:	89 04 24             	mov    %eax,(%esp)
 804b057:	e8 e0 db ff ff       	call   8048c3c <_Znaj@plt>
 804b05c:	89 45 ec             	mov    %eax,-0x14(%ebp)
/home/fabrizio/C++Examples/tinyXml/tinyxml/tinyxml.cpp:988
 804b05f:	8b 45 ec             	mov    -0x14(%ebp),%eax
 804b062:	c6 00 00             	movb   $0x0,(%eax)
/home/fabrizio/C++Examples/tinyXml/tinyxml/tinyxml.cpp:990
 804b065:	8b 45 f0             	mov    -0x10(%ebp),%eax
 804b068:	8b 55 0c             	mov    0xc(%ebp),%edx
 804b06b:	89 54 24 0c          	mov    %edx,0xc(%esp)
 804b06f:	c7 44 24 08 01 00 00 	movl   $0x1,0x8(%esp)
 804b076:	00 
 804b077:	89 44 24 04          	mov    %eax,0x4(%esp)
 804b07b:	8b 45 ec             	mov    -0x14(%ebp),%eax
 804b07e:	89 04 24             	mov    %eax,(%esp)
 804b081:	e8 56 dc ff ff       	call   8048cdc <fread@plt>
 804b086:	83 f8 01             	cmp    $0x1,%eax
 804b089:	0f 95 c0             	setne  %al
 804b08c:	84 c0                	test   %al,%al
 804b08e:	74 46                	je     804b0d6 <_ZN13TiXmlDocument8LoadFileEP8_IO_FILE13TiXmlEncoding+0x168>
/home/fabrizio/C++Examples/tinyXml/tinyxml/tinyxml.cpp:991
 804b090:	83 7d ec 00          	cmpl   $0x0,-0x14(%ebp)
 804b094:	74 0b                	je     804b0a1 <_ZN13TiXmlDocument8LoadFileEP8_IO_FILE13TiXmlEncoding+0x133>
 804b096:	8b 45 ec             	mov    -0x14(%ebp),%eax
 804b099:	89 04 24             	mov    %eax,(%esp)
 804b09c:	e8 fb db ff ff       	call   8048c9c <_ZdaPv@plt>
/home/fabrizio/C++Examples/tinyXml/tinyxml/tinyxml.cpp:992
 804b0a1:	c7 44 24 10 00 00 00 	movl   $0x0,0x10(%esp)
 804b0a8:	00 
 804b0a9:	c7 44 24 0c 00 00 00 	movl   $0x0,0xc(%esp)
 804b0b0:	00 
 804b0b1:	c7 44 24 08 00 00 00 	movl   $0x0,0x8(%esp)
 804b0b8:	00 
 804b0b9:	c7 44 24 04 02 00 00 	movl   $0x2,0x4(%esp)
 804b0c0:	00 
 804b0c1:	8b 45 08             	mov    0x8(%ebp),%eax
 804b0c4:	89 04 24             	mov    %eax,(%esp)
 804b0c7:	e8 0a 3e 00 00       	call   804eed6 <_ZN13TiXmlDocument8SetErrorEiPKcP16TiXmlParsingData13TiXmlEncoding>
/home/fabrizio/C++Examples/tinyXml/tinyxml/tinyxml.cpp:993
 804b0cc:	b8 00 00 00 00       	mov    $0x0,%eax
 804b0d1:	e9 79 01 00 00       	jmp    804b24f <_ZN13TiXmlDocument8LoadFileEP8_IO_FILE13TiXmlEncoding+0x2e1>
/home/fabrizio/C++Examples/tinyXml/tinyxml/tinyxml.cpp:1007
 804b0d6:	8b 45 ec             	mov    -0x14(%ebp),%eax
 804b0d9:	89 45 e8             	mov    %eax,-0x18(%ebp)
/home/fabrizio/C++Examples/tinyXml/tinyxml/tinyxml.cpp:1008
 804b0dc:	8b 45 ec             	mov    -0x14(%ebp),%eax
 804b0df:	89 45 e4             	mov    %eax,-0x1c(%ebp)
/home/fabrizio/C++Examples/tinyXml/tinyxml/tinyxml.cpp:1009
 804b0e2:	c6 45 f7 0d          	movb   $0xd,-0x9(%ebp)
/home/fabrizio/C++Examples/tinyXml/tinyxml/tinyxml.cpp:1010
 804b0e6:	c6 45 f6 0a          	movb   $0xa,-0xa(%ebp)
/home/fabrizio/C++Examples/tinyXml/tinyxml/tinyxml.cpp:1012
 804b0ea:	8b 45 f0             	mov    -0x10(%ebp),%eax
 804b0ed:	03 45 ec             	add    -0x14(%ebp),%eax
 804b0f0:	c6 00 00             	movb   $0x0,(%eax)
/home/fabrizio/C++Examples/tinyXml/tinyxml/tinyxml.cpp:1013
 804b0f3:	e9 c8 00 00 00       	jmp    804b1c0 <_ZN13TiXmlDocument8LoadFileEP8_IO_FILE13TiXmlEncoding+0x252>
/home/fabrizio/C++Examples/tinyXml/tinyxml/tinyxml.cpp:1014
 804b0f8:	8b 45 f0             	mov    -0x10(%ebp),%eax
 804b0fb:	03 45 ec             	add    -0x14(%ebp),%eax
 804b0fe:	3b 45 e8             	cmp    -0x18(%ebp),%eax
 804b101:	77 24                	ja     804b127 <_ZN13TiXmlDocument8LoadFileEP8_IO_FILE13TiXmlEncoding+0x1b9>
 804b103:	c7 44 24 0c 20 68 05 	movl   $0x8056820,0xc(%esp)
 804b10a:	08 
 804b10b:	c7 44 24 08 f6 03 00 	movl   $0x3f6,0x8(%esp)
 804b112:	00 
 804b113:	c7 44 24 04 65 64 05 	movl   $0x8056465,0x4(%esp)
 804b11a:	08 
 804b11b:	c7 04 24 4e 65 05 08 	movl   $0x805654e,(%esp)
 804b122:	e8 35 da ff ff       	call   8048b5c <__assert_fail@plt>
/home/fabrizio/C++Examples/tinyXml/tinyxml/tinyxml.cpp:1015
 804b127:	8b 45 f0             	mov    -0x10(%ebp),%eax
 804b12a:	03 45 ec             	add    -0x14(%ebp),%eax
 804b12d:	3b 45 e4             	cmp    -0x1c(%ebp),%eax
 804b130:	73 24                	jae    804b156 <_ZN13TiXmlDocument8LoadFileEP8_IO_FILE13TiXmlEncoding+0x1e8>
 804b132:	c7 44 24 0c 20 68 05 	movl   $0x8056820,0xc(%esp)
 804b139:	08 
 804b13a:	c7 44 24 08 f7 03 00 	movl   $0x3f7,0x8(%esp)
 804b141:	00 
 804b142:	c7 44 24 04 65 64 05 	movl   $0x8056465,0x4(%esp)
 804b149:	08 
 804b14a:	c7 04 24 5f 65 05 08 	movl   $0x805655f,(%esp)
 804b151:	e8 06 da ff ff       	call   8048b5c <__assert_fail@plt>
/home/fabrizio/C++Examples/tinyXml/tinyxml/tinyxml.cpp:1016
 804b156:	8b 45 e4             	mov    -0x1c(%ebp),%eax
 804b159:	3b 45 e8             	cmp    -0x18(%ebp),%eax
 804b15c:	76 24                	jbe    804b182 <_ZN13TiXmlDocument8LoadFileEP8_IO_FILE13TiXmlEncoding+0x214>
 804b15e:	c7 44 24 0c 20 68 05 	movl   $0x8056820,0xc(%esp)
 804b165:	08 
 804b166:	c7 44 24 08 f8 03 00 	movl   $0x3f8,0x8(%esp)
 804b16d:	00 
 804b16e:	c7 44 24 04 65 64 05 	movl   $0x8056465,0x4(%esp)
 804b175:	08 
 804b176:	c7 04 24 71 65 05 08 	movl   $0x8056571,(%esp)
 804b17d:	e8 da d9 ff ff       	call   8048b5c <__assert_fail@plt>
/home/fabrizio/C++Examples/tinyXml/tinyxml/tinyxml.cpp:1018
 804b182:	8b 45 e8             	mov    -0x18(%ebp),%eax
 804b185:	0f b6 00             	movzbl (%eax),%eax
 804b188:	3c 0d                	cmp    $0xd,%al
 804b18a:	75 1e                	jne    804b1aa <_ZN13TiXmlDocument8LoadFileEP8_IO_FILE13TiXmlEncoding+0x23c>
/home/fabrizio/C++Examples/tinyXml/tinyxml/tinyxml.cpp:1019
 804b18c:	8b 45 e4             	mov    -0x1c(%ebp),%eax
 804b18f:	c6 00 0a             	movb   $0xa,(%eax)
 804b192:	83 45 e4 01          	addl   $0x1,-0x1c(%ebp)
/home/fabrizio/C++Examples/tinyXml/tinyxml/tinyxml.cpp:1020
 804b196:	83 45 e8 01          	addl   $0x1,-0x18(%ebp)
/home/fabrizio/C++Examples/tinyXml/tinyxml/tinyxml.cpp:1021
 804b19a:	8b 45 e8             	mov    -0x18(%ebp),%eax
 804b19d:	0f b6 00             	movzbl (%eax),%eax
 804b1a0:	3c 0a                	cmp    $0xa,%al
 804b1a2:	75 1b                	jne    804b1bf <_ZN13TiXmlDocument8LoadFileEP8_IO_FILE13TiXmlEncoding+0x251>
/home/fabrizio/C++Examples/tinyXml/tinyxml/tinyxml.cpp:1022
 804b1a4:	83 45 e8 01          	addl   $0x1,-0x18(%ebp)
 804b1a8:	eb 16                	jmp    804b1c0 <_ZN13TiXmlDocument8LoadFileEP8_IO_FILE13TiXmlEncoding+0x252>
/home/fabrizio/C++Examples/tinyXml/tinyxml/tinyxml.cpp:1026
 804b1aa:	8b 45 e8             	mov    -0x18(%ebp),%eax
 804b1ad:	0f b6 10             	movzbl (%eax),%edx
 804b1b0:	8b 45 e4             	mov    -0x1c(%ebp),%eax
 804b1b3:	88 10                	mov    %dl,(%eax)
 804b1b5:	83 45 e4 01          	addl   $0x1,-0x1c(%ebp)
 804b1b9:	83 45 e8 01          	addl   $0x1,-0x18(%ebp)
 804b1bd:	eb 01                	jmp    804b1c0 <_ZN13TiXmlDocument8LoadFileEP8_IO_FILE13TiXmlEncoding+0x252>
/home/fabrizio/C++Examples/tinyXml/tinyxml/tinyxml.cpp:1022
 804b1bf:	90                   	nop
/home/fabrizio/C++Examples/tinyXml/tinyxml/tinyxml.cpp:1013
 804b1c0:	8b 45 e8             	mov    -0x18(%ebp),%eax
 804b1c3:	0f b6 00             	movzbl (%eax),%eax
 804b1c6:	84 c0                	test   %al,%al
 804b1c8:	0f 95 c0             	setne  %al
 804b1cb:	84 c0                	test   %al,%al
 804b1cd:	0f 85 25 ff ff ff    	jne    804b0f8 <_ZN13TiXmlDocument8LoadFileEP8_IO_FILE13TiXmlEncoding+0x18a>
/home/fabrizio/C++Examples/tinyXml/tinyxml/tinyxml.cpp:1029
 804b1d3:	8b 45 f0             	mov    -0x10(%ebp),%eax
 804b1d6:	03 45 ec             	add    -0x14(%ebp),%eax
 804b1d9:	3b 45 e4             	cmp    -0x1c(%ebp),%eax
 804b1dc:	73 24                	jae    804b202 <_ZN13TiXmlDocument8LoadFileEP8_IO_FILE13TiXmlEncoding+0x294>
 804b1de:	c7 44 24 0c 20 68 05 	movl   $0x8056820,0xc(%esp)
 804b1e5:	08 
 804b1e6:	c7 44 24 08 05 04 00 	movl   $0x405,0x8(%esp)
 804b1ed:	00 
 804b1ee:	c7 44 24 04 65 64 05 	movl   $0x8056465,0x4(%esp)
 804b1f5:	08 
 804b1f6:	c7 04 24 5f 65 05 08 	movl   $0x805655f,(%esp)
 804b1fd:	e8 5a d9 ff ff       	call   8048b5c <__assert_fail@plt>
/home/fabrizio/C++Examples/tinyXml/tinyxml/tinyxml.cpp:1030
 804b202:	8b 45 e4             	mov    -0x1c(%ebp),%eax
 804b205:	c6 00 00             	movb   $0x0,(%eax)
/home/fabrizio/C++Examples/tinyXml/tinyxml/tinyxml.cpp:1032
 804b208:	8b 45 08             	mov    0x8(%ebp),%eax
 804b20b:	8b 00                	mov    (%eax),%eax
 804b20d:	83 c0 0c             	add    $0xc,%eax
 804b210:	8b 10                	mov    (%eax),%edx
 804b212:	8b 45 10             	mov    0x10(%ebp),%eax
 804b215:	89 44 24 0c          	mov    %eax,0xc(%esp)
 804b219:	c7 44 24 08 00 00 00 	movl   $0x0,0x8(%esp)
 804b220:	00 
 804b221:	8b 45 ec             	mov    -0x14(%ebp),%eax
 804b224:	89 44 24 04          	mov    %eax,0x4(%esp)
 804b228:	8b 45 08             	mov    0x8(%ebp),%eax
 804b22b:	89 04 24             	mov    %eax,(%esp)
 804b22e:	ff d2                	call   *%edx
/home/fabrizio/C++Examples/tinyXml/tinyxml/tinyxml.cpp:1034
 804b230:	83 7d ec 00          	cmpl   $0x0,-0x14(%ebp)
 804b234:	74 0b                	je     804b241 <_ZN13TiXmlDocument8LoadFileEP8_IO_FILE13TiXmlEncoding+0x2d3>
 804b236:	8b 45 ec             	mov    -0x14(%ebp),%eax
 804b239:	89 04 24             	mov    %eax,(%esp)
 804b23c:	e8 5b da ff ff       	call   8048c9c <_ZdaPv@plt>
/home/fabrizio/C++Examples/tinyXml/tinyxml/tinyxml.cpp:1035
 804b241:	8b 45 08             	mov    0x8(%ebp),%eax
 804b244:	89 04 24             	mov    %eax,(%esp)
 804b247:	e8 66 29 00 00       	call   804dbb2 <_ZNK13TiXmlDocument5ErrorEv>
 804b24c:	83 f0 01             	xor    $0x1,%eax
/home/fabrizio/C++Examples/tinyXml/tinyxml/tinyxml.cpp:1036
 804b24f:	c9                   	leave  
 804b250:	c3                   	ret    
 804b251:	90                   	nop

0804b252 <_ZNK13TiXmlDocument8SaveFileEPKc>:
_ZNK13TiXmlDocument8SaveFileEPKc():
/home/fabrizio/C++Examples/tinyXml/tinyxml/tinyxml.cpp:1040
 804b252:	55                   	push   %ebp
 804b253:	89 e5                	mov    %esp,%ebp
 804b255:	83 ec 28             	sub    $0x28,%esp
/home/fabrizio/C++Examples/tinyXml/tinyxml/tinyxml.cpp:1042
 804b258:	c7 44 24 04 78 65 05 	movl   $0x8056578,0x4(%esp)
 804b25f:	08 
 804b260:	8b 45 0c             	mov    0xc(%ebp),%eax
 804b263:	89 04 24             	mov    %eax,(%esp)
 804b266:	e8 a9 db ff ff       	call   8048e14 <_Z10TiXmlFOpenPKcS0_>
 804b26b:	89 45 f0             	mov    %eax,-0x10(%ebp)
/home/fabrizio/C++Examples/tinyXml/tinyxml/tinyxml.cpp:1043
 804b26e:	83 7d f0 00          	cmpl   $0x0,-0x10(%ebp)
 804b272:	74 26                	je     804b29a <_ZNK13TiXmlDocument8SaveFileEPKc+0x48>
/home/fabrizio/C++Examples/tinyXml/tinyxml/tinyxml.cpp:1045
 804b274:	8b 45 f0             	mov    -0x10(%ebp),%eax
 804b277:	89 44 24 04          	mov    %eax,0x4(%esp)
 804b27b:	8b 45 08             	mov    0x8(%ebp),%eax
 804b27e:	89 04 24             	mov    %eax,(%esp)
 804b281:	e8 1c 00 00 00       	call   804b2a2 <_ZNK13TiXmlDocument8SaveFileEP8_IO_FILE>
 804b286:	88 45 f7             	mov    %al,-0x9(%ebp)
/home/fabrizio/C++Examples/tinyXml/tinyxml/tinyxml.cpp:1046
 804b289:	8b 45 f0             	mov    -0x10(%ebp),%eax
 804b28c:	89 04 24             	mov    %eax,(%esp)
 804b28f:	e8 e8 d8 ff ff       	call   8048b7c <fclose@plt>
/home/fabrizio/C++Examples/tinyXml/tinyxml/tinyxml.cpp:1047
 804b294:	0f b6 45 f7          	movzbl -0x9(%ebp),%eax
 804b298:	eb 05                	jmp    804b29f <_ZNK13TiXmlDocument8SaveFileEPKc+0x4d>
/home/fabrizio/C++Examples/tinyXml/tinyxml/tinyxml.cpp:1049
 804b29a:	b8 00 00 00 00       	mov    $0x0,%eax
/home/fabrizio/C++Examples/tinyXml/tinyxml/tinyxml.cpp:1050
 804b29f:	c9                   	leave  
 804b2a0:	c3                   	ret    
 804b2a1:	90                   	nop

0804b2a2 <_ZNK13TiXmlDocument8SaveFileEP8_IO_FILE>:
_ZNK13TiXmlDocument8SaveFileEP8_IO_FILE():
/home/fabrizio/C++Examples/tinyXml/tinyxml/tinyxml.cpp:1054
 804b2a2:	55                   	push   %ebp
 804b2a3:	89 e5                	mov    %esp,%ebp
 804b2a5:	83 ec 28             	sub    $0x28,%esp
/home/fabrizio/C++Examples/tinyXml/tinyxml/tinyxml.cpp:1055
 804b2a8:	8b 45 08             	mov    0x8(%ebp),%eax
 804b2ab:	0f b6 40 44          	movzbl 0x44(%eax),%eax
 804b2af:	84 c0                	test   %al,%al
 804b2b1:	74 45                	je     804b2f8 <_ZNK13TiXmlDocument8SaveFileEP8_IO_FILE+0x56>
/home/fabrizio/C++Examples/tinyXml/tinyxml/tinyxml.cpp:1057
 804b2b3:	c6 45 f7 ef          	movb   $0xef,-0x9(%ebp)
/home/fabrizio/C++Examples/tinyXml/tinyxml/tinyxml.cpp:1058
 804b2b7:	c6 45 f6 bb          	movb   $0xbb,-0xa(%ebp)
/home/fabrizio/C++Examples/tinyXml/tinyxml/tinyxml.cpp:1059
 804b2bb:	c6 45 f5 bf          	movb   $0xbf,-0xb(%ebp)
/home/fabrizio/C++Examples/tinyXml/tinyxml/tinyxml.cpp:1061
 804b2bf:	8b 45 0c             	mov    0xc(%ebp),%eax
 804b2c2:	89 44 24 04          	mov    %eax,0x4(%esp)
 804b2c6:	c7 04 24 ef 00 00 00 	movl   $0xef,(%esp)
 804b2cd:	e8 aa d9 ff ff       	call   8048c7c <fputc@plt>
/home/fabrizio/C++Examples/tinyXml/tinyxml/tinyxml.cpp:1062
 804b2d2:	8b 45 0c             	mov    0xc(%ebp),%eax
 804b2d5:	89 44 24 04          	mov    %eax,0x4(%esp)
 804b2d9:	c7 04 24 bb 00 00 00 	movl   $0xbb,(%esp)
 804b2e0:	e8 97 d9 ff ff       	call   8048c7c <fputc@plt>
/home/fabrizio/C++Examples/tinyXml/tinyxml/tinyxml.cpp:1063
 804b2e5:	8b 45 0c             	mov    0xc(%ebp),%eax
 804b2e8:	89 44 24 04          	mov    %eax,0x4(%esp)
 804b2ec:	c7 04 24 bf 00 00 00 	movl   $0xbf,(%esp)
 804b2f3:	e8 84 d9 ff ff       	call   8048c7c <fputc@plt>
/home/fabrizio/C++Examples/tinyXml/tinyxml/tinyxml.cpp:1065
 804b2f8:	8b 45 08             	mov    0x8(%ebp),%eax
 804b2fb:	8b 00                	mov    (%eax),%eax
 804b2fd:	83 c0 08             	add    $0x8,%eax
 804b300:	8b 10                	mov    (%eax),%edx
 804b302:	c7 44 24 08 00 00 00 	movl   $0x0,0x8(%esp)
 804b309:	00 
 804b30a:	8b 45 0c             	mov    0xc(%ebp),%eax
 804b30d:	89 44 24 04          	mov    %eax,0x4(%esp)
 804b311:	8b 45 08             	mov    0x8(%ebp),%eax
 804b314:	89 04 24             	mov    %eax,(%esp)
 804b317:	ff d2                	call   *%edx
/home/fabrizio/C++Examples/tinyXml/tinyxml/tinyxml.cpp:1066
 804b319:	8b 45 0c             	mov    0xc(%ebp),%eax
 804b31c:	89 04 24             	mov    %eax,(%esp)
 804b31f:	e8 f8 d9 ff ff       	call   8048d1c <ferror@plt>
 804b324:	85 c0                	test   %eax,%eax
 804b326:	0f 94 c0             	sete   %al
/home/fabrizio/C++Examples/tinyXml/tinyxml/tinyxml.cpp:1067
 804b329:	c9                   	leave  
 804b32a:	c3                   	ret    
 804b32b:	90                   	nop

0804b32c <_ZNK13TiXmlDocument6CopyToEPS_>:
_ZNK13TiXmlDocument6CopyToEPS_():
/home/fabrizio/C++Examples/tinyXml/tinyxml/tinyxml.cpp:1071
 804b32c:	55                   	push   %ebp
 804b32d:	89 e5                	mov    %esp,%ebp
 804b32f:	83 ec 28             	sub    $0x28,%esp
/home/fabrizio/C++Examples/tinyXml/tinyxml/tinyxml.cpp:1072
 804b332:	8b 55 0c             	mov    0xc(%ebp),%edx
 804b335:	8b 45 08             	mov    0x8(%ebp),%eax
 804b338:	89 54 24 04          	mov    %edx,0x4(%esp)
 804b33c:	89 04 24             	mov    %eax,(%esp)
 804b33f:	e8 70 e0 ff ff       	call   80493b4 <_ZNK9TiXmlNode6CopyToEPS_>
/home/fabrizio/C++Examples/tinyXml/tinyxml/tinyxml.cpp:1074
 804b344:	8b 45 08             	mov    0x8(%ebp),%eax
 804b347:	0f b6 50 2c          	movzbl 0x2c(%eax),%edx
 804b34b:	8b 45 0c             	mov    0xc(%ebp),%eax
 804b34e:	88 50 2c             	mov    %dl,0x2c(%eax)
/home/fabrizio/C++Examples/tinyXml/tinyxml/tinyxml.cpp:1075
 804b351:	8b 45 08             	mov    0x8(%ebp),%eax
 804b354:	8b 50 30             	mov    0x30(%eax),%edx
 804b357:	8b 45 0c             	mov    0xc(%ebp),%eax
 804b35a:	89 50 30             	mov    %edx,0x30(%eax)
/home/fabrizio/C++Examples/tinyXml/tinyxml/tinyxml.cpp:1076
 804b35d:	8b 45 08             	mov    0x8(%ebp),%eax
 804b360:	8d 50 34             	lea    0x34(%eax),%edx
 804b363:	8b 45 0c             	mov    0xc(%ebp),%eax
 804b366:	83 c0 34             	add    $0x34,%eax
 804b369:	89 54 24 04          	mov    %edx,0x4(%esp)
 804b36d:	89 04 24             	mov    %eax,(%esp)
 804b370:	e8 0d 1e 00 00       	call   804d182 <_ZN11TiXmlStringaSERKS_>
/home/fabrizio/C++Examples/tinyXml/tinyxml/tinyxml.cpp:1077
 804b375:	8b 45 08             	mov    0x8(%ebp),%eax
 804b378:	8b 50 38             	mov    0x38(%eax),%edx
 804b37b:	8b 45 0c             	mov    0xc(%ebp),%eax
 804b37e:	89 50 38             	mov    %edx,0x38(%eax)
/home/fabrizio/C++Examples/tinyXml/tinyxml/tinyxml.cpp:1078
 804b381:	8b 4d 0c             	mov    0xc(%ebp),%ecx
 804b384:	8b 45 08             	mov    0x8(%ebp),%eax
 804b387:	8b 50 40             	mov    0x40(%eax),%edx
 804b38a:	8b 40 3c             	mov    0x3c(%eax),%eax
 804b38d:	89 41 3c             	mov    %eax,0x3c(%ecx)
 804b390:	89 51 40             	mov    %edx,0x40(%ecx)
/home/fabrizio/C++Examples/tinyXml/tinyxml/tinyxml.cpp:1079
 804b393:	8b 45 08             	mov    0x8(%ebp),%eax
 804b396:	0f b6 50 44          	movzbl 0x44(%eax),%edx
 804b39a:	8b 45 0c             	mov    0xc(%ebp),%eax
 804b39d:	88 50 44             	mov    %dl,0x44(%eax)
/home/fabrizio/C++Examples/tinyXml/tinyxml/tinyxml.cpp:1081
 804b3a0:	c7 45 f4 00 00 00 00 	movl   $0x0,-0xc(%ebp)
/home/fabrizio/C++Examples/tinyXml/tinyxml/tinyxml.cpp:1082
 804b3a7:	8b 45 08             	mov    0x8(%ebp),%eax
 804b3aa:	8b 40 18             	mov    0x18(%eax),%eax
 804b3ad:	89 45 f4             	mov    %eax,-0xc(%ebp)
 804b3b0:	eb 2f                	jmp    804b3e1 <_ZNK13TiXmlDocument6CopyToEPS_+0xb5>
/home/fabrizio/C++Examples/tinyXml/tinyxml/tinyxml.cpp:1084
 804b3b2:	8b 45 f4             	mov    -0xc(%ebp),%eax
 804b3b5:	8b 00                	mov    (%eax),%eax
 804b3b7:	83 c0 40             	add    $0x40,%eax
 804b3ba:	8b 10                	mov    (%eax),%edx
 804b3bc:	8b 45 f4             	mov    -0xc(%ebp),%eax
 804b3bf:	89 04 24             	mov    %eax,(%esp)
 804b3c2:	ff d2                	call   *%edx
 804b3c4:	8b 55 0c             	mov    0xc(%ebp),%edx
 804b3c7:	89 44 24 04          	mov    %eax,0x4(%esp)
 804b3cb:	89 14 24             	mov    %edx,(%esp)
 804b3ce:	e8 85 e0 ff ff       	call   8049458 <_ZN9TiXmlNode12LinkEndChildEPS_>
/home/fabrizio/C++Examples/tinyXml/tinyxml/tinyxml.cpp:1082
 804b3d3:	8b 45 f4             	mov    -0xc(%ebp),%eax
 804b3d6:	89 04 24             	mov    %eax,(%esp)
 804b3d9:	e8 64 22 00 00       	call   804d642 <_ZN9TiXmlNode11NextSiblingEv>
 804b3de:	89 45 f4             	mov    %eax,-0xc(%ebp)
 804b3e1:	83 7d f4 00          	cmpl   $0x0,-0xc(%ebp)
 804b3e5:	0f 95 c0             	setne  %al
 804b3e8:	84 c0                	test   %al,%al
 804b3ea:	75 c6                	jne    804b3b2 <_ZNK13TiXmlDocument6CopyToEPS_+0x86>
/home/fabrizio/C++Examples/tinyXml/tinyxml/tinyxml.cpp:1086
 804b3ec:	c9                   	leave  
 804b3ed:	c3                   	ret    

0804b3ee <_ZNK13TiXmlDocument5CloneEv>:
_ZNK13TiXmlDocument5CloneEv():
/home/fabrizio/C++Examples/tinyXml/tinyxml/tinyxml.cpp:1090
 804b3ee:	55                   	push   %ebp
 804b3ef:	89 e5                	mov    %esp,%ebp
 804b3f1:	57                   	push   %edi
 804b3f2:	56                   	push   %esi
 804b3f3:	53                   	push   %ebx
 804b3f4:	83 ec 2c             	sub    $0x2c,%esp
/home/fabrizio/C++Examples/tinyXml/tinyxml/tinyxml.cpp:1091
 804b3f7:	c7 04 24 48 00 00 00 	movl   $0x48,(%esp)
 804b3fe:	e8 09 d8 ff ff       	call   8048c0c <_Znwj@plt>
 804b403:	89 c3                	mov    %eax,%ebx
 804b405:	89 d8                	mov    %ebx,%eax
 804b407:	89 04 24             	mov    %eax,(%esp)
 804b40a:	e8 03 f7 ff ff       	call   804ab12 <_ZN13TiXmlDocumentC1Ev>
 804b40f:	89 5d e4             	mov    %ebx,-0x1c(%ebp)
/home/fabrizio/C++Examples/tinyXml/tinyxml/tinyxml.cpp:1092
 804b412:	83 7d e4 00          	cmpl   $0x0,-0x1c(%ebp)
 804b416:	74 1a                	je     804b432 <_ZNK13TiXmlDocument5CloneEv+0x44>
 804b418:	eb 1f                	jmp    804b439 <_ZNK13TiXmlDocument5CloneEv+0x4b>
 804b41a:	89 d6                	mov    %edx,%esi
 804b41c:	89 c7                	mov    %eax,%edi
/home/fabrizio/C++Examples/tinyXml/tinyxml/tinyxml.cpp:1091
 804b41e:	89 1c 24             	mov    %ebx,(%esp)
 804b421:	e8 e6 d6 ff ff       	call   8048b0c <_ZdlPv@plt>
 804b426:	89 f8                	mov    %edi,%eax
 804b428:	89 f2                	mov    %esi,%edx
 804b42a:	89 04 24             	mov    %eax,(%esp)
 804b42d:	e8 da d8 ff ff       	call   8048d0c <_Unwind_Resume@plt>
/home/fabrizio/C++Examples/tinyXml/tinyxml/tinyxml.cpp:1093
 804b432:	b8 00 00 00 00       	mov    $0x0,%eax
 804b437:	eb 15                	jmp    804b44e <_ZNK13TiXmlDocument5CloneEv+0x60>
/home/fabrizio/C++Examples/tinyXml/tinyxml/tinyxml.cpp:1095
 804b439:	8b 45 e4             	mov    -0x1c(%ebp),%eax
 804b43c:	89 44 24 04          	mov    %eax,0x4(%esp)
 804b440:	8b 45 08             	mov    0x8(%ebp),%eax
 804b443:	89 04 24             	mov    %eax,(%esp)
 804b446:	e8 e1 fe ff ff       	call   804b32c <_ZNK13TiXmlDocument6CopyToEPS_>
/home/fabrizio/C++Examples/tinyXml/tinyxml/tinyxml.cpp:1096
 804b44b:	8b 45 e4             	mov    -0x1c(%ebp),%eax
/home/fabrizio/C++Examples/tinyXml/tinyxml/tinyxml.cpp:1097
 804b44e:	83 c4 2c             	add    $0x2c,%esp
 804b451:	5b                   	pop    %ebx
 804b452:	5e                   	pop    %esi
 804b453:	5f                   	pop    %edi
 804b454:	5d                   	pop    %ebp
 804b455:	c3                   	ret    

0804b456 <_ZNK13TiXmlDocument5PrintEP8_IO_FILEi>:
_ZNK13TiXmlDocument5PrintEP8_IO_FILEi():
/home/fabrizio/C++Examples/tinyXml/tinyxml/tinyxml.cpp:1101
 804b456:	55                   	push   %ebp
 804b457:	89 e5                	mov    %esp,%ebp
 804b459:	83 ec 28             	sub    $0x28,%esp
/home/fabrizio/C++Examples/tinyXml/tinyxml/tinyxml.cpp:1102
 804b45c:	83 7d 0c 00          	cmpl   $0x0,0xc(%ebp)
 804b460:	75 24                	jne    804b486 <_ZNK13TiXmlDocument5PrintEP8_IO_FILEi+0x30>
 804b462:	c7 44 24 0c e0 67 05 	movl   $0x80567e0,0xc(%esp)
 804b469:	08 
 804b46a:	c7 44 24 08 4e 04 00 	movl   $0x44e,0x8(%esp)
 804b471:	00 
 804b472:	c7 44 24 04 65 64 05 	movl   $0x8056465,0x4(%esp)
 804b479:	08 
 804b47a:	c7 04 24 32 65 05 08 	movl   $0x8056532,(%esp)
 804b481:	e8 d6 d6 ff ff       	call   8048b5c <__assert_fail@plt>
/home/fabrizio/C++Examples/tinyXml/tinyxml/tinyxml.cpp:1103
 804b486:	8b 45 08             	mov    0x8(%ebp),%eax
 804b489:	89 04 24             	mov    %eax,(%esp)
 804b48c:	e8 67 21 00 00       	call   804d5f8 <_ZNK9TiXmlNode10FirstChildEv>
 804b491:	89 45 f4             	mov    %eax,-0xc(%ebp)
 804b494:	eb 41                	jmp    804b4d7 <_ZNK13TiXmlDocument5PrintEP8_IO_FILEi+0x81>
/home/fabrizio/C++Examples/tinyXml/tinyxml/tinyxml.cpp:1105
 804b496:	8b 45 f4             	mov    -0xc(%ebp),%eax
 804b499:	8b 00                	mov    (%eax),%eax
 804b49b:	83 c0 08             	add    $0x8,%eax
 804b49e:	8b 08                	mov    (%eax),%ecx
 804b4a0:	8b 45 f4             	mov    -0xc(%ebp),%eax
 804b4a3:	8b 55 10             	mov    0x10(%ebp),%edx
 804b4a6:	89 54 24 08          	mov    %edx,0x8(%esp)
 804b4aa:	8b 55 0c             	mov    0xc(%ebp),%edx
 804b4ad:	89 54 24 04          	mov    %edx,0x4(%esp)
 804b4b1:	89 04 24             	mov    %eax,(%esp)
 804b4b4:	ff d1                	call   *%ecx
/home/fabrizio/C++Examples/tinyXml/tinyxml/tinyxml.cpp:1106
 804b4b6:	8b 45 0c             	mov    0xc(%ebp),%eax
 804b4b9:	89 44 24 04          	mov    %eax,0x4(%esp)
 804b4bd:	c7 04 24 0a 00 00 00 	movl   $0xa,(%esp)
 804b4c4:	e8 b3 d7 ff ff       	call   8048c7c <fputc@plt>
/home/fabrizio/C++Examples/tinyXml/tinyxml/tinyxml.cpp:1103
 804b4c9:	8b 45 f4             	mov    -0xc(%ebp),%eax
 804b4cc:	89 04 24             	mov    %eax,(%esp)
 804b4cf:	e8 62 21 00 00       	call   804d636 <_ZNK9TiXmlNode11NextSiblingEv>
 804b4d4:	89 45 f4             	mov    %eax,-0xc(%ebp)
 804b4d7:	83 7d f4 00          	cmpl   $0x0,-0xc(%ebp)
 804b4db:	0f 95 c0             	setne  %al
 804b4de:	84 c0                	test   %al,%al
 804b4e0:	75 b4                	jne    804b496 <_ZNK13TiXmlDocument5PrintEP8_IO_FILEi+0x40>
/home/fabrizio/C++Examples/tinyXml/tinyxml/tinyxml.cpp:1108
 804b4e2:	c9                   	leave  
 804b4e3:	c3                   	ret    

0804b4e4 <_ZNK13TiXmlDocument6AcceptEP12TiXmlVisitor>:
_ZNK13TiXmlDocument6AcceptEP12TiXmlVisitor():
/home/fabrizio/C++Examples/tinyXml/tinyxml/tinyxml.cpp:1112
 804b4e4:	55                   	push   %ebp
 804b4e5:	89 e5                	mov    %esp,%ebp
 804b4e7:	83 ec 28             	sub    $0x28,%esp
/home/fabrizio/C++Examples/tinyXml/tinyxml/tinyxml.cpp:1113
 804b4ea:	8b 45 0c             	mov    0xc(%ebp),%eax
 804b4ed:	8b 00                	mov    (%eax),%eax
 804b4ef:	83 c0 08             	add    $0x8,%eax
 804b4f2:	8b 10                	mov    (%eax),%edx
 804b4f4:	8b 45 08             	mov    0x8(%ebp),%eax
 804b4f7:	89 44 24 04          	mov    %eax,0x4(%esp)
 804b4fb:	8b 45 0c             	mov    0xc(%ebp),%eax
 804b4fe:	89 04 24             	mov    %eax,(%esp)
 804b501:	ff d2                	call   *%edx
 804b503:	84 c0                	test   %al,%al
 804b505:	74 4c                	je     804b553 <_ZNK13TiXmlDocument6AcceptEP12TiXmlVisitor+0x6f>
/home/fabrizio/C++Examples/tinyXml/tinyxml/tinyxml.cpp:1115
 804b507:	8b 45 08             	mov    0x8(%ebp),%eax
 804b50a:	89 04 24             	mov    %eax,(%esp)
 804b50d:	e8 e6 20 00 00       	call   804d5f8 <_ZNK9TiXmlNode10FirstChildEv>
 804b512:	89 45 f4             	mov    %eax,-0xc(%ebp)
 804b515:	eb 2e                	jmp    804b545 <_ZNK13TiXmlDocument6AcceptEP12TiXmlVisitor+0x61>
/home/fabrizio/C++Examples/tinyXml/tinyxml/tinyxml.cpp:1117
 804b517:	8b 45 f4             	mov    -0xc(%ebp),%eax
 804b51a:	8b 00                	mov    (%eax),%eax
 804b51c:	83 c0 44             	add    $0x44,%eax
 804b51f:	8b 10                	mov    (%eax),%edx
 804b521:	8b 45 0c             	mov    0xc(%ebp),%eax
 804b524:	89 44 24 04          	mov    %eax,0x4(%esp)
 804b528:	8b 45 f4             	mov    -0xc(%ebp),%eax
 804b52b:	89 04 24             	mov    %eax,(%esp)
 804b52e:	ff d2                	call   *%edx
 804b530:	83 f0 01             	xor    $0x1,%eax
 804b533:	84 c0                	test   %al,%al
 804b535:	75 1b                	jne    804b552 <_ZNK13TiXmlDocument6AcceptEP12TiXmlVisitor+0x6e>
/home/fabrizio/C++Examples/tinyXml/tinyxml/tinyxml.cpp:1115
 804b537:	8b 45 f4             	mov    -0xc(%ebp),%eax
 804b53a:	89 04 24             	mov    %eax,(%esp)
 804b53d:	e8 f4 20 00 00       	call   804d636 <_ZNK9TiXmlNode11NextSiblingEv>
 804b542:	89 45 f4             	mov    %eax,-0xc(%ebp)
 804b545:	83 7d f4 00          	cmpl   $0x0,-0xc(%ebp)
 804b549:	0f 95 c0             	setne  %al
 804b54c:	84 c0                	test   %al,%al
 804b54e:	75 c7                	jne    804b517 <_ZNK13TiXmlDocument6AcceptEP12TiXmlVisitor+0x33>
 804b550:	eb 01                	jmp    804b553 <_ZNK13TiXmlDocument6AcceptEP12TiXmlVisitor+0x6f>
/home/fabrizio/C++Examples/tinyXml/tinyxml/tinyxml.cpp:1118
 804b552:	90                   	nop
/home/fabrizio/C++Examples/tinyXml/tinyxml/tinyxml.cpp:1121
 804b553:	8b 45 0c             	mov    0xc(%ebp),%eax
 804b556:	8b 00                	mov    (%eax),%eax
 804b558:	83 c0 0c             	add    $0xc,%eax
 804b55b:	8b 10                	mov    (%eax),%edx
 804b55d:	8b 45 08             	mov    0x8(%ebp),%eax
 804b560:	89 44 24 04          	mov    %eax,0x4(%esp)
 804b564:	8b 45 0c             	mov    0xc(%ebp),%eax
 804b567:	89 04 24             	mov    %eax,(%esp)
 804b56a:	ff d2                	call   *%edx
/home/fabrizio/C++Examples/tinyXml/tinyxml/tinyxml.cpp:1122
 804b56c:	c9                   	leave  
 804b56d:	c3                   	ret    

0804b56e <_ZNK14TiXmlAttribute4NextEv>:
_ZNK14TiXmlAttribute4NextEv():
/home/fabrizio/C++Examples/tinyXml/tinyxml/tinyxml.cpp:1126
 804b56e:	55                   	push   %ebp
 804b56f:	89 e5                	mov    %esp,%ebp
 804b571:	83 ec 18             	sub    $0x18,%esp
/home/fabrizio/C++Examples/tinyXml/tinyxml/tinyxml.cpp:1129
 804b574:	8b 45 08             	mov    0x8(%ebp),%eax
 804b577:	8b 40 20             	mov    0x20(%eax),%eax
 804b57a:	83 c0 18             	add    $0x18,%eax
 804b57d:	89 04 24             	mov    %eax,(%esp)
 804b580:	e8 e7 1c 00 00       	call   804d26c <_ZNK11TiXmlString5emptyEv>
 804b585:	84 c0                	test   %al,%al
 804b587:	74 1c                	je     804b5a5 <_ZNK14TiXmlAttribute4NextEv+0x37>
 804b589:	8b 45 08             	mov    0x8(%ebp),%eax
 804b58c:	8b 40 20             	mov    0x20(%eax),%eax
 804b58f:	83 c0 14             	add    $0x14,%eax
 804b592:	89 04 24             	mov    %eax,(%esp)
 804b595:	e8 d2 1c 00 00       	call   804d26c <_ZNK11TiXmlString5emptyEv>
 804b59a:	84 c0                	test   %al,%al
 804b59c:	74 07                	je     804b5a5 <_ZNK14TiXmlAttribute4NextEv+0x37>
 804b59e:	b8 01 00 00 00       	mov    $0x1,%eax
 804b5a3:	eb 05                	jmp    804b5aa <_ZNK14TiXmlAttribute4NextEv+0x3c>
 804b5a5:	b8 00 00 00 00       	mov    $0x0,%eax
 804b5aa:	84 c0                	test   %al,%al
 804b5ac:	74 07                	je     804b5b5 <_ZNK14TiXmlAttribute4NextEv+0x47>
/home/fabrizio/C++Examples/tinyXml/tinyxml/tinyxml.cpp:1130
 804b5ae:	b8 00 00 00 00       	mov    $0x0,%eax
 804b5b3:	eb 06                	jmp    804b5bb <_ZNK14TiXmlAttribute4NextEv+0x4d>
/home/fabrizio/C++Examples/tinyXml/tinyxml/tinyxml.cpp:1131
 804b5b5:	8b 45 08             	mov    0x8(%ebp),%eax
 804b5b8:	8b 40 20             	mov    0x20(%eax),%eax
/home/fabrizio/C++Examples/tinyXml/tinyxml/tinyxml.cpp:1132
 804b5bb:	c9                   	leave  
 804b5bc:	c3                   	ret    
 804b5bd:	90                   	nop

0804b5be <_ZNK14TiXmlAttribute8PreviousEv>:
_ZNK14TiXmlAttribute8PreviousEv():
/home/fabrizio/C++Examples/tinyXml/tinyxml/tinyxml.cpp:1146
 804b5be:	55                   	push   %ebp
 804b5bf:	89 e5                	mov    %esp,%ebp
 804b5c1:	83 ec 18             	sub    $0x18,%esp
/home/fabrizio/C++Examples/tinyXml/tinyxml/tinyxml.cpp:1149
 804b5c4:	8b 45 08             	mov    0x8(%ebp),%eax
 804b5c7:	8b 40 1c             	mov    0x1c(%eax),%eax
 804b5ca:	83 c0 18             	add    $0x18,%eax
 804b5cd:	89 04 24             	mov    %eax,(%esp)
 804b5d0:	e8 97 1c 00 00       	call   804d26c <_ZNK11TiXmlString5emptyEv>
 804b5d5:	84 c0                	test   %al,%al
 804b5d7:	74 1c                	je     804b5f5 <_ZNK14TiXmlAttribute8PreviousEv+0x37>
 804b5d9:	8b 45 08             	mov    0x8(%ebp),%eax
 804b5dc:	8b 40 1c             	mov    0x1c(%eax),%eax
 804b5df:	83 c0 14             	add    $0x14,%eax
 804b5e2:	89 04 24             	mov    %eax,(%esp)
 804b5e5:	e8 82 1c 00 00       	call   804d26c <_ZNK11TiXmlString5emptyEv>
 804b5ea:	84 c0                	test   %al,%al
 804b5ec:	74 07                	je     804b5f5 <_ZNK14TiXmlAttribute8PreviousEv+0x37>
 804b5ee:	b8 01 00 00 00       	mov    $0x1,%eax
 804b5f3:	eb 05                	jmp    804b5fa <_ZNK14TiXmlAttribute8PreviousEv+0x3c>
 804b5f5:	b8 00 00 00 00       	mov    $0x0,%eax
 804b5fa:	84 c0                	test   %al,%al
 804b5fc:	74 07                	je     804b605 <_ZNK14TiXmlAttribute8PreviousEv+0x47>
/home/fabrizio/C++Examples/tinyXml/tinyxml/tinyxml.cpp:1150
 804b5fe:	b8 00 00 00 00       	mov    $0x0,%eax
 804b603:	eb 06                	jmp    804b60b <_ZNK14TiXmlAttribute8PreviousEv+0x4d>
/home/fabrizio/C++Examples/tinyXml/tinyxml/tinyxml.cpp:1151
 804b605:	8b 45 08             	mov    0x8(%ebp),%eax
 804b608:	8b 40 1c             	mov    0x1c(%eax),%eax
/home/fabrizio/C++Examples/tinyXml/tinyxml/tinyxml.cpp:1152
 804b60b:	c9                   	leave  
 804b60c:	c3                   	ret    
 804b60d:	90                   	nop

0804b60e <_ZNK14TiXmlAttribute5PrintEP8_IO_FILEiP11TiXmlString>:
_ZNK14TiXmlAttribute5PrintEP8_IO_FILEiP11TiXmlString():
/home/fabrizio/C++Examples/tinyXml/tinyxml/tinyxml.cpp:1166
 804b60e:	55                   	push   %ebp
 804b60f:	89 e5                	mov    %esp,%ebp
 804b611:	56                   	push   %esi
 804b612:	53                   	push   %ebx
 804b613:	83 ec 20             	sub    $0x20,%esp
/home/fabrizio/C++Examples/tinyXml/tinyxml/tinyxml.cpp:1167
 804b616:	8d 45 f4             	lea    -0xc(%ebp),%eax
 804b619:	89 04 24             	mov    %eax,(%esp)
 804b61c:	e8 b9 1a 00 00       	call   804d0da <_ZN11TiXmlStringC1Ev>
 804b621:	8d 45 f0             	lea    -0x10(%ebp),%eax
 804b624:	89 04 24             	mov    %eax,(%esp)
 804b627:	e8 ae 1a 00 00       	call   804d0da <_ZN11TiXmlStringC1Ev>
/home/fabrizio/C++Examples/tinyXml/tinyxml/tinyxml.cpp:1169
 804b62c:	8b 45 08             	mov    0x8(%ebp),%eax
 804b62f:	8d 50 14             	lea    0x14(%eax),%edx
 804b632:	8d 45 f4             	lea    -0xc(%ebp),%eax
 804b635:	89 44 24 04          	mov    %eax,0x4(%esp)
 804b639:	89 14 24             	mov    %edx,(%esp)
 804b63c:	e8 ed d7 ff ff       	call   8048e2e <_ZN9TiXmlBase12EncodeStringERK11TiXmlStringPS0_>
/home/fabrizio/C++Examples/tinyXml/tinyxml/tinyxml.cpp:1170
 804b641:	8b 45 08             	mov    0x8(%ebp),%eax
 804b644:	8d 50 18             	lea    0x18(%eax),%edx
 804b647:	8d 45 f0             	lea    -0x10(%ebp),%eax
 804b64a:	89 44 24 04          	mov    %eax,0x4(%esp)
 804b64e:	89 14 24             	mov    %edx,(%esp)
 804b651:	e8 d8 d7 ff ff       	call   8048e2e <_ZN9TiXmlBase12EncodeStringERK11TiXmlStringPS0_>
/home/fabrizio/C++Examples/tinyXml/tinyxml/tinyxml.cpp:1172
 804b656:	8b 45 08             	mov    0x8(%ebp),%eax
 804b659:	83 c0 18             	add    $0x18,%eax
 804b65c:	c7 44 24 04 22 00 00 	movl   $0x22,0x4(%esp)
 804b663:	00 
 804b664:	89 04 24             	mov    %eax,(%esp)
 804b667:	e8 5c 1c 00 00       	call   804d2c8 <_ZNK11TiXmlString4findEc>
 804b66c:	8b 15 04 97 05 08    	mov    0x8059704,%edx
 804b672:	39 d0                	cmp    %edx,%eax
 804b674:	0f 94 c0             	sete   %al
 804b677:	84 c0                	test   %al,%al
 804b679:	0f 84 92 00 00 00    	je     804b711 <_ZNK14TiXmlAttribute5PrintEP8_IO_FILEiP11TiXmlString+0x103>
/home/fabrizio/C++Examples/tinyXml/tinyxml/tinyxml.cpp:1173
 804b67f:	83 7d 0c 00          	cmpl   $0x0,0xc(%ebp)
 804b683:	74 33                	je     804b6b8 <_ZNK14TiXmlAttribute5PrintEP8_IO_FILEiP11TiXmlString+0xaa>
/home/fabrizio/C++Examples/tinyXml/tinyxml/tinyxml.cpp:1174
 804b685:	8d 45 f0             	lea    -0x10(%ebp),%eax
 804b688:	89 04 24             	mov    %eax,(%esp)
 804b68b:	e8 b4 1b 00 00       	call   804d244 <_ZNK11TiXmlString5c_strEv>
 804b690:	89 c3                	mov    %eax,%ebx
 804b692:	8d 45 f4             	lea    -0xc(%ebp),%eax
 804b695:	89 04 24             	mov    %eax,(%esp)
 804b698:	e8 a7 1b 00 00       	call   804d244 <_ZNK11TiXmlString5c_strEv>
 804b69d:	89 5c 24 0c          	mov    %ebx,0xc(%esp)
 804b6a1:	89 44 24 08          	mov    %eax,0x8(%esp)
 804b6a5:	c7 44 24 04 7a 65 05 	movl   $0x805657a,0x4(%esp)
 804b6ac:	08 
 804b6ad:	8b 45 0c             	mov    0xc(%ebp),%eax
 804b6b0:	89 04 24             	mov    %eax,(%esp)
 804b6b3:	e8 a4 d5 ff ff       	call   8048c5c <fprintf@plt>
/home/fabrizio/C++Examples/tinyXml/tinyxml/tinyxml.cpp:1176
 804b6b8:	83 7d 14 00          	cmpl   $0x0,0x14(%ebp)
 804b6bc:	0f 84 da 00 00 00    	je     804b79c <_ZNK14TiXmlAttribute5PrintEP8_IO_FILEiP11TiXmlString+0x18e>
/home/fabrizio/C++Examples/tinyXml/tinyxml/tinyxml.cpp:1177
 804b6c2:	8d 45 f4             	lea    -0xc(%ebp),%eax
 804b6c5:	89 44 24 04          	mov    %eax,0x4(%esp)
 804b6c9:	8b 45 14             	mov    0x14(%ebp),%eax
 804b6cc:	89 04 24             	mov    %eax,(%esp)
 804b6cf:	e8 38 1b 00 00       	call   804d20c <_ZN11TiXmlStringpLERKS_>
 804b6d4:	c7 44 24 04 82 65 05 	movl   $0x8056582,0x4(%esp)
 804b6db:	08 
 804b6dc:	8b 45 14             	mov    0x14(%ebp),%eax
 804b6df:	89 04 24             	mov    %eax,(%esp)
 804b6e2:	e8 d3 1a 00 00       	call   804d1ba <_ZN11TiXmlStringpLEPKc>
 804b6e7:	8d 45 f0             	lea    -0x10(%ebp),%eax
 804b6ea:	89 44 24 04          	mov    %eax,0x4(%esp)
 804b6ee:	8b 45 14             	mov    0x14(%ebp),%eax
 804b6f1:	89 04 24             	mov    %eax,(%esp)
 804b6f4:	e8 13 1b 00 00       	call   804d20c <_ZN11TiXmlStringpLERKS_>
 804b6f9:	c7 44 24 04 85 65 05 	movl   $0x8056585,0x4(%esp)
 804b700:	08 
 804b701:	8b 45 14             	mov    0x14(%ebp),%eax
 804b704:	89 04 24             	mov    %eax,(%esp)
 804b707:	e8 ae 1a 00 00       	call   804d1ba <_ZN11TiXmlStringpLEPKc>
 804b70c:	e9 8c 00 00 00       	jmp    804b79d <_ZNK14TiXmlAttribute5PrintEP8_IO_FILEiP11TiXmlString+0x18f>
/home/fabrizio/C++Examples/tinyXml/tinyxml/tinyxml.cpp:1181
 804b711:	83 7d 0c 00          	cmpl   $0x0,0xc(%ebp)
 804b715:	74 33                	je     804b74a <_ZNK14TiXmlAttribute5PrintEP8_IO_FILEiP11TiXmlString+0x13c>
/home/fabrizio/C++Examples/tinyXml/tinyxml/tinyxml.cpp:1182
 804b717:	8d 45 f0             	lea    -0x10(%ebp),%eax
 804b71a:	89 04 24             	mov    %eax,(%esp)
 804b71d:	e8 22 1b 00 00       	call   804d244 <_ZNK11TiXmlString5c_strEv>
 804b722:	89 c3                	mov    %eax,%ebx
 804b724:	8d 45 f4             	lea    -0xc(%ebp),%eax
 804b727:	89 04 24             	mov    %eax,(%esp)
 804b72a:	e8 15 1b 00 00       	call   804d244 <_ZNK11TiXmlString5c_strEv>
 804b72f:	89 5c 24 0c          	mov    %ebx,0xc(%esp)
 804b733:	89 44 24 08          	mov    %eax,0x8(%esp)
 804b737:	c7 44 24 04 87 65 05 	movl   $0x8056587,0x4(%esp)
 804b73e:	08 
 804b73f:	8b 45 0c             	mov    0xc(%ebp),%eax
 804b742:	89 04 24             	mov    %eax,(%esp)
 804b745:	e8 12 d5 ff ff       	call   8048c5c <fprintf@plt>
/home/fabrizio/C++Examples/tinyXml/tinyxml/tinyxml.cpp:1184
 804b74a:	83 7d 14 00          	cmpl   $0x0,0x14(%ebp)
 804b74e:	74 4d                	je     804b79d <_ZNK14TiXmlAttribute5PrintEP8_IO_FILEiP11TiXmlString+0x18f>
/home/fabrizio/C++Examples/tinyXml/tinyxml/tinyxml.cpp:1185
 804b750:	8d 45 f4             	lea    -0xc(%ebp),%eax
 804b753:	89 44 24 04          	mov    %eax,0x4(%esp)
 804b757:	8b 45 14             	mov    0x14(%ebp),%eax
 804b75a:	89 04 24             	mov    %eax,(%esp)
 804b75d:	e8 aa 1a 00 00       	call   804d20c <_ZN11TiXmlStringpLERKS_>
 804b762:	c7 44 24 04 8f 65 05 	movl   $0x805658f,0x4(%esp)
 804b769:	08 
 804b76a:	8b 45 14             	mov    0x14(%ebp),%eax
 804b76d:	89 04 24             	mov    %eax,(%esp)
 804b770:	e8 45 1a 00 00       	call   804d1ba <_ZN11TiXmlStringpLEPKc>
 804b775:	8d 45 f0             	lea    -0x10(%ebp),%eax
 804b778:	89 44 24 04          	mov    %eax,0x4(%esp)
 804b77c:	8b 45 14             	mov    0x14(%ebp),%eax
 804b77f:	89 04 24             	mov    %eax,(%esp)
 804b782:	e8 85 1a 00 00       	call   804d20c <_ZN11TiXmlStringpLERKS_>
 804b787:	c7 44 24 04 92 65 05 	movl   $0x8056592,0x4(%esp)
 804b78e:	08 
 804b78f:	8b 45 14             	mov    0x14(%ebp),%eax
 804b792:	89 04 24             	mov    %eax,(%esp)
 804b795:	e8 20 1a 00 00       	call   804d1ba <_ZN11TiXmlStringpLEPKc>
 804b79a:	eb 01                	jmp    804b79d <_ZNK14TiXmlAttribute5PrintEP8_IO_FILEiP11TiXmlString+0x18f>
/home/fabrizio/C++Examples/tinyXml/tinyxml/tinyxml.cpp:1177
 804b79c:	90                   	nop
/home/fabrizio/C++Examples/tinyXml/tinyxml/tinyxml.cpp:1187
 804b79d:	8d 45 f0             	lea    -0x10(%ebp),%eax
 804b7a0:	89 04 24             	mov    %eax,(%esp)
 804b7a3:	e8 9c 19 00 00       	call   804d144 <_ZN11TiXmlStringD1Ev>
 804b7a8:	8d 45 f4             	lea    -0xc(%ebp),%eax
 804b7ab:	89 04 24             	mov    %eax,(%esp)
 804b7ae:	e8 91 19 00 00       	call   804d144 <_ZN11TiXmlStringD1Ev>
/home/fabrizio/C++Examples/tinyXml/tinyxml/tinyxml.cpp:1188
 804b7b3:	83 c4 20             	add    $0x20,%esp
 804b7b6:	5b                   	pop    %ebx
 804b7b7:	5e                   	pop    %esi
 804b7b8:	5d                   	pop    %ebp
 804b7b9:	c3                   	ret    
/home/fabrizio/C++Examples/tinyXml/tinyxml/tinyxml.cpp:1187
 804b7ba:	89 d3                	mov    %edx,%ebx
 804b7bc:	89 c6                	mov    %eax,%esi
 804b7be:	8d 45 f0             	lea    -0x10(%ebp),%eax
 804b7c1:	89 04 24             	mov    %eax,(%esp)
 804b7c4:	e8 7b 19 00 00       	call   804d144 <_ZN11TiXmlStringD1Ev>
 804b7c9:	89 f0                	mov    %esi,%eax
 804b7cb:	89 da                	mov    %ebx,%edx
/home/fabrizio/C++Examples/tinyXml/tinyxml/tinyxml.cpp:1188
 804b7cd:	89 d3                	mov    %edx,%ebx
 804b7cf:	89 c6                	mov    %eax,%esi
/home/fabrizio/C++Examples/tinyXml/tinyxml/tinyxml.cpp:1187
 804b7d1:	8d 45 f4             	lea    -0xc(%ebp),%eax
 804b7d4:	89 04 24             	mov    %eax,(%esp)
 804b7d7:	e8 68 19 00 00       	call   804d144 <_ZN11TiXmlStringD1Ev>
 804b7dc:	89 f0                	mov    %esi,%eax
 804b7de:	89 da                	mov    %ebx,%edx
 804b7e0:	89 04 24             	mov    %eax,(%esp)
 804b7e3:	e8 24 d5 ff ff       	call   8048d0c <_Unwind_Resume@plt>

0804b7e8 <_ZNK14TiXmlAttribute13QueryIntValueEPi>:
_ZNK14TiXmlAttribute13QueryIntValueEPi():
/home/fabrizio/C++Examples/tinyXml/tinyxml/tinyxml.cpp:1192
 804b7e8:	55                   	push   %ebp
 804b7e9:	89 e5                	mov    %esp,%ebp
 804b7eb:	83 ec 18             	sub    $0x18,%esp
/home/fabrizio/C++Examples/tinyXml/tinyxml/tinyxml.cpp:1193
 804b7ee:	8b 45 08             	mov    0x8(%ebp),%eax
 804b7f1:	83 c0 18             	add    $0x18,%eax
 804b7f4:	89 04 24             	mov    %eax,(%esp)
 804b7f7:	e8 48 1a 00 00       	call   804d244 <_ZNK11TiXmlString5c_strEv>
 804b7fc:	8b 55 0c             	mov    0xc(%ebp),%edx
 804b7ff:	89 54 24 08          	mov    %edx,0x8(%esp)
 804b803:	c7 44 24 04 94 65 05 	movl   $0x8056594,0x4(%esp)
 804b80a:	08 
 804b80b:	89 04 24             	mov    %eax,(%esp)
 804b80e:	e8 a9 d4 ff ff       	call   8048cbc <sscanf@plt>
 804b813:	83 f8 01             	cmp    $0x1,%eax
 804b816:	0f 94 c0             	sete   %al
 804b819:	84 c0                	test   %al,%al
 804b81b:	74 07                	je     804b824 <_ZNK14TiXmlAttribute13QueryIntValueEPi+0x3c>
/home/fabrizio/C++Examples/tinyXml/tinyxml/tinyxml.cpp:1194
 804b81d:	b8 00 00 00 00       	mov    $0x0,%eax
 804b822:	eb 05                	jmp    804b829 <_ZNK14TiXmlAttribute13QueryIntValueEPi+0x41>
/home/fabrizio/C++Examples/tinyXml/tinyxml/tinyxml.cpp:1195
 804b824:	b8 02 00 00 00       	mov    $0x2,%eax
/home/fabrizio/C++Examples/tinyXml/tinyxml/tinyxml.cpp:1196
 804b829:	c9                   	leave  
 804b82a:	c3                   	ret    
 804b82b:	90                   	nop

0804b82c <_ZNK14TiXmlAttribute16QueryDoubleValueEPd>:
_ZNK14TiXmlAttribute16QueryDoubleValueEPd():
/home/fabrizio/C++Examples/tinyXml/tinyxml/tinyxml.cpp:1199
 804b82c:	55                   	push   %ebp
 804b82d:	89 e5                	mov    %esp,%ebp
 804b82f:	83 ec 18             	sub    $0x18,%esp
/home/fabrizio/C++Examples/tinyXml/tinyxml/tinyxml.cpp:1200
 804b832:	8b 45 08             	mov    0x8(%ebp),%eax
 804b835:	83 c0 18             	add    $0x18,%eax
 804b838:	89 04 24             	mov    %eax,(%esp)
 804b83b:	e8 04 1a 00 00       	call   804d244 <_ZNK11TiXmlString5c_strEv>
 804b840:	8b 55 0c             	mov    0xc(%ebp),%edx
 804b843:	89 54 24 08          	mov    %edx,0x8(%esp)
 804b847:	c7 44 24 04 97 65 05 	movl   $0x8056597,0x4(%esp)
 804b84e:	08 
 804b84f:	89 04 24             	mov    %eax,(%esp)
 804b852:	e8 65 d4 ff ff       	call   8048cbc <sscanf@plt>
 804b857:	83 f8 01             	cmp    $0x1,%eax
 804b85a:	0f 94 c0             	sete   %al
 804b85d:	84 c0                	test   %al,%al
 804b85f:	74 07                	je     804b868 <_ZNK14TiXmlAttribute16QueryDoubleValueEPd+0x3c>
/home/fabrizio/C++Examples/tinyXml/tinyxml/tinyxml.cpp:1201
 804b861:	b8 00 00 00 00       	mov    $0x0,%eax
