
/home/fabrizio/Workspaces/workspaceCPP_RegressionExample/WorkersMap-namespace/Debug/WorkersMap:     file format elf32-i386


Disassembly of section .init:

08048ab4 <_init>:
_init():
 8048ab4:	55                   	push   %ebp
 8048ab5:	89 e5                	mov    %esp,%ebp
 8048ab7:	53                   	push   %ebx
 8048ab8:	83 ec 04             	sub    $0x4,%esp
 8048abb:	e8 00 00 00 00       	call   8048ac0 <_init+0xc>
 8048ac0:	5b                   	pop    %ebx
 8048ac1:	81 c3 34 65 00 00    	add    $0x6534,%ebx
 8048ac7:	8b 93 fc ff ff ff    	mov    -0x4(%ebx),%edx
 8048acd:	85 d2                	test   %edx,%edx
 8048acf:	74 05                	je     8048ad6 <_init+0x22>
 8048ad1:	e8 4e 00 00 00       	call   8048b24 <__gmon_start__@plt>
 8048ad6:	e8 95 02 00 00       	call   8048d70 <frame_dummy>
 8048adb:	e8 f0 2c 00 00       	call   804b7d0 <__do_global_ctors_aux>
 8048ae0:	58                   	pop    %eax
 8048ae1:	5b                   	pop    %ebx
 8048ae2:	c9                   	leave  
 8048ae3:	c3                   	ret    

Disassembly of section .plt:

08048ae4 <_ZNSolsEl@plt-0x10>:
 8048ae4:	ff 35 f8 ef 04 08    	pushl  0x804eff8
 8048aea:	ff 25 fc ef 04 08    	jmp    *0x804effc
 8048af0:	00 00                	add    %al,(%eax)
	...

08048af4 <_ZNSolsEl@plt>:
 8048af4:	ff 25 00 f0 04 08    	jmp    *0x804f000
 8048afa:	68 00 00 00 00       	push   $0x0
 8048aff:	e9 e0 ff ff ff       	jmp    8048ae4 <_init+0x30>

08048b04 <_ZNSolsEi@plt>:
 8048b04:	ff 25 04 f0 04 08    	jmp    *0x804f004
 8048b0a:	68 08 00 00 00       	push   $0x8
 8048b0f:	e9 d0 ff ff ff       	jmp    8048ae4 <_init+0x30>

08048b14 <__cxa_atexit@plt>:
 8048b14:	ff 25 08 f0 04 08    	jmp    *0x804f008
 8048b1a:	68 10 00 00 00       	push   $0x10
 8048b1f:	e9 c0 ff ff ff       	jmp    8048ae4 <_init+0x30>

08048b24 <__gmon_start__@plt>:
 8048b24:	ff 25 0c f0 04 08    	jmp    *0x804f00c
 8048b2a:	68 18 00 00 00       	push   $0x18
 8048b2f:	e9 b0 ff ff ff       	jmp    8048ae4 <_init+0x30>

08048b34 <_ZdlPv@plt>:
 8048b34:	ff 25 10 f0 04 08    	jmp    *0x804f010
 8048b3a:	68 20 00 00 00       	push   $0x20
 8048b3f:	e9 a0 ff ff ff       	jmp    8048ae4 <_init+0x30>

08048b44 <__cxa_rethrow@plt>:
 8048b44:	ff 25 14 f0 04 08    	jmp    *0x804f014
 8048b4a:	68 28 00 00 00       	push   $0x28
 8048b4f:	e9 90 ff ff ff       	jmp    8048ae4 <_init+0x30>

08048b54 <_ZNSt8ios_base4InitC1Ev@plt>:
 8048b54:	ff 25 18 f0 04 08    	jmp    *0x804f018
 8048b5a:	68 30 00 00 00       	push   $0x30
 8048b5f:	e9 80 ff ff ff       	jmp    8048ae4 <_init+0x30>

08048b64 <_ZSt18_Rb_tree_decrementPSt18_Rb_tree_node_base@plt>:
 8048b64:	ff 25 1c f0 04 08    	jmp    *0x804f01c
 8048b6a:	68 38 00 00 00       	push   $0x38
 8048b6f:	e9 70 ff ff ff       	jmp    8048ae4 <_init+0x30>

08048b74 <__libc_start_main@plt>:
 8048b74:	ff 25 20 f0 04 08    	jmp    *0x804f020
 8048b7a:	68 40 00 00 00       	push   $0x40
 8048b7f:	e9 60 ff ff ff       	jmp    8048ae4 <_init+0x30>

08048b84 <_ZNKSs7compareERKSs@plt>:
 8048b84:	ff 25 24 f0 04 08    	jmp    *0x804f024
 8048b8a:	68 48 00 00 00       	push   $0x48
 8048b8f:	e9 50 ff ff ff       	jmp    8048ae4 <_init+0x30>

08048b94 <_ZNSsC1ERKSs@plt>:
 8048b94:	ff 25 28 f0 04 08    	jmp    *0x804f028
 8048b9a:	68 50 00 00 00       	push   $0x50
 8048b9f:	e9 40 ff ff ff       	jmp    8048ae4 <_init+0x30>

08048ba4 <_ZNSt8ios_base4InitD1Ev@plt>:
 8048ba4:	ff 25 2c f0 04 08    	jmp    *0x804f02c
 8048baa:	68 58 00 00 00       	push   $0x58
 8048baf:	e9 30 ff ff ff       	jmp    8048ae4 <_init+0x30>

08048bb4 <_ZStlsISt11char_traitsIcEERSt13basic_ostreamIcT_ES5_PKc@plt>:
 8048bb4:	ff 25 30 f0 04 08    	jmp    *0x804f030
 8048bba:	68 60 00 00 00       	push   $0x60
 8048bbf:	e9 20 ff ff ff       	jmp    8048ae4 <_init+0x30>

08048bc4 <_ZNSsD1Ev@plt>:
 8048bc4:	ff 25 34 f0 04 08    	jmp    *0x804f034
 8048bca:	68 68 00 00 00       	push   $0x68
 8048bcf:	e9 10 ff ff ff       	jmp    8048ae4 <_init+0x30>

08048bd4 <_ZNSsC1EPKcRKSaIcE@plt>:
 8048bd4:	ff 25 38 f0 04 08    	jmp    *0x804f038
 8048bda:	68 70 00 00 00       	push   $0x70
 8048bdf:	e9 00 ff ff ff       	jmp    8048ae4 <_init+0x30>

08048be4 <_Znwj@plt>:
 8048be4:	ff 25 3c f0 04 08    	jmp    *0x804f03c
 8048bea:	68 78 00 00 00       	push   $0x78
 8048bef:	e9 f0 fe ff ff       	jmp    8048ae4 <_init+0x30>

08048bf4 <_ZSt29_Rb_tree_insert_and_rebalancebPSt18_Rb_tree_node_baseS0_RS_@plt>:
 8048bf4:	ff 25 40 f0 04 08    	jmp    *0x804f040
 8048bfa:	68 80 00 00 00       	push   $0x80
 8048bff:	e9 e0 fe ff ff       	jmp    8048ae4 <_init+0x30>

08048c04 <_ZStlsIcSt11char_traitsIcESaIcEERSt13basic_ostreamIT_T0_ES7_RKSbIS4_S5_T1_E@plt>:
 8048c04:	ff 25 44 f0 04 08    	jmp    *0x804f044
 8048c0a:	68 88 00 00 00       	push   $0x88
 8048c0f:	e9 d0 fe ff ff       	jmp    8048ae4 <_init+0x30>

08048c14 <__cxa_allocate_exception@plt>:
 8048c14:	ff 25 48 f0 04 08    	jmp    *0x804f048
 8048c1a:	68 90 00 00 00       	push   $0x90
 8048c1f:	e9 c0 fe ff ff       	jmp    8048ae4 <_init+0x30>

08048c24 <_ZNSaIcED1Ev@plt>:
 8048c24:	ff 25 4c f0 04 08    	jmp    *0x804f04c
 8048c2a:	68 98 00 00 00       	push   $0x98
 8048c2f:	e9 b0 fe ff ff       	jmp    8048ae4 <_init+0x30>

08048c34 <__cxa_throw@plt>:
 8048c34:	ff 25 50 f0 04 08    	jmp    *0x804f050
 8048c3a:	68 a0 00 00 00       	push   $0xa0
 8048c3f:	e9 a0 fe ff ff       	jmp    8048ae4 <_init+0x30>

08048c44 <_ZNSolsEPFRSoS_E@plt>:
 8048c44:	ff 25 54 f0 04 08    	jmp    *0x804f054
 8048c4a:	68 a8 00 00 00       	push   $0xa8
 8048c4f:	e9 90 fe ff ff       	jmp    8048ae4 <_init+0x30>

08048c54 <__cxa_end_catch@plt>:
 8048c54:	ff 25 58 f0 04 08    	jmp    *0x804f058
 8048c5a:	68 b0 00 00 00       	push   $0xb0
 8048c5f:	e9 80 fe ff ff       	jmp    8048ae4 <_init+0x30>

08048c64 <_ZSt17__throw_bad_allocv@plt>:
 8048c64:	ff 25 5c f0 04 08    	jmp    *0x804f05c
 8048c6a:	68 b8 00 00 00       	push   $0xb8
 8048c6f:	e9 70 fe ff ff       	jmp    8048ae4 <_init+0x30>

08048c74 <_ZSt4endlIcSt11char_traitsIcEERSt13basic_ostreamIT_T0_ES6_@plt>:
 8048c74:	ff 25 60 f0 04 08    	jmp    *0x804f060
 8048c7a:	68 c0 00 00 00       	push   $0xc0
 8048c7f:	e9 60 fe ff ff       	jmp    8048ae4 <_init+0x30>

08048c84 <__cxa_begin_catch@plt>:
 8048c84:	ff 25 64 f0 04 08    	jmp    *0x804f064
 8048c8a:	68 c8 00 00 00       	push   $0xc8
 8048c8f:	e9 50 fe ff ff       	jmp    8048ae4 <_init+0x30>

08048c94 <_ZNSt15_List_node_base4hookEPS_@plt>:
 8048c94:	ff 25 68 f0 04 08    	jmp    *0x804f068
 8048c9a:	68 d0 00 00 00       	push   $0xd0
 8048c9f:	e9 40 fe ff ff       	jmp    8048ae4 <_init+0x30>

08048ca4 <_ZNSaIcEC1Ev@plt>:
 8048ca4:	ff 25 6c f0 04 08    	jmp    *0x804f06c
 8048caa:	68 d8 00 00 00       	push   $0xd8
 8048caf:	e9 30 fe ff ff       	jmp    8048ae4 <_init+0x30>

08048cb4 <__gxx_personality_v0@plt>:
 8048cb4:	ff 25 70 f0 04 08    	jmp    *0x804f070
 8048cba:	68 e0 00 00 00       	push   $0xe0
 8048cbf:	e9 20 fe ff ff       	jmp    8048ae4 <_init+0x30>

08048cc4 <_Unwind_Resume@plt>:
 8048cc4:	ff 25 74 f0 04 08    	jmp    *0x804f074
 8048cca:	68 e8 00 00 00       	push   $0xe8
 8048ccf:	e9 10 fe ff ff       	jmp    8048ae4 <_init+0x30>

Disassembly of section .text:

08048ce0 <_start>:
_start():
/build/buildd/eglibc-2.10.1/csu/../sysdeps/i386/elf/start.S:65
 8048ce0:	31 ed                	xor    %ebp,%ebp
/build/buildd/eglibc-2.10.1/csu/../sysdeps/i386/elf/start.S:70
 8048ce2:	5e                   	pop    %esi
/build/buildd/eglibc-2.10.1/csu/../sysdeps/i386/elf/start.S:71
 8048ce3:	89 e1                	mov    %esp,%ecx
/build/buildd/eglibc-2.10.1/csu/../sysdeps/i386/elf/start.S:77
 8048ce5:	83 e4 f0             	and    $0xfffffff0,%esp
/build/buildd/eglibc-2.10.1/csu/../sysdeps/i386/elf/start.S:78
 8048ce8:	50                   	push   %eax
/build/buildd/eglibc-2.10.1/csu/../sysdeps/i386/elf/start.S:83
 8048ce9:	54                   	push   %esp
/build/buildd/eglibc-2.10.1/csu/../sysdeps/i386/elf/start.S:85
 8048cea:	52                   	push   %edx
/build/buildd/eglibc-2.10.1/csu/../sysdeps/i386/elf/start.S:109
 8048ceb:	68 60 b7 04 08       	push   $0x804b760
/build/buildd/eglibc-2.10.1/csu/../sysdeps/i386/elf/start.S:110
 8048cf0:	68 70 b7 04 08       	push   $0x804b770
/build/buildd/eglibc-2.10.1/csu/../sysdeps/i386/elf/start.S:112
 8048cf5:	51                   	push   %ecx
/build/buildd/eglibc-2.10.1/csu/../sysdeps/i386/elf/start.S:113
 8048cf6:	56                   	push   %esi
/build/buildd/eglibc-2.10.1/csu/../sysdeps/i386/elf/start.S:115
 8048cf7:	68 0f ad 04 08       	push   $0x804ad0f
/build/buildd/eglibc-2.10.1/csu/../sysdeps/i386/elf/start.S:119
 8048cfc:	e8 73 fe ff ff       	call   8048b74 <__libc_start_main@plt>
/build/buildd/eglibc-2.10.1/csu/../sysdeps/i386/elf/start.S:122
 8048d01:	f4                   	hlt    
 8048d02:	90                   	nop
 8048d03:	90                   	nop
 8048d04:	90                   	nop
 8048d05:	90                   	nop
 8048d06:	90                   	nop
 8048d07:	90                   	nop
 8048d08:	90                   	nop
 8048d09:	90                   	nop
 8048d0a:	90                   	nop
 8048d0b:	90                   	nop
 8048d0c:	90                   	nop
 8048d0d:	90                   	nop
 8048d0e:	90                   	nop
 8048d0f:	90                   	nop

08048d10 <__do_global_dtors_aux>:
__do_global_dtors_aux():
 8048d10:	55                   	push   %ebp
 8048d11:	89 e5                	mov    %esp,%ebp
 8048d13:	53                   	push   %ebx
 8048d14:	83 ec 04             	sub    $0x4,%esp
 8048d17:	80 3d 84 f1 04 08 00 	cmpb   $0x0,0x804f184
 8048d1e:	75 3f                	jne    8048d5f <__do_global_dtors_aux+0x4f>
 8048d20:	a1 88 f1 04 08       	mov    0x804f188,%eax
 8048d25:	bb 00 ef 04 08       	mov    $0x804ef00,%ebx
 8048d2a:	81 eb fc ee 04 08    	sub    $0x804eefc,%ebx
 8048d30:	c1 fb 02             	sar    $0x2,%ebx
 8048d33:	83 eb 01             	sub    $0x1,%ebx
 8048d36:	39 d8                	cmp    %ebx,%eax
 8048d38:	73 1e                	jae    8048d58 <__do_global_dtors_aux+0x48>
 8048d3a:	8d b6 00 00 00 00    	lea    0x0(%esi),%esi
 8048d40:	83 c0 01             	add    $0x1,%eax
 8048d43:	a3 88 f1 04 08       	mov    %eax,0x804f188
 8048d48:	ff 14 85 fc ee 04 08 	call   *0x804eefc(,%eax,4)
 8048d4f:	a1 88 f1 04 08       	mov    0x804f188,%eax
 8048d54:	39 d8                	cmp    %ebx,%eax
 8048d56:	72 e8                	jb     8048d40 <__do_global_dtors_aux+0x30>
 8048d58:	c6 05 84 f1 04 08 01 	movb   $0x1,0x804f184
 8048d5f:	83 c4 04             	add    $0x4,%esp
 8048d62:	5b                   	pop    %ebx
 8048d63:	5d                   	pop    %ebp
 8048d64:	c3                   	ret    
 8048d65:	8d 74 26 00          	lea    0x0(%esi,%eiz,1),%esi
 8048d69:	8d bc 27 00 00 00 00 	lea    0x0(%edi,%eiz,1),%edi

08048d70 <frame_dummy>:
frame_dummy():
 8048d70:	55                   	push   %ebp
 8048d71:	89 e5                	mov    %esp,%ebp
 8048d73:	83 ec 18             	sub    $0x18,%esp
 8048d76:	a1 04 ef 04 08       	mov    0x804ef04,%eax
 8048d7b:	85 c0                	test   %eax,%eax
 8048d7d:	74 12                	je     8048d91 <frame_dummy+0x21>
 8048d7f:	b8 00 00 00 00       	mov    $0x0,%eax
 8048d84:	85 c0                	test   %eax,%eax
 8048d86:	74 09                	je     8048d91 <frame_dummy+0x21>
 8048d88:	c7 04 24 04 ef 04 08 	movl   $0x804ef04,(%esp)
 8048d8f:	ff d0                	call   *%eax
 8048d91:	c9                   	leave  
 8048d92:	c3                   	ret    
 8048d93:	90                   	nop

08048d94 <_ZN13TestExceptionC2Ev>:
TestException():
/home/fabrizio/Workspaces/workspaceCPP_RegressionExample/WorkersMap-namespace/Debug/../src/TestException.cpp:10
 8048d94:	55                   	push   %ebp
 8048d95:	89 e5                	mov    %esp,%ebp
 8048d97:	8b 45 08             	mov    0x8(%ebp),%eax
 8048d9a:	c7 00 28 b8 04 08    	movl   $0x804b828,(%eax)
/home/fabrizio/Workspaces/workspaceCPP_RegressionExample/WorkersMap-namespace/Debug/../src/TestException.cpp:12
 8048da0:	5d                   	pop    %ebp
 8048da1:	c3                   	ret    

08048da2 <_ZN13TestExceptionC1Ev>:
/home/fabrizio/Workspaces/workspaceCPP_RegressionExample/WorkersMap-namespace/Debug/../src/TestException.cpp:10
 8048da2:	55                   	push   %ebp
 8048da3:	89 e5                	mov    %esp,%ebp
 8048da5:	8b 45 08             	mov    0x8(%ebp),%eax
 8048da8:	c7 00 28 b8 04 08    	movl   $0x804b828,(%eax)
/home/fabrizio/Workspaces/workspaceCPP_RegressionExample/WorkersMap-namespace/Debug/../src/TestException.cpp:12
 8048dae:	5d                   	pop    %ebp
 8048daf:	c3                   	ret    

08048db0 <_ZN13TestExceptionD2Ev>:
~TestException():
/home/fabrizio/Workspaces/workspaceCPP_RegressionExample/WorkersMap-namespace/Debug/../src/TestException.cpp:14
 8048db0:	55                   	push   %ebp
 8048db1:	89 e5                	mov    %esp,%ebp
 8048db3:	83 ec 18             	sub    $0x18,%esp
 8048db6:	8b 45 08             	mov    0x8(%ebp),%eax
 8048db9:	c7 00 28 b8 04 08    	movl   $0x804b828,(%eax)
/home/fabrizio/Workspaces/workspaceCPP_RegressionExample/WorkersMap-namespace/Debug/../src/TestException.cpp:16
 8048dbf:	b8 00 00 00 00       	mov    $0x0,%eax
 8048dc4:	84 c0                	test   %al,%al
 8048dc6:	74 0b                	je     8048dd3 <_ZN13TestExceptionD2Ev+0x23>
 8048dc8:	8b 45 08             	mov    0x8(%ebp),%eax
 8048dcb:	89 04 24             	mov    %eax,(%esp)
 8048dce:	e8 61 fd ff ff       	call   8048b34 <_ZdlPv@plt>
 8048dd3:	c9                   	leave  
 8048dd4:	c3                   	ret    
_ZN13TestExceptionD2Ev():
 8048dd5:	90                   	nop

08048dd6 <_ZN13TestExceptionD1Ev>:
~TestException():
/home/fabrizio/Workspaces/workspaceCPP_RegressionExample/WorkersMap-namespace/Debug/../src/TestException.cpp:14
 8048dd6:	55                   	push   %ebp
 8048dd7:	89 e5                	mov    %esp,%ebp
 8048dd9:	83 ec 18             	sub    $0x18,%esp
 8048ddc:	8b 45 08             	mov    0x8(%ebp),%eax
 8048ddf:	c7 00 28 b8 04 08    	movl   $0x804b828,(%eax)
/home/fabrizio/Workspaces/workspaceCPP_RegressionExample/WorkersMap-namespace/Debug/../src/TestException.cpp:16
 8048de5:	b8 00 00 00 00       	mov    $0x0,%eax
 8048dea:	84 c0                	test   %al,%al
 8048dec:	74 0b                	je     8048df9 <_ZN13TestExceptionD1Ev+0x23>
 8048dee:	8b 45 08             	mov    0x8(%ebp),%eax
 8048df1:	89 04 24             	mov    %eax,(%esp)
 8048df4:	e8 3b fd ff ff       	call   8048b34 <_ZdlPv@plt>
 8048df9:	c9                   	leave  
 8048dfa:	c3                   	ret    
_ZN13TestExceptionD1Ev():
 8048dfb:	90                   	nop

08048dfc <_ZN13TestExceptionD0Ev>:
~TestException():
/home/fabrizio/Workspaces/workspaceCPP_RegressionExample/WorkersMap-namespace/Debug/../src/TestException.cpp:14
 8048dfc:	55                   	push   %ebp
 8048dfd:	89 e5                	mov    %esp,%ebp
 8048dff:	83 ec 18             	sub    $0x18,%esp
 8048e02:	8b 45 08             	mov    0x8(%ebp),%eax
 8048e05:	c7 00 28 b8 04 08    	movl   $0x804b828,(%eax)
/home/fabrizio/Workspaces/workspaceCPP_RegressionExample/WorkersMap-namespace/Debug/../src/TestException.cpp:16
 8048e0b:	b8 01 00 00 00       	mov    $0x1,%eax
 8048e10:	84 c0                	test   %al,%al
 8048e12:	74 0b                	je     8048e1f <_ZN13TestExceptionD0Ev+0x23>
 8048e14:	8b 45 08             	mov    0x8(%ebp),%eax
 8048e17:	89 04 24             	mov    %eax,(%esp)
 8048e1a:	e8 15 fd ff ff       	call   8048b34 <_ZdlPv@plt>
 8048e1f:	c9                   	leave  
 8048e20:	c3                   	ret    
_ZN13TestExceptionD0Ev():
 8048e21:	90                   	nop
 8048e22:	90                   	nop
 8048e23:	90                   	nop

08048e24 <_ZN7workers10WorkersMapC2Ev>:
WorkersMap():
/home/fabrizio/Workspaces/workspaceCPP_RegressionExample/WorkersMap-namespace/Debug/../src/WorkersMap.cpp:12
 8048e24:	55                   	push   %ebp
 8048e25:	89 e5                	mov    %esp,%ebp
 8048e27:	83 ec 18             	sub    $0x18,%esp
 8048e2a:	8b 45 08             	mov    0x8(%ebp),%eax
 8048e2d:	c7 00 50 b8 04 08    	movl   $0x804b850,(%eax)
 8048e33:	8b 45 08             	mov    0x8(%ebp),%eax
 8048e36:	83 c0 04             	add    $0x4,%eax
 8048e39:	89 04 24             	mov    %eax,(%esp)
 8048e3c:	e8 ed 03 00 00       	call   804922e <_ZNSt3mapISslSt4lessISsESaISt4pairIKSslEEEC1Ev>
 8048e41:	8b 45 08             	mov    0x8(%ebp),%eax
 8048e44:	83 c0 1c             	add    $0x1c,%eax
 8048e47:	89 04 24             	mov    %eax,(%esp)
 8048e4a:	e8 57 04 00 00       	call   80492a6 <_ZNSt17_Rb_tree_iteratorISt4pairIKSslEEC1Ev>
/home/fabrizio/Workspaces/workspaceCPP_RegressionExample/WorkersMap-namespace/Debug/../src/WorkersMap.cpp:15
 8048e4f:	c9                   	leave  
 8048e50:	c3                   	ret    
_ZN7workers10WorkersMapC2Ev():
 8048e51:	90                   	nop

08048e52 <_ZN7workers10WorkersMapC1Ev>:
WorkersMap():
/home/fabrizio/Workspaces/workspaceCPP_RegressionExample/WorkersMap-namespace/Debug/../src/WorkersMap.cpp:12
 8048e52:	55                   	push   %ebp
 8048e53:	89 e5                	mov    %esp,%ebp
 8048e55:	83 ec 18             	sub    $0x18,%esp
 8048e58:	8b 45 08             	mov    0x8(%ebp),%eax
 8048e5b:	c7 00 50 b8 04 08    	movl   $0x804b850,(%eax)
 8048e61:	8b 45 08             	mov    0x8(%ebp),%eax
 8048e64:	83 c0 04             	add    $0x4,%eax
 8048e67:	89 04 24             	mov    %eax,(%esp)
 8048e6a:	e8 bf 03 00 00       	call   804922e <_ZNSt3mapISslSt4lessISsESaISt4pairIKSslEEEC1Ev>
 8048e6f:	8b 45 08             	mov    0x8(%ebp),%eax
 8048e72:	83 c0 1c             	add    $0x1c,%eax
 8048e75:	89 04 24             	mov    %eax,(%esp)
 8048e78:	e8 29 04 00 00       	call   80492a6 <_ZNSt17_Rb_tree_iteratorISt4pairIKSslEEC1Ev>
/home/fabrizio/Workspaces/workspaceCPP_RegressionExample/WorkersMap-namespace/Debug/../src/WorkersMap.cpp:15
 8048e7d:	c9                   	leave  
 8048e7e:	c3                   	ret    
_ZN7workers10WorkersMapC1Ev():
 8048e7f:	90                   	nop

08048e80 <_ZN7workers10WorkersMapD2Ev>:
~WorkersMap():
/home/fabrizio/Workspaces/workspaceCPP_RegressionExample/WorkersMap-namespace/Debug/../src/WorkersMap.cpp:17
 8048e80:	55                   	push   %ebp
 8048e81:	89 e5                	mov    %esp,%ebp
 8048e83:	83 ec 18             	sub    $0x18,%esp
 8048e86:	8b 45 08             	mov    0x8(%ebp),%eax
 8048e89:	c7 00 50 b8 04 08    	movl   $0x804b850,(%eax)
/home/fabrizio/Workspaces/workspaceCPP_RegressionExample/WorkersMap-namespace/Debug/../src/WorkersMap.cpp:19
 8048e8f:	8b 45 08             	mov    0x8(%ebp),%eax
 8048e92:	83 c0 04             	add    $0x4,%eax
 8048e95:	89 04 24             	mov    %eax,(%esp)
 8048e98:	e8 55 03 00 00       	call   80491f2 <_ZNSt3mapISslSt4lessISsESaISt4pairIKSslEEED1Ev>
 8048e9d:	b8 00 00 00 00       	mov    $0x0,%eax
 8048ea2:	84 c0                	test   %al,%al
 8048ea4:	74 0b                	je     8048eb1 <_ZN7workers10WorkersMapD2Ev+0x31>
 8048ea6:	8b 45 08             	mov    0x8(%ebp),%eax
 8048ea9:	89 04 24             	mov    %eax,(%esp)
 8048eac:	e8 83 fc ff ff       	call   8048b34 <_ZdlPv@plt>
 8048eb1:	c9                   	leave  
 8048eb2:	c3                   	ret    
_ZN7workers10WorkersMapD2Ev():
 8048eb3:	90                   	nop

08048eb4 <_ZN7workers10WorkersMapD1Ev>:
~WorkersMap():
/home/fabrizio/Workspaces/workspaceCPP_RegressionExample/WorkersMap-namespace/Debug/../src/WorkersMap.cpp:17
 8048eb4:	55                   	push   %ebp
 8048eb5:	89 e5                	mov    %esp,%ebp
 8048eb7:	83 ec 18             	sub    $0x18,%esp
 8048eba:	8b 45 08             	mov    0x8(%ebp),%eax
 8048ebd:	c7 00 50 b8 04 08    	movl   $0x804b850,(%eax)
/home/fabrizio/Workspaces/workspaceCPP_RegressionExample/WorkersMap-namespace/Debug/../src/WorkersMap.cpp:19
 8048ec3:	8b 45 08             	mov    0x8(%ebp),%eax
 8048ec6:	83 c0 04             	add    $0x4,%eax
 8048ec9:	89 04 24             	mov    %eax,(%esp)
 8048ecc:	e8 21 03 00 00       	call   80491f2 <_ZNSt3mapISslSt4lessISsESaISt4pairIKSslEEED1Ev>
 8048ed1:	b8 00 00 00 00       	mov    $0x0,%eax
 8048ed6:	84 c0                	test   %al,%al
 8048ed8:	74 0b                	je     8048ee5 <_ZN7workers10WorkersMapD1Ev+0x31>
 8048eda:	8b 45 08             	mov    0x8(%ebp),%eax
 8048edd:	89 04 24             	mov    %eax,(%esp)
 8048ee0:	e8 4f fc ff ff       	call   8048b34 <_ZdlPv@plt>
 8048ee5:	c9                   	leave  
 8048ee6:	c3                   	ret    
_ZN7workers10WorkersMapD1Ev():
 8048ee7:	90                   	nop

08048ee8 <_ZN7workers10WorkersMapD0Ev>:
~WorkersMap():
/home/fabrizio/Workspaces/workspaceCPP_RegressionExample/WorkersMap-namespace/Debug/../src/WorkersMap.cpp:17
 8048ee8:	55                   	push   %ebp
 8048ee9:	89 e5                	mov    %esp,%ebp
 8048eeb:	83 ec 18             	sub    $0x18,%esp
 8048eee:	8b 45 08             	mov    0x8(%ebp),%eax
 8048ef1:	c7 00 50 b8 04 08    	movl   $0x804b850,(%eax)
/home/fabrizio/Workspaces/workspaceCPP_RegressionExample/WorkersMap-namespace/Debug/../src/WorkersMap.cpp:19
 8048ef7:	8b 45 08             	mov    0x8(%ebp),%eax
 8048efa:	83 c0 04             	add    $0x4,%eax
 8048efd:	89 04 24             	mov    %eax,(%esp)
 8048f00:	e8 ed 02 00 00       	call   80491f2 <_ZNSt3mapISslSt4lessISsESaISt4pairIKSslEEED1Ev>
 8048f05:	b8 01 00 00 00       	mov    $0x1,%eax
 8048f0a:	84 c0                	test   %al,%al
 8048f0c:	74 0b                	je     8048f19 <_ZN7workers10WorkersMapD0Ev+0x31>
 8048f0e:	8b 45 08             	mov    0x8(%ebp),%eax
 8048f11:	89 04 24             	mov    %eax,(%esp)
 8048f14:	e8 1b fc ff ff       	call   8048b34 <_ZdlPv@plt>
 8048f19:	c9                   	leave  
 8048f1a:	c3                   	ret    
_ZN7workers10WorkersMapD0Ev():
 8048f1b:	90                   	nop

08048f1c <_ZN7workers10WorkersMap9getSalaryESs>:
_ZN7workers10WorkersMap9getSalaryESs():
/home/fabrizio/Workspaces/workspaceCPP_RegressionExample/WorkersMap-namespace/Debug/../src/WorkersMap.cpp:22
 8048f1c:	55                   	push   %ebp
 8048f1d:	89 e5                	mov    %esp,%ebp
 8048f1f:	56                   	push   %esi
 8048f20:	53                   	push   %ebx
 8048f21:	83 ec 20             	sub    $0x20,%esp
/home/fabrizio/Workspaces/workspaceCPP_RegressionExample/WorkersMap-namespace/Debug/../src/WorkersMap.cpp:24
 8048f24:	8b 45 0c             	mov    0xc(%ebp),%eax
 8048f27:	89 44 24 04          	mov    %eax,0x4(%esp)
 8048f2b:	8d 45 f4             	lea    -0xc(%ebp),%eax
 8048f2e:	89 04 24             	mov    %eax,(%esp)
 8048f31:	e8 5e fc ff ff       	call   8048b94 <_ZNSsC1ERKSs@plt>
 8048f36:	8d 45 f4             	lea    -0xc(%ebp),%eax
 8048f39:	89 44 24 04          	mov    %eax,0x4(%esp)
 8048f3d:	8b 45 08             	mov    0x8(%ebp),%eax
 8048f40:	89 04 24             	mov    %eax,(%esp)
 8048f43:	e8 14 01 00 00       	call   804905c <_ZN7workers10WorkersMap8isWorkerESs>
 8048f48:	89 c3                	mov    %eax,%ebx
 8048f4a:	83 f3 01             	xor    $0x1,%ebx
 8048f4d:	8d 45 f4             	lea    -0xc(%ebp),%eax
 8048f50:	89 04 24             	mov    %eax,(%esp)
 8048f53:	e8 6c fc ff ff       	call   8048bc4 <_ZNSsD1Ev@plt>
 8048f58:	84 db                	test   %bl,%bl
 8048f5a:	75 1d                	jne    8048f79 <_ZN7workers10WorkersMap9getSalaryESs+0x5d>
 8048f5c:	eb 22                	jmp    8048f80 <_ZN7workers10WorkersMap9getSalaryESs+0x64>
 8048f5e:	89 d3                	mov    %edx,%ebx
 8048f60:	89 c6                	mov    %eax,%esi
 8048f62:	8d 45 f4             	lea    -0xc(%ebp),%eax
 8048f65:	89 04 24             	mov    %eax,(%esp)
 8048f68:	e8 57 fc ff ff       	call   8048bc4 <_ZNSsD1Ev@plt>
 8048f6d:	89 f0                	mov    %esi,%eax
 8048f6f:	89 da                	mov    %ebx,%edx
 8048f71:	89 04 24             	mov    %eax,(%esp)
 8048f74:	e8 4b fd ff ff       	call   8048cc4 <_Unwind_Resume@plt>
/home/fabrizio/Workspaces/workspaceCPP_RegressionExample/WorkersMap-namespace/Debug/../src/WorkersMap.cpp:25
 8048f79:	b8 00 00 00 00       	mov    $0x0,%eax
 8048f7e:	eb 2d                	jmp    8048fad <_ZN7workers10WorkersMap9getSalaryESs+0x91>
/home/fabrizio/Workspaces/workspaceCPP_RegressionExample/WorkersMap-namespace/Debug/../src/WorkersMap.cpp:28
 8048f80:	8b 45 08             	mov    0x8(%ebp),%eax
 8048f83:	8d 48 04             	lea    0x4(%eax),%ecx
 8048f86:	8d 45 f0             	lea    -0x10(%ebp),%eax
 8048f89:	8b 55 0c             	mov    0xc(%ebp),%edx
 8048f8c:	89 54 24 08          	mov    %edx,0x8(%esp)
 8048f90:	89 4c 24 04          	mov    %ecx,0x4(%esp)
 8048f94:	89 04 24             	mov    %eax,(%esp)
 8048f97:	e8 18 03 00 00       	call   80492b4 <_ZNSt3mapISslSt4lessISsESaISt4pairIKSslEEE4findERS3_>
 8048f9c:	83 ec 04             	sub    $0x4,%esp
 8048f9f:	8d 45 f0             	lea    -0x10(%ebp),%eax
 8048fa2:	89 04 24             	mov    %eax,(%esp)
 8048fa5:	e8 36 03 00 00       	call   80492e0 <_ZNKSt17_Rb_tree_iteratorISt4pairIKSslEEptEv>
 8048faa:	8b 40 04             	mov    0x4(%eax),%eax
/home/fabrizio/Workspaces/workspaceCPP_RegressionExample/WorkersMap-namespace/Debug/../src/WorkersMap.cpp:30
 8048fad:	8d 65 f8             	lea    -0x8(%ebp),%esp
 8048fb0:	83 c4 00             	add    $0x0,%esp
 8048fb3:	5b                   	pop    %ebx
 8048fb4:	5e                   	pop    %esi
 8048fb5:	5d                   	pop    %ebp
 8048fb6:	c3                   	ret    
 8048fb7:	90                   	nop

08048fb8 <_ZN7workers10WorkersMap9addWorkerESsl>:
_ZN7workers10WorkersMap9addWorkerESsl():
/home/fabrizio/Workspaces/workspaceCPP_RegressionExample/WorkersMap-namespace/Debug/../src/WorkersMap.cpp:33
 8048fb8:	55                   	push   %ebp
 8048fb9:	89 e5                	mov    %esp,%ebp
 8048fbb:	56                   	push   %esi
 8048fbc:	53                   	push   %ebx
 8048fbd:	83 ec 30             	sub    $0x30,%esp
/home/fabrizio/Workspaces/workspaceCPP_RegressionExample/WorkersMap-namespace/Debug/../src/WorkersMap.cpp:34
 8048fc0:	8d 45 10             	lea    0x10(%ebp),%eax
 8048fc3:	89 44 24 08          	mov    %eax,0x8(%esp)
 8048fc7:	8b 45 0c             	mov    0xc(%ebp),%eax
 8048fca:	89 44 24 04          	mov    %eax,0x4(%esp)
 8048fce:	8d 45 f0             	lea    -0x10(%ebp),%eax
 8048fd1:	89 04 24             	mov    %eax,(%esp)
 8048fd4:	e8 15 03 00 00       	call   80492ee <_ZNSt4pairISslEC1ERKSsRKl>
 8048fd9:	8d 45 f0             	lea    -0x10(%ebp),%eax
 8048fdc:	89 44 24 04          	mov    %eax,0x4(%esp)
 8048fe0:	8d 45 e8             	lea    -0x18(%ebp),%eax
 8048fe3:	89 04 24             	mov    %eax,(%esp)
 8048fe6:	e8 29 03 00 00       	call   8049314 <_ZNSt4pairIKSslEC1ISslEERKS_IT_T0_E>
 8048feb:	8b 45 08             	mov    0x8(%ebp),%eax
 8048fee:	8d 48 04             	lea    0x4(%eax),%ecx
 8048ff1:	8d 45 e0             	lea    -0x20(%ebp),%eax
 8048ff4:	8d 55 e8             	lea    -0x18(%ebp),%edx
 8048ff7:	89 54 24 08          	mov    %edx,0x8(%esp)
 8048ffb:	89 4c 24 04          	mov    %ecx,0x4(%esp)
 8048fff:	89 04 24             	mov    %eax,(%esp)
 8049002:	e8 33 03 00 00       	call   804933a <_ZNSt3mapISslSt4lessISsESaISt4pairIKSslEEE6insertERKS4_>
 8049007:	83 ec 04             	sub    $0x4,%esp
 804900a:	8d 45 e8             	lea    -0x18(%ebp),%eax
 804900d:	89 04 24             	mov    %eax,(%esp)
 8049010:	e8 05 02 00 00       	call   804921a <_ZNSt4pairIKSslED1Ev>
 8049015:	eb 15                	jmp    804902c <_ZN7workers10WorkersMap9addWorkerESsl+0x74>
 8049017:	89 d3                	mov    %edx,%ebx
 8049019:	89 c6                	mov    %eax,%esi
 804901b:	8d 45 e8             	lea    -0x18(%ebp),%eax
 804901e:	89 04 24             	mov    %eax,(%esp)
 8049021:	e8 f4 01 00 00       	call   804921a <_ZNSt4pairIKSslED1Ev>
 8049026:	89 f0                	mov    %esi,%eax
 8049028:	89 da                	mov    %ebx,%edx
 804902a:	eb 15                	jmp    8049041 <_ZN7workers10WorkersMap9addWorkerESsl+0x89>
 804902c:	8d 45 f0             	lea    -0x10(%ebp),%eax
 804902f:	89 04 24             	mov    %eax,(%esp)
 8049032:	e8 cf 01 00 00       	call   8049206 <_ZNSt4pairISslED1Ev>
/home/fabrizio/Workspaces/workspaceCPP_RegressionExample/WorkersMap-namespace/Debug/../src/WorkersMap.cpp:35
 8049037:	8d 65 f8             	lea    -0x8(%ebp),%esp
 804903a:	83 c4 00             	add    $0x0,%esp
 804903d:	5b                   	pop    %ebx
 804903e:	5e                   	pop    %esi
 804903f:	5d                   	pop    %ebp
 8049040:	c3                   	ret    
 8049041:	89 d3                	mov    %edx,%ebx
 8049043:	89 c6                	mov    %eax,%esi
/home/fabrizio/Workspaces/workspaceCPP_RegressionExample/WorkersMap-namespace/Debug/../src/WorkersMap.cpp:34
 8049045:	8d 45 f0             	lea    -0x10(%ebp),%eax
 8049048:	89 04 24             	mov    %eax,(%esp)
 804904b:	e8 b6 01 00 00       	call   8049206 <_ZNSt4pairISslED1Ev>
 8049050:	89 f0                	mov    %esi,%eax
 8049052:	89 da                	mov    %ebx,%edx
 8049054:	89 04 24             	mov    %eax,(%esp)
 8049057:	e8 68 fc ff ff       	call   8048cc4 <_Unwind_Resume@plt>

0804905c <_ZN7workers10WorkersMap8isWorkerESs>:
_ZN7workers10WorkersMap8isWorkerESs():
/home/fabrizio/Workspaces/workspaceCPP_RegressionExample/WorkersMap-namespace/Debug/../src/WorkersMap.cpp:37
 804905c:	55                   	push   %ebp
 804905d:	89 e5                	mov    %esp,%ebp
 804905f:	83 ec 18             	sub    $0x18,%esp
/home/fabrizio/Workspaces/workspaceCPP_RegressionExample/WorkersMap-namespace/Debug/../src/WorkersMap.cpp:38
 8049062:	8b 45 08             	mov    0x8(%ebp),%eax
 8049065:	8d 50 04             	lea    0x4(%eax),%edx
 8049068:	8b 45 0c             	mov    0xc(%ebp),%eax
 804906b:	89 44 24 04          	mov    %eax,0x4(%esp)
 804906f:	89 14 24             	mov    %edx,(%esp)
 8049072:	e8 ef 02 00 00       	call   8049366 <_ZNKSt3mapISslSt4lessISsESaISt4pairIKSslEEE5countERS3_>
 8049077:	85 c0                	test   %eax,%eax
 8049079:	0f 94 c0             	sete   %al
 804907c:	84 c0                	test   %al,%al
 804907e:	74 07                	je     8049087 <_ZN7workers10WorkersMap8isWorkerESs+0x2b>
/home/fabrizio/Workspaces/workspaceCPP_RegressionExample/WorkersMap-namespace/Debug/../src/WorkersMap.cpp:39
 8049080:	b8 00 00 00 00       	mov    $0x0,%eax
 8049085:	eb 05                	jmp    804908c <_ZN7workers10WorkersMap8isWorkerESs+0x30>
/home/fabrizio/Workspaces/workspaceCPP_RegressionExample/WorkersMap-namespace/Debug/../src/WorkersMap.cpp:41
 8049087:	b8 01 00 00 00       	mov    $0x1,%eax
/home/fabrizio/Workspaces/workspaceCPP_RegressionExample/WorkersMap-namespace/Debug/../src/WorkersMap.cpp:42
 804908c:	c9                   	leave  
 804908d:	c3                   	ret    

0804908e <_ZN7workers10WorkersMap16getAverageSalaryESt4listISsSaISsEE>:
_ZN7workers10WorkersMap16getAverageSalaryESt4listISsSaISsEE():
/home/fabrizio/Workspaces/workspaceCPP_RegressionExample/WorkersMap-namespace/Debug/../src/WorkersMap.cpp:44
 804908e:	55                   	push   %ebp
 804908f:	89 e5                	mov    %esp,%ebp
 8049091:	56                   	push   %esi
 8049092:	53                   	push   %ebx
 8049093:	83 ec 40             	sub    $0x40,%esp
/home/fabrizio/Workspaces/workspaceCPP_RegressionExample/WorkersMap-namespace/Debug/../src/WorkersMap.cpp:45
 8049096:	8d 45 f4             	lea    -0xc(%ebp),%eax
 8049099:	89 04 24             	mov    %eax,(%esp)
 804909c:	e8 21 03 00 00       	call   80493c2 <_ZNSt14_List_iteratorISsEC1Ev>
/home/fabrizio/Workspaces/workspaceCPP_RegressionExample/WorkersMap-namespace/Debug/../src/WorkersMap.cpp:47
 80490a1:	c7 45 f0 00 00 00 00 	movl   $0x0,-0x10(%ebp)
/home/fabrizio/Workspaces/workspaceCPP_RegressionExample/WorkersMap-namespace/Debug/../src/WorkersMap.cpp:48
 80490a8:	c7 45 ec 00 00 00 00 	movl   $0x0,-0x14(%ebp)
/home/fabrizio/Workspaces/workspaceCPP_RegressionExample/WorkersMap-namespace/Debug/../src/WorkersMap.cpp:49
 80490af:	8d 45 d4             	lea    -0x2c(%ebp),%eax
 80490b2:	8b 55 0c             	mov    0xc(%ebp),%edx
 80490b5:	89 54 24 04          	mov    %edx,0x4(%esp)
 80490b9:	89 04 24             	mov    %eax,(%esp)
 80490bc:	e8 0f 03 00 00       	call   80493d0 <_ZNSt4listISsSaISsEE5beginEv>
 80490c1:	83 ec 04             	sub    $0x4,%esp
 80490c4:	8b 45 d4             	mov    -0x2c(%ebp),%eax
 80490c7:	89 45 f4             	mov    %eax,-0xc(%ebp)
 80490ca:	e9 c4 00 00 00       	jmp    8049193 <_ZN7workers10WorkersMap16getAverageSalaryESt4listISsSaISsEE+0x105>
/home/fabrizio/Workspaces/workspaceCPP_RegressionExample/WorkersMap-namespace/Debug/../src/WorkersMap.cpp:50
 80490cf:	8d 45 f4             	lea    -0xc(%ebp),%eax
 80490d2:	89 04 24             	mov    %eax,(%esp)
 80490d5:	e8 68 03 00 00       	call   8049442 <_ZNKSt14_List_iteratorISsEdeEv>
 80490da:	89 44 24 04          	mov    %eax,0x4(%esp)
 80490de:	8d 45 e4             	lea    -0x1c(%ebp),%eax
 80490e1:	89 04 24             	mov    %eax,(%esp)
 80490e4:	e8 ab fa ff ff       	call   8048b94 <_ZNSsC1ERKSs@plt>
 80490e9:	8d 45 e4             	lea    -0x1c(%ebp),%eax
 80490ec:	89 44 24 04          	mov    %eax,0x4(%esp)
 80490f0:	8b 45 08             	mov    0x8(%ebp),%eax
 80490f3:	89 04 24             	mov    %eax,(%esp)
 80490f6:	e8 21 fe ff ff       	call   8048f1c <_ZN7workers10WorkersMap9getSalaryESs>
 80490fb:	85 c0                	test   %eax,%eax
 80490fd:	0f 94 c3             	sete   %bl
 8049100:	8d 45 e4             	lea    -0x1c(%ebp),%eax
 8049103:	89 04 24             	mov    %eax,(%esp)
 8049106:	e8 b9 fa ff ff       	call   8048bc4 <_ZNSsD1Ev@plt>
 804910b:	84 db                	test   %bl,%bl
 804910d:	75 78                	jne    8049187 <_ZN7workers10WorkersMap16getAverageSalaryESt4listISsSaISsEE+0xf9>
 804910f:	eb 1b                	jmp    804912c <_ZN7workers10WorkersMap16getAverageSalaryESt4listISsSaISsEE+0x9e>
 8049111:	89 d3                	mov    %edx,%ebx
 8049113:	89 c6                	mov    %eax,%esi
 8049115:	8d 45 e4             	lea    -0x1c(%ebp),%eax
 8049118:	89 04 24             	mov    %eax,(%esp)
 804911b:	e8 a4 fa ff ff       	call   8048bc4 <_ZNSsD1Ev@plt>
 8049120:	89 f0                	mov    %esi,%eax
 8049122:	89 da                	mov    %ebx,%edx
 8049124:	89 04 24             	mov    %eax,(%esp)
 8049127:	e8 98 fb ff ff       	call   8048cc4 <_Unwind_Resume@plt>
/home/fabrizio/Workspaces/workspaceCPP_RegressionExample/WorkersMap-namespace/Debug/../src/WorkersMap.cpp:53
 804912c:	8d 45 f4             	lea    -0xc(%ebp),%eax
 804912f:	89 04 24             	mov    %eax,(%esp)
 8049132:	e8 0b 03 00 00       	call   8049442 <_ZNKSt14_List_iteratorISsEdeEv>
 8049137:	89 44 24 04          	mov    %eax,0x4(%esp)
 804913b:	8d 45 e0             	lea    -0x20(%ebp),%eax
 804913e:	89 04 24             	mov    %eax,(%esp)
 8049141:	e8 4e fa ff ff       	call   8048b94 <_ZNSsC1ERKSs@plt>
 8049146:	8d 45 e0             	lea    -0x20(%ebp),%eax
 8049149:	89 44 24 04          	mov    %eax,0x4(%esp)
 804914d:	8b 45 08             	mov    0x8(%ebp),%eax
 8049150:	89 04 24             	mov    %eax,(%esp)
 8049153:	e8 c4 fd ff ff       	call   8048f1c <_ZN7workers10WorkersMap9getSalaryESs>
 8049158:	01 45 f0             	add    %eax,-0x10(%ebp)
 804915b:	8d 45 e0             	lea    -0x20(%ebp),%eax
 804915e:	89 04 24             	mov    %eax,(%esp)
 8049161:	e8 5e fa ff ff       	call   8048bc4 <_ZNSsD1Ev@plt>
/home/fabrizio/Workspaces/workspaceCPP_RegressionExample/WorkersMap-namespace/Debug/../src/WorkersMap.cpp:54
 8049166:	83 45 ec 01          	addl   $0x1,-0x14(%ebp)
 804916a:	eb 1c                	jmp    8049188 <_ZN7workers10WorkersMap16getAverageSalaryESt4listISsSaISsEE+0xfa>
 804916c:	89 d3                	mov    %edx,%ebx
 804916e:	89 c6                	mov    %eax,%esi
/home/fabrizio/Workspaces/workspaceCPP_RegressionExample/WorkersMap-namespace/Debug/../src/WorkersMap.cpp:53
 8049170:	8d 45 e0             	lea    -0x20(%ebp),%eax
 8049173:	89 04 24             	mov    %eax,(%esp)
 8049176:	e8 49 fa ff ff       	call   8048bc4 <_ZNSsD1Ev@plt>
 804917b:	89 f0                	mov    %esi,%eax
 804917d:	89 da                	mov    %ebx,%edx
 804917f:	89 04 24             	mov    %eax,(%esp)
 8049182:	e8 3d fb ff ff       	call   8048cc4 <_Unwind_Resume@plt>
/home/fabrizio/Workspaces/workspaceCPP_RegressionExample/WorkersMap-namespace/Debug/../src/WorkersMap.cpp:51
 8049187:	90                   	nop
/home/fabrizio/Workspaces/workspaceCPP_RegressionExample/WorkersMap-namespace/Debug/../src/WorkersMap.cpp:49
 8049188:	8d 45 f4             	lea    -0xc(%ebp),%eax
 804918b:	89 04 24             	mov    %eax,(%esp)
 804918e:	e8 9b 02 00 00       	call   804942e <_ZNSt14_List_iteratorISsEppEv>
 8049193:	8d 45 e8             	lea    -0x18(%ebp),%eax
 8049196:	8b 55 0c             	mov    0xc(%ebp),%edx
 8049199:	89 54 24 04          	mov    %edx,0x4(%esp)
 804919d:	89 04 24             	mov    %eax,(%esp)
 80491a0:	e8 51 02 00 00       	call   80493f6 <_ZNSt4listISsSaISsEE3endEv>
 80491a5:	83 ec 04             	sub    $0x4,%esp
 80491a8:	8d 45 e8             	lea    -0x18(%ebp),%eax
 80491ab:	89 44 24 04          	mov    %eax,0x4(%esp)
 80491af:	8d 45 f4             	lea    -0xc(%ebp),%eax
 80491b2:	89 04 24             	mov    %eax,(%esp)
 80491b5:	e8 60 02 00 00       	call   804941a <_ZNKSt14_List_iteratorISsEneERKS0_>
 80491ba:	84 c0                	test   %al,%al
 80491bc:	0f 85 0d ff ff ff    	jne    80490cf <_ZN7workers10WorkersMap16getAverageSalaryESt4listISsSaISsEE+0x41>
/home/fabrizio/Workspaces/workspaceCPP_RegressionExample/WorkersMap-namespace/Debug/../src/WorkersMap.cpp:57
 80491c2:	83 7d ec 00          	cmpl   $0x0,-0x14(%ebp)
 80491c6:	75 07                	jne    80491cf <_ZN7workers10WorkersMap16getAverageSalaryESt4listISsSaISsEE+0x141>
/home/fabrizio/Workspaces/workspaceCPP_RegressionExample/WorkersMap-namespace/Debug/../src/WorkersMap.cpp:58
 80491c8:	b8 ff ff ff ff       	mov    $0xffffffff,%eax
 80491cd:	eb 0b                	jmp    80491da <_ZN7workers10WorkersMap16getAverageSalaryESt4listISsSaISsEE+0x14c>
/home/fabrizio/Workspaces/workspaceCPP_RegressionExample/WorkersMap-namespace/Debug/../src/WorkersMap.cpp:61
 80491cf:	8b 45 f0             	mov    -0x10(%ebp),%eax
 80491d2:	89 c2                	mov    %eax,%edx
 80491d4:	c1 fa 1f             	sar    $0x1f,%edx
 80491d7:	f7 7d ec             	idivl  -0x14(%ebp)
/home/fabrizio/Workspaces/workspaceCPP_RegressionExample/WorkersMap-namespace/Debug/../src/WorkersMap.cpp:62
 80491da:	8d 65 f8             	lea    -0x8(%ebp),%esp
 80491dd:	83 c4 00             	add    $0x0,%esp
 80491e0:	5b                   	pop    %ebx
 80491e1:	5e                   	pop    %esi
 80491e2:	5d                   	pop    %ebp
 80491e3:	c3                   	ret    

080491e4 <_ZnwjPv>:
_ZnwjPv():
/usr/include/c++/4.4/new:101
 80491e4:	55                   	push   %ebp
 80491e5:	89 e5                	mov    %esp,%ebp
 80491e7:	8b 45 0c             	mov    0xc(%ebp),%eax
 80491ea:	5d                   	pop    %ebp
 80491eb:	c3                   	ret    

080491ec <_ZdlPvS_>:
_ZdlPvS_():
/usr/include/c++/4.4/new:105
 80491ec:	55                   	push   %ebp
 80491ed:	89 e5                	mov    %esp,%ebp
 80491ef:	5d                   	pop    %ebp
 80491f0:	c3                   	ret    
 80491f1:	90                   	nop

080491f2 <_ZNSt3mapISslSt4lessISsESaISt4pairIKSslEEED1Ev>:
~map():
/usr/include/c++/4.4/bits/stl_map.h:87
 80491f2:	55                   	push   %ebp
 80491f3:	89 e5                	mov    %esp,%ebp
 80491f5:	83 ec 18             	sub    $0x18,%esp
 80491f8:	8b 45 08             	mov    0x8(%ebp),%eax
 80491fb:	89 04 24             	mov    %eax,(%esp)
 80491fe:	e8 53 00 00 00       	call   8049256 <_ZNSt8_Rb_treeISsSt4pairIKSslESt10_Select1stIS2_ESt4lessISsESaIS2_EED1Ev>
 8049203:	c9                   	leave  
 8049204:	c3                   	ret    
_ZNSt3mapISslSt4lessISsESaISt4pairIKSslEEED1Ev():
 8049205:	90                   	nop

08049206 <_ZNSt4pairISslED1Ev>:
~pair():
/usr/include/c++/4.4/bits/stl_pair.h:68
 8049206:	55                   	push   %ebp
 8049207:	89 e5                	mov    %esp,%ebp
 8049209:	83 ec 18             	sub    $0x18,%esp
 804920c:	8b 45 08             	mov    0x8(%ebp),%eax
 804920f:	89 04 24             	mov    %eax,(%esp)
 8049212:	e8 ad f9 ff ff       	call   8048bc4 <_ZNSsD1Ev@plt>
 8049217:	c9                   	leave  
 8049218:	c3                   	ret    
_ZNSt4pairISslED1Ev():
 8049219:	90                   	nop

0804921a <_ZNSt4pairIKSslED1Ev>:
~pair():
 804921a:	55                   	push   %ebp
 804921b:	89 e5                	mov    %esp,%ebp
 804921d:	83 ec 18             	sub    $0x18,%esp
 8049220:	8b 45 08             	mov    0x8(%ebp),%eax
 8049223:	89 04 24             	mov    %eax,(%esp)
 8049226:	e8 99 f9 ff ff       	call   8048bc4 <_ZNSsD1Ev@plt>
 804922b:	c9                   	leave  
 804922c:	c3                   	ret    
_ZNSt4pairIKSslED1Ev():
 804922d:	90                   	nop

0804922e <_ZNSt3mapISslSt4lessISsESaISt4pairIKSslEEEC1Ev>:
map():
/usr/include/c++/4.4/bits/stl_map.h:150
 804922e:	55                   	push   %ebp
 804922f:	89 e5                	mov    %esp,%ebp
 8049231:	83 ec 18             	sub    $0x18,%esp
/usr/include/c++/4.4/bits/stl_map.h:151
 8049234:	8b 45 08             	mov    0x8(%ebp),%eax
 8049237:	89 04 24             	mov    %eax,(%esp)
 804923a:	e8 11 02 00 00       	call   8049450 <_ZNSt8_Rb_treeISsSt4pairIKSslESt10_Select1stIS2_ESt4lessISsESaIS2_EEC1Ev>
 804923f:	c9                   	leave  
 8049240:	c3                   	ret    
_ZNSt3mapISslSt4lessISsESaISt4pairIKSslEEEC1Ev():
 8049241:	90                   	nop

08049242 <_ZNSt8_Rb_treeISsSt4pairIKSslESt10_Select1stIS2_ESt4lessISsESaIS2_EE13_Rb_tree_implIS6_Lb0EED1Ev>:
~_Rb_tree_impl():
/usr/include/c++/4.4/bits/stl_tree.h:427
 8049242:	55                   	push   %ebp
 8049243:	89 e5                	mov    %esp,%ebp
 8049245:	83 ec 18             	sub    $0x18,%esp
 8049248:	8b 45 08             	mov    0x8(%ebp),%eax
 804924b:	89 04 24             	mov    %eax,(%esp)
 804924e:	e8 11 02 00 00       	call   8049464 <_ZNSaISt13_Rb_tree_nodeISt4pairIKSslEEED2Ev>
 8049253:	c9                   	leave  
 8049254:	c3                   	ret    
_ZNSt8_Rb_treeISsSt4pairIKSslESt10_Select1stIS2_ESt4lessISsESaIS2_EE13_Rb_tree_implIS6_Lb0EED1Ev():
 8049255:	90                   	nop

08049256 <_ZNSt8_Rb_treeISsSt4pairIKSslESt10_Select1stIS2_ESt4lessISsESaIS2_EED1Ev>:
~_Rb_tree():
/usr/include/c++/4.4/bits/stl_tree.h:613
 8049256:	55                   	push   %ebp
 8049257:	89 e5                	mov    %esp,%ebp
 8049259:	56                   	push   %esi
 804925a:	53                   	push   %ebx
 804925b:	83 ec 10             	sub    $0x10,%esp
/usr/include/c++/4.4/bits/stl_tree.h:614
 804925e:	8b 45 08             	mov    0x8(%ebp),%eax
 8049261:	89 04 24             	mov    %eax,(%esp)
 8049264:	e8 65 02 00 00       	call   80494ce <_ZNSt8_Rb_treeISsSt4pairIKSslESt10_Select1stIS2_ESt4lessISsESaIS2_EE8_M_beginEv>
 8049269:	89 44 24 04          	mov    %eax,0x4(%esp)
 804926d:	8b 45 08             	mov    0x8(%ebp),%eax
 8049270:	89 04 24             	mov    %eax,(%esp)
 8049273:	e8 00 02 00 00       	call   8049478 <_ZNSt8_Rb_treeISsSt4pairIKSslESt10_Select1stIS2_ESt4lessISsESaIS2_EE8_M_eraseEPSt13_Rb_tree_nodeIS2_E>
 8049278:	8b 45 08             	mov    0x8(%ebp),%eax
 804927b:	89 04 24             	mov    %eax,(%esp)
 804927e:	e8 bf ff ff ff       	call   8049242 <_ZNSt8_Rb_treeISsSt4pairIKSslESt10_Select1stIS2_ESt4lessISsESaIS2_EE13_Rb_tree_implIS6_Lb0EED1Ev>
 8049283:	83 c4 10             	add    $0x10,%esp
 8049286:	5b                   	pop    %ebx
 8049287:	5e                   	pop    %esi
 8049288:	5d                   	pop    %ebp
 8049289:	c3                   	ret    
 804928a:	89 d3                	mov    %edx,%ebx
 804928c:	89 c6                	mov    %eax,%esi
 804928e:	8b 45 08             	mov    0x8(%ebp),%eax
 8049291:	89 04 24             	mov    %eax,(%esp)
 8049294:	e8 a9 ff ff ff       	call   8049242 <_ZNSt8_Rb_treeISsSt4pairIKSslESt10_Select1stIS2_ESt4lessISsESaIS2_EE13_Rb_tree_implIS6_Lb0EED1Ev>
 8049299:	89 f0                	mov    %esi,%eax
 804929b:	89 da                	mov    %ebx,%edx
 804929d:	89 04 24             	mov    %eax,(%esp)
 80492a0:	e8 1f fa ff ff       	call   8048cc4 <_Unwind_Resume@plt>
_ZNSt8_Rb_treeISsSt4pairIKSslESt10_Select1stIS2_ESt4lessISsESaIS2_EED1Ev():
 80492a5:	90                   	nop

080492a6 <_ZNSt17_Rb_tree_iteratorISt4pairIKSslEEC1Ev>:
_Rb_tree_iterator():
/usr/include/c++/4.4/bits/stl_tree.h:166
 80492a6:	55                   	push   %ebp
 80492a7:	89 e5                	mov    %esp,%ebp
/usr/include/c++/4.4/bits/stl_tree.h:167
 80492a9:	8b 45 08             	mov    0x8(%ebp),%eax
 80492ac:	c7 00 00 00 00 00    	movl   $0x0,(%eax)
 80492b2:	5d                   	pop    %ebp
 80492b3:	c3                   	ret    

080492b4 <_ZNSt3mapISslSt4lessISsESaISt4pairIKSslEEE4findERS3_>:
_ZNSt3mapISslSt4lessISsESaISt4pairIKSslEEE4findERS3_():
/usr/include/c++/4.4/bits/stl_map.h:658
 80492b4:	55                   	push   %ebp
 80492b5:	89 e5                	mov    %esp,%ebp
 80492b7:	53                   	push   %ebx
 80492b8:	83 ec 14             	sub    $0x14,%esp
 80492bb:	8b 5d 08             	mov    0x8(%ebp),%ebx
/usr/include/c++/4.4/bits/stl_map.h:659
 80492be:	8b 45 0c             	mov    0xc(%ebp),%eax
 80492c1:	8b 55 10             	mov    0x10(%ebp),%edx
 80492c4:	89 54 24 08          	mov    %edx,0x8(%esp)
 80492c8:	89 44 24 04          	mov    %eax,0x4(%esp)
 80492cc:	89 1c 24             	mov    %ebx,(%esp)
 80492cf:	e8 06 02 00 00       	call   80494da <_ZNSt8_Rb_treeISsSt4pairIKSslESt10_Select1stIS2_ESt4lessISsESaIS2_EE4findERS1_>
 80492d4:	83 ec 04             	sub    $0x4,%esp
 80492d7:	89 d8                	mov    %ebx,%eax
 80492d9:	8b 5d fc             	mov    -0x4(%ebp),%ebx
 80492dc:	c9                   	leave  
 80492dd:	c2 04 00             	ret    $0x4

080492e0 <_ZNKSt17_Rb_tree_iteratorISt4pairIKSslEEptEv>:
_ZNKSt17_Rb_tree_iteratorISt4pairIKSslEEptEv():
/usr/include/c++/4.4/bits/stl_tree.h:178
 80492e0:	55                   	push   %ebp
 80492e1:	89 e5                	mov    %esp,%ebp
/usr/include/c++/4.4/bits/stl_tree.h:179
 80492e3:	8b 45 08             	mov    0x8(%ebp),%eax
 80492e6:	8b 00                	mov    (%eax),%eax
 80492e8:	83 c0 10             	add    $0x10,%eax
 80492eb:	5d                   	pop    %ebp
 80492ec:	c3                   	ret    
 80492ed:	90                   	nop

080492ee <_ZNSt4pairISslEC1ERKSsRKl>:
pair():
/usr/include/c++/4.4/bits/stl_pair.h:83
 80492ee:	55                   	push   %ebp
 80492ef:	89 e5                	mov    %esp,%ebp
 80492f1:	83 ec 18             	sub    $0x18,%esp
/usr/include/c++/4.4/bits/stl_pair.h:84
 80492f4:	8b 45 08             	mov    0x8(%ebp),%eax
 80492f7:	8b 55 0c             	mov    0xc(%ebp),%edx
 80492fa:	89 54 24 04          	mov    %edx,0x4(%esp)
 80492fe:	89 04 24             	mov    %eax,(%esp)
 8049301:	e8 8e f8 ff ff       	call   8048b94 <_ZNSsC1ERKSs@plt>
 8049306:	8b 45 10             	mov    0x10(%ebp),%eax
 8049309:	8b 10                	mov    (%eax),%edx
 804930b:	8b 45 08             	mov    0x8(%ebp),%eax
 804930e:	89 50 04             	mov    %edx,0x4(%eax)
 8049311:	c9                   	leave  
 8049312:	c3                   	ret    
_ZNSt4pairISslEC1ERKSsRKl():
 8049313:	90                   	nop

08049314 <_ZNSt4pairIKSslEC1ISslEERKS_IT_T0_E>:
pair<std::basic_string<char, std::char_traits<char>, std::allocator<char> >, long int>():
/usr/include/c++/4.4/bits/stl_pair.h:99
 8049314:	55                   	push   %ebp
 8049315:	89 e5                	mov    %esp,%ebp
 8049317:	83 ec 18             	sub    $0x18,%esp
/usr/include/c++/4.4/bits/stl_pair.h:101
 804931a:	8b 55 0c             	mov    0xc(%ebp),%edx
 804931d:	8b 45 08             	mov    0x8(%ebp),%eax
 8049320:	89 54 24 04          	mov    %edx,0x4(%esp)
 8049324:	89 04 24             	mov    %eax,(%esp)
 8049327:	e8 68 f8 ff ff       	call   8048b94 <_ZNSsC1ERKSs@plt>
 804932c:	8b 45 0c             	mov    0xc(%ebp),%eax
 804932f:	8b 50 04             	mov    0x4(%eax),%edx
 8049332:	8b 45 08             	mov    0x8(%ebp),%eax
 8049335:	89 50 04             	mov    %edx,0x4(%eax)
 8049338:	c9                   	leave  
 8049339:	c3                   	ret    

0804933a <_ZNSt3mapISslSt4lessISsESaISt4pairIKSslEEE6insertERKS4_>:
_ZNSt3mapISslSt4lessISsESaISt4pairIKSslEEE6insertERKS4_():
/usr/include/c++/4.4/bits/stl_map.h:499
 804933a:	55                   	push   %ebp
 804933b:	89 e5                	mov    %esp,%ebp
 804933d:	53                   	push   %ebx
 804933e:	83 ec 14             	sub    $0x14,%esp
 8049341:	8b 5d 08             	mov    0x8(%ebp),%ebx
/usr/include/c++/4.4/bits/stl_map.h:500
 8049344:	8b 45 0c             	mov    0xc(%ebp),%eax
 8049347:	8b 55 10             	mov    0x10(%ebp),%edx
 804934a:	89 54 24 08          	mov    %edx,0x8(%esp)
 804934e:	89 44 24 04          	mov    %eax,0x4(%esp)
 8049352:	89 1c 24             	mov    %ebx,(%esp)
 8049355:	e8 3e 02 00 00       	call   8049598 <_ZNSt8_Rb_treeISsSt4pairIKSslESt10_Select1stIS2_ESt4lessISsESaIS2_EE16_M_insert_uniqueERKS2_>
 804935a:	83 ec 04             	sub    $0x4,%esp
 804935d:	89 d8                	mov    %ebx,%eax
 804935f:	8b 5d fc             	mov    -0x4(%ebp),%ebx
 8049362:	c9                   	leave  
 8049363:	c2 04 00             	ret    $0x4

08049366 <_ZNKSt3mapISslSt4lessISsESaISt4pairIKSslEEE5countERS3_>:
_ZNKSt3mapISslSt4lessISsESaISt4pairIKSslEEE5countERS3_():
/usr/include/c++/4.4/bits/stl_map.h:685
 8049366:	55                   	push   %ebp
 8049367:	89 e5                	mov    %esp,%ebp
 8049369:	83 ec 28             	sub    $0x28,%esp
/usr/include/c++/4.4/bits/stl_map.h:686
 804936c:	8b 55 08             	mov    0x8(%ebp),%edx
 804936f:	8d 45 f4             	lea    -0xc(%ebp),%eax
 8049372:	89 54 24 04          	mov    %edx,0x4(%esp)
 8049376:	89 04 24             	mov    %eax,(%esp)
 8049379:	e8 ea 03 00 00       	call   8049768 <_ZNKSt8_Rb_treeISsSt4pairIKSslESt10_Select1stIS2_ESt4lessISsESaIS2_EE3endEv>
 804937e:	83 ec 04             	sub    $0x4,%esp
 8049381:	8b 55 08             	mov    0x8(%ebp),%edx
 8049384:	8d 45 f0             	lea    -0x10(%ebp),%eax
 8049387:	8b 4d 0c             	mov    0xc(%ebp),%ecx
 804938a:	89 4c 24 08          	mov    %ecx,0x8(%esp)
 804938e:	89 54 24 04          	mov    %edx,0x4(%esp)
 8049392:	89 04 24             	mov    %eax,(%esp)
 8049395:	e8 f4 03 00 00       	call   804978e <_ZNKSt8_Rb_treeISsSt4pairIKSslESt10_Select1stIS2_ESt4lessISsESaIS2_EE4findERS1_>
 804939a:	83 ec 04             	sub    $0x4,%esp
 804939d:	8d 45 f4             	lea    -0xc(%ebp),%eax
 80493a0:	89 44 24 04          	mov    %eax,0x4(%esp)
 80493a4:	8d 45 f0             	lea    -0x10(%ebp),%eax
 80493a7:	89 04 24             	mov    %eax,(%esp)
 80493aa:	e8 9d 04 00 00       	call   804984c <_ZNKSt23_Rb_tree_const_iteratorISt4pairIKSslEEeqERKS3_>
 80493af:	84 c0                	test   %al,%al
 80493b1:	74 07                	je     80493ba <_ZNKSt3mapISslSt4lessISsESaISt4pairIKSslEEE5countERS3_+0x54>
 80493b3:	b8 00 00 00 00       	mov    $0x0,%eax
 80493b8:	eb 05                	jmp    80493bf <_ZNKSt3mapISslSt4lessISsESaISt4pairIKSslEEE5countERS3_+0x59>
 80493ba:	b8 01 00 00 00       	mov    $0x1,%eax
 80493bf:	c9                   	leave  
 80493c0:	c3                   	ret    
 80493c1:	90                   	nop

080493c2 <_ZNSt14_List_iteratorISsEC1Ev>:
_List_iterator():
/usr/include/c++/4.4/bits/stl_list.h:124
 80493c2:	55                   	push   %ebp
 80493c3:	89 e5                	mov    %esp,%ebp
/usr/include/c++/4.4/bits/stl_list.h:125
 80493c5:	8b 45 08             	mov    0x8(%ebp),%eax
 80493c8:	c7 00 00 00 00 00    	movl   $0x0,(%eax)
 80493ce:	5d                   	pop    %ebp
 80493cf:	c3                   	ret    

080493d0 <_ZNSt4listISsSaISsEE5beginEv>:
_ZNSt4listISsSaISsEE5beginEv():
/usr/include/c++/4.4/bits/stl_list.h:689
 80493d0:	55                   	push   %ebp
 80493d1:	89 e5                	mov    %esp,%ebp
 80493d3:	53                   	push   %ebx
 80493d4:	83 ec 14             	sub    $0x14,%esp
 80493d7:	8b 5d 08             	mov    0x8(%ebp),%ebx
/usr/include/c++/4.4/bits/stl_list.h:690
 80493da:	8b 45 0c             	mov    0xc(%ebp),%eax
 80493dd:	8b 00                	mov    (%eax),%eax
 80493df:	89 44 24 04          	mov    %eax,0x4(%esp)
 80493e3:	89 1c 24             	mov    %ebx,(%esp)
 80493e6:	e8 75 04 00 00       	call   8049860 <_ZNSt14_List_iteratorISsEC1EPSt15_List_node_base>
 80493eb:	89 d8                	mov    %ebx,%eax
 80493ed:	83 c4 14             	add    $0x14,%esp
 80493f0:	5b                   	pop    %ebx
 80493f1:	5d                   	pop    %ebp
 80493f2:	c2 04 00             	ret    $0x4
 80493f5:	90                   	nop

080493f6 <_ZNSt4listISsSaISsEE3endEv>:
_ZNSt4listISsSaISsEE3endEv():
/usr/include/c++/4.4/bits/stl_list.h:707
 80493f6:	55                   	push   %ebp
 80493f7:	89 e5                	mov    %esp,%ebp
 80493f9:	53                   	push   %ebx
 80493fa:	83 ec 14             	sub    $0x14,%esp
 80493fd:	8b 5d 08             	mov    0x8(%ebp),%ebx
/usr/include/c++/4.4/bits/stl_list.h:708
 8049400:	8b 45 0c             	mov    0xc(%ebp),%eax
 8049403:	89 44 24 04          	mov    %eax,0x4(%esp)
 8049407:	89 1c 24             	mov    %ebx,(%esp)
 804940a:	e8 51 04 00 00       	call   8049860 <_ZNSt14_List_iteratorISsEC1EPSt15_List_node_base>
 804940f:	89 d8                	mov    %ebx,%eax
 8049411:	83 c4 14             	add    $0x14,%esp
 8049414:	5b                   	pop    %ebx
 8049415:	5d                   	pop    %ebp
 8049416:	c2 04 00             	ret    $0x4
 8049419:	90                   	nop

0804941a <_ZNKSt14_List_iteratorISsEneERKS0_>:
_ZNKSt14_List_iteratorISsEneERKS0_():
/usr/include/c++/4.4/bits/stl_list.h:175
 804941a:	55                   	push   %ebp
 804941b:	89 e5                	mov    %esp,%ebp
/usr/include/c++/4.4/bits/stl_list.h:176
 804941d:	8b 45 08             	mov    0x8(%ebp),%eax
 8049420:	8b 10                	mov    (%eax),%edx
 8049422:	8b 45 0c             	mov    0xc(%ebp),%eax
 8049425:	8b 00                	mov    (%eax),%eax
 8049427:	39 c2                	cmp    %eax,%edx
 8049429:	0f 95 c0             	setne  %al
 804942c:	5d                   	pop    %ebp
 804942d:	c3                   	ret    

0804942e <_ZNSt14_List_iteratorISsEppEv>:
_ZNSt14_List_iteratorISsEppEv():
/usr/include/c++/4.4/bits/stl_list.h:141
 804942e:	55                   	push   %ebp
 804942f:	89 e5                	mov    %esp,%ebp
/usr/include/c++/4.4/bits/stl_list.h:143
 8049431:	8b 45 08             	mov    0x8(%ebp),%eax
 8049434:	8b 00                	mov    (%eax),%eax
 8049436:	8b 10                	mov    (%eax),%edx
 8049438:	8b 45 08             	mov    0x8(%ebp),%eax
 804943b:	89 10                	mov    %edx,(%eax)
/usr/include/c++/4.4/bits/stl_list.h:144
 804943d:	8b 45 08             	mov    0x8(%ebp),%eax
/usr/include/c++/4.4/bits/stl_list.h:145
 8049440:	5d                   	pop    %ebp
 8049441:	c3                   	ret    

08049442 <_ZNKSt14_List_iteratorISsEdeEv>:
_ZNKSt14_List_iteratorISsEdeEv():
/usr/include/c++/4.4/bits/stl_list.h:133
 8049442:	55                   	push   %ebp
 8049443:	89 e5                	mov    %esp,%ebp
/usr/include/c++/4.4/bits/stl_list.h:134
 8049445:	8b 45 08             	mov    0x8(%ebp),%eax
 8049448:	8b 00                	mov    (%eax),%eax
 804944a:	83 c0 08             	add    $0x8,%eax
 804944d:	5d                   	pop    %ebp
 804944e:	c3                   	ret    
 804944f:	90                   	nop

08049450 <_ZNSt8_Rb_treeISsSt4pairIKSslESt10_Select1stIS2_ESt4lessISsESaIS2_EEC1Ev>:
_Rb_tree():
/usr/include/c++/4.4/bits/stl_tree.h:591
 8049450:	55                   	push   %ebp
 8049451:	89 e5                	mov    %esp,%ebp
 8049453:	83 ec 18             	sub    $0x18,%esp
 8049456:	8b 45 08             	mov    0x8(%ebp),%eax
 8049459:	89 04 24             	mov    %eax,(%esp)
 804945c:	e8 0d 04 00 00       	call   804986e <_ZNSt8_Rb_treeISsSt4pairIKSslESt10_Select1stIS2_ESt4lessISsESaIS2_EE13_Rb_tree_implIS6_Lb0EEC1Ev>
 8049461:	c9                   	leave  
 8049462:	c3                   	ret    
_ZNSt8_Rb_treeISsSt4pairIKSslESt10_Select1stIS2_ESt4lessISsESaIS2_EEC1Ev():
 8049463:	90                   	nop

08049464 <_ZNSaISt13_Rb_tree_nodeISt4pairIKSslEEED2Ev>:
~allocator():
/usr/include/c++/4.4/bits/allocator.h:109
 8049464:	55                   	push   %ebp
 8049465:	89 e5                	mov    %esp,%ebp
 8049467:	83 ec 18             	sub    $0x18,%esp
 804946a:	8b 45 08             	mov    0x8(%ebp),%eax
 804946d:	89 04 24             	mov    %eax,(%esp)
 8049470:	e8 49 04 00 00       	call   80498be <_ZN9__gnu_cxx13new_allocatorISt13_Rb_tree_nodeISt4pairIKSslEEED2Ev>
 8049475:	c9                   	leave  
 8049476:	c3                   	ret    
_ZNSaISt13_Rb_tree_nodeISt4pairIKSslEEED2Ev():
 8049477:	90                   	nop

08049478 <_ZNSt8_Rb_treeISsSt4pairIKSslESt10_Select1stIS2_ESt4lessISsESaIS2_EE8_M_eraseEPSt13_Rb_tree_nodeIS2_E>:
_ZNSt8_Rb_treeISsSt4pairIKSslESt10_Select1stIS2_ESt4lessISsESaIS2_EE8_M_eraseEPSt13_Rb_tree_nodeIS2_E():
/usr/include/c++/4.4/bits/stl_tree.h:964
 8049478:	55                   	push   %ebp
 8049479:	89 e5                	mov    %esp,%ebp
 804947b:	83 ec 28             	sub    $0x28,%esp
/usr/include/c++/4.4/bits/stl_tree.h:968
 804947e:	eb 40                	jmp    80494c0 <_ZNSt8_Rb_treeISsSt4pairIKSslESt10_Select1stIS2_ESt4lessISsESaIS2_EE8_M_eraseEPSt13_Rb_tree_nodeIS2_E+0x48>
/usr/include/c++/4.4/bits/stl_tree.h:970
 8049480:	8b 45 0c             	mov    0xc(%ebp),%eax
 8049483:	89 04 24             	mov    %eax,(%esp)
 8049486:	e8 38 04 00 00       	call   80498c3 <_ZNSt8_Rb_treeISsSt4pairIKSslESt10_Select1stIS2_ESt4lessISsESaIS2_EE8_S_rightEPSt18_Rb_tree_node_base>
 804948b:	89 44 24 04          	mov    %eax,0x4(%esp)
 804948f:	8b 45 08             	mov    0x8(%ebp),%eax
 8049492:	89 04 24             	mov    %eax,(%esp)
 8049495:	e8 de ff ff ff       	call   8049478 <_ZNSt8_Rb_treeISsSt4pairIKSslESt10_Select1stIS2_ESt4lessISsESaIS2_EE8_M_eraseEPSt13_Rb_tree_nodeIS2_E>
/usr/include/c++/4.4/bits/stl_tree.h:971
 804949a:	8b 45 0c             	mov    0xc(%ebp),%eax
 804949d:	89 04 24             	mov    %eax,(%esp)
 80494a0:	e8 29 04 00 00       	call   80498ce <_ZNSt8_Rb_treeISsSt4pairIKSslESt10_Select1stIS2_ESt4lessISsESaIS2_EE7_S_leftEPSt18_Rb_tree_node_base>
 80494a5:	89 45 f4             	mov    %eax,-0xc(%ebp)
/usr/include/c++/4.4/bits/stl_tree.h:972
 80494a8:	8b 45 0c             	mov    0xc(%ebp),%eax
 80494ab:	89 44 24 04          	mov    %eax,0x4(%esp)
 80494af:	8b 45 08             	mov    0x8(%ebp),%eax
 80494b2:	89 04 24             	mov    %eax,(%esp)
 80494b5:	e8 20 04 00 00       	call   80498da <_ZNSt8_Rb_treeISsSt4pairIKSslESt10_Select1stIS2_ESt4lessISsESaIS2_EE15_M_destroy_nodeEPSt13_Rb_tree_nodeIS2_E>
/usr/include/c++/4.4/bits/stl_tree.h:973
 80494ba:	8b 45 f4             	mov    -0xc(%ebp),%eax
 80494bd:	89 45 0c             	mov    %eax,0xc(%ebp)
/usr/include/c++/4.4/bits/stl_tree.h:968
 80494c0:	83 7d 0c 00          	cmpl   $0x0,0xc(%ebp)
 80494c4:	0f 95 c0             	setne  %al
 80494c7:	84 c0                	test   %al,%al
 80494c9:	75 b5                	jne    8049480 <_ZNSt8_Rb_treeISsSt4pairIKSslESt10_Select1stIS2_ESt4lessISsESaIS2_EE8_M_eraseEPSt13_Rb_tree_nodeIS2_E+0x8>
/usr/include/c++/4.4/bits/stl_tree.h:975
 80494cb:	c9                   	leave  
 80494cc:	c3                   	ret    
 80494cd:	90                   	nop

080494ce <_ZNSt8_Rb_treeISsSt4pairIKSslESt10_Select1stIS2_ESt4lessISsESaIS2_EE8_M_beginEv>:
_ZNSt8_Rb_treeISsSt4pairIKSslESt10_Select1stIS2_ESt4lessISsESaIS2_EE8_M_beginEv():
/usr/include/c++/4.4/bits/stl_tree.h:481
 80494ce:	55                   	push   %ebp
 80494cf:	89 e5                	mov    %esp,%ebp
/usr/include/c++/4.4/bits/stl_tree.h:482
 80494d1:	8b 45 08             	mov    0x8(%ebp),%eax
 80494d4:	8b 40 08             	mov    0x8(%eax),%eax
 80494d7:	5d                   	pop    %ebp
 80494d8:	c3                   	ret    
 80494d9:	90                   	nop

080494da <_ZNSt8_Rb_treeISsSt4pairIKSslESt10_Select1stIS2_ESt4lessISsESaIS2_EE4findERS1_>:
_ZNSt8_Rb_treeISsSt4pairIKSslESt10_Select1stIS2_ESt4lessISsESaIS2_EE4findERS1_():
/usr/include/c++/4.4/bits/stl_tree.h:1418
 80494da:	55                   	push   %ebp
 80494db:	89 e5                	mov    %esp,%ebp
 80494dd:	56                   	push   %esi
 80494de:	53                   	push   %ebx
 80494df:	83 ec 30             	sub    $0x30,%esp
 80494e2:	8b 5d 08             	mov    0x8(%ebp),%ebx
/usr/include/c++/4.4/bits/stl_tree.h:1421
 80494e5:	8b 45 0c             	mov    0xc(%ebp),%eax
 80494e8:	89 04 24             	mov    %eax,(%esp)
 80494eb:	e8 5e 04 00 00       	call   804994e <_ZNSt8_Rb_treeISsSt4pairIKSslESt10_Select1stIS2_ESt4lessISsESaIS2_EE6_M_endEv>
 80494f0:	89 c6                	mov    %eax,%esi
 80494f2:	8b 45 0c             	mov    0xc(%ebp),%eax
 80494f5:	89 04 24             	mov    %eax,(%esp)
 80494f8:	e8 d1 ff ff ff       	call   80494ce <_ZNSt8_Rb_treeISsSt4pairIKSslESt10_Select1stIS2_ESt4lessISsESaIS2_EE8_M_beginEv>
 80494fd:	8d 55 f4             	lea    -0xc(%ebp),%edx
 8049500:	8b 4d 10             	mov    0x10(%ebp),%ecx
 8049503:	89 4c 24 10          	mov    %ecx,0x10(%esp)
 8049507:	89 74 24 0c          	mov    %esi,0xc(%esp)
 804950b:	89 44 24 08          	mov    %eax,0x8(%esp)
 804950f:	8b 45 0c             	mov    0xc(%ebp),%eax
 8049512:	89 44 24 04          	mov    %eax,0x4(%esp)
 8049516:	89 14 24             	mov    %edx,(%esp)
 8049519:	e8 3c 04 00 00       	call   804995a <_ZNSt8_Rb_treeISsSt4pairIKSslESt10_Select1stIS2_ESt4lessISsESaIS2_EE14_M_lower_boundEPSt13_Rb_tree_nodeIS2_ESB_RS1_>
 804951e:	83 ec 04             	sub    $0x4,%esp
/usr/include/c++/4.4/bits/stl_tree.h:1424
 8049521:	8d 45 f0             	lea    -0x10(%ebp),%eax
 8049524:	8b 55 0c             	mov    0xc(%ebp),%edx
 8049527:	89 54 24 04          	mov    %edx,0x4(%esp)
 804952b:	89 04 24             	mov    %eax,(%esp)
 804952e:	e8 a3 04 00 00       	call   80499d6 <_ZNSt8_Rb_treeISsSt4pairIKSslESt10_Select1stIS2_ESt4lessISsESaIS2_EE3endEv>
 8049533:	83 ec 04             	sub    $0x4,%esp
 8049536:	8d 45 f0             	lea    -0x10(%ebp),%eax
 8049539:	89 44 24 04          	mov    %eax,0x4(%esp)
 804953d:	8d 45 f4             	lea    -0xc(%ebp),%eax
 8049540:	89 04 24             	mov    %eax,(%esp)
 8049543:	e8 f0 04 00 00       	call   8049a38 <_ZNKSt17_Rb_tree_iteratorISt4pairIKSslEEeqERKS3_>
 8049548:	84 c0                	test   %al,%al
 804954a:	75 25                	jne    8049571 <_ZNSt8_Rb_treeISsSt4pairIKSslESt10_Select1stIS2_ESt4lessISsESaIS2_EE4findERS1_+0x97>
 804954c:	8b 45 f4             	mov    -0xc(%ebp),%eax
 804954f:	89 04 24             	mov    %eax,(%esp)
 8049552:	e8 a5 04 00 00       	call   80499fc <_ZNSt8_Rb_treeISsSt4pairIKSslESt10_Select1stIS2_ESt4lessISsESaIS2_EE6_S_keyEPKSt18_Rb_tree_node_base>
 8049557:	8b 55 0c             	mov    0xc(%ebp),%edx
 804955a:	89 44 24 08          	mov    %eax,0x8(%esp)
 804955e:	8b 45 10             	mov    0x10(%ebp),%eax
 8049561:	89 44 24 04          	mov    %eax,0x4(%esp)
 8049565:	89 14 24             	mov    %edx,(%esp)
 8049568:	e8 b1 04 00 00       	call   8049a1e <_ZNKSt4lessISsEclERKSsS2_>
 804956d:	84 c0                	test   %al,%al
 804956f:	74 14                	je     8049585 <_ZNSt8_Rb_treeISsSt4pairIKSslESt10_Select1stIS2_ESt4lessISsESaIS2_EE4findERS1_+0xab>
 8049571:	8b 45 0c             	mov    0xc(%ebp),%eax
 8049574:	89 44 24 04          	mov    %eax,0x4(%esp)
 8049578:	89 1c 24             	mov    %ebx,(%esp)
 804957b:	e8 56 04 00 00       	call   80499d6 <_ZNSt8_Rb_treeISsSt4pairIKSslESt10_Select1stIS2_ESt4lessISsESaIS2_EE3endEv>
 8049580:	83 ec 04             	sub    $0x4,%esp
 8049583:	eb 05                	jmp    804958a <_ZNSt8_Rb_treeISsSt4pairIKSslESt10_Select1stIS2_ESt4lessISsESaIS2_EE4findERS1_+0xb0>
 8049585:	8b 45 f4             	mov    -0xc(%ebp),%eax
 8049588:	89 03                	mov    %eax,(%ebx)
/usr/include/c++/4.4/bits/stl_tree.h:1425
 804958a:	89 d8                	mov    %ebx,%eax
 804958c:	8d 65 f8             	lea    -0x8(%ebp),%esp
 804958f:	83 c4 00             	add    $0x0,%esp
 8049592:	5b                   	pop    %ebx
 8049593:	5e                   	pop    %esi
 8049594:	5d                   	pop    %ebp
 8049595:	c2 04 00             	ret    $0x4

08049598 <_ZNSt8_Rb_treeISsSt4pairIKSslESt10_Select1stIS2_ESt4lessISsESaIS2_EE16_M_insert_uniqueERKS2_>:
_ZNSt8_Rb_treeISsSt4pairIKSslESt10_Select1stIS2_ESt4lessISsESaIS2_EE16_M_insert_uniqueERKS2_():
/usr/include/c++/4.4/bits/stl_tree.h:1161
 8049598:	55                   	push   %ebp
 8049599:	89 e5                	mov    %esp,%ebp
 804959b:	56                   	push   %esi
 804959c:	53                   	push   %ebx
 804959d:	83 ec 40             	sub    $0x40,%esp
 80495a0:	8b 5d 08             	mov    0x8(%ebp),%ebx
/usr/include/c++/4.4/bits/stl_tree.h:1164
 80495a3:	8b 45 0c             	mov    0xc(%ebp),%eax
 80495a6:	89 04 24             	mov    %eax,(%esp)
 80495a9:	e8 20 ff ff ff       	call   80494ce <_ZNSt8_Rb_treeISsSt4pairIKSslESt10_Select1stIS2_ESt4lessISsESaIS2_EE8_M_beginEv>
 80495ae:	89 45 ec             	mov    %eax,-0x14(%ebp)
/usr/include/c++/4.4/bits/stl_tree.h:1165
 80495b1:	8b 45 0c             	mov    0xc(%ebp),%eax
 80495b4:	89 04 24             	mov    %eax,(%esp)
 80495b7:	e8 92 03 00 00       	call   804994e <_ZNSt8_Rb_treeISsSt4pairIKSslESt10_Select1stIS2_ESt4lessISsESaIS2_EE6_M_endEv>
 80495bc:	89 45 e8             	mov    %eax,-0x18(%ebp)
/usr/include/c++/4.4/bits/stl_tree.h:1166
 80495bf:	c6 45 f7 01          	movb   $0x1,-0x9(%ebp)
/usr/include/c++/4.4/bits/stl_tree.h:1167
 80495c3:	eb 5c                	jmp    8049621 <_ZNSt8_Rb_treeISsSt4pairIKSslESt10_Select1stIS2_ESt4lessISsESaIS2_EE16_M_insert_uniqueERKS2_+0x89>
/usr/include/c++/4.4/bits/stl_tree.h:1169
 80495c5:	8b 45 ec             	mov    -0x14(%ebp),%eax
 80495c8:	89 45 e8             	mov    %eax,-0x18(%ebp)
/usr/include/c++/4.4/bits/stl_tree.h:1170
 80495cb:	8b 45 ec             	mov    -0x14(%ebp),%eax
 80495ce:	89 04 24             	mov    %eax,(%esp)
 80495d1:	e8 7e 04 00 00       	call   8049a54 <_ZNSt8_Rb_treeISsSt4pairIKSslESt10_Select1stIS2_ESt4lessISsESaIS2_EE6_S_keyEPKSt13_Rb_tree_nodeIS2_E>
 80495d6:	89 c6                	mov    %eax,%esi
 80495d8:	8b 45 10             	mov    0x10(%ebp),%eax
 80495db:	89 44 24 04          	mov    %eax,0x4(%esp)
 80495df:	8d 45 f6             	lea    -0xa(%ebp),%eax
 80495e2:	89 04 24             	mov    %eax,(%esp)
 80495e5:	e8 62 04 00 00       	call   8049a4c <_ZNKSt10_Select1stISt4pairIKSslEEclERKS2_>
 80495ea:	8b 55 0c             	mov    0xc(%ebp),%edx
 80495ed:	89 74 24 08          	mov    %esi,0x8(%esp)
 80495f1:	89 44 24 04          	mov    %eax,0x4(%esp)
 80495f5:	89 14 24             	mov    %edx,(%esp)
 80495f8:	e8 21 04 00 00       	call   8049a1e <_ZNKSt4lessISsEclERKSsS2_>
 80495fd:	88 45 f7             	mov    %al,-0x9(%ebp)
/usr/include/c++/4.4/bits/stl_tree.h:1171
 8049600:	80 7d f7 00          	cmpb   $0x0,-0x9(%ebp)
 8049604:	74 0d                	je     8049613 <_ZNSt8_Rb_treeISsSt4pairIKSslESt10_Select1stIS2_ESt4lessISsESaIS2_EE16_M_insert_uniqueERKS2_+0x7b>
 8049606:	8b 45 ec             	mov    -0x14(%ebp),%eax
 8049609:	89 04 24             	mov    %eax,(%esp)
 804960c:	e8 bd 02 00 00       	call   80498ce <_ZNSt8_Rb_treeISsSt4pairIKSslESt10_Select1stIS2_ESt4lessISsESaIS2_EE7_S_leftEPSt18_Rb_tree_node_base>
 8049611:	eb 0b                	jmp    804961e <_ZNSt8_Rb_treeISsSt4pairIKSslESt10_Select1stIS2_ESt4lessISsESaIS2_EE16_M_insert_uniqueERKS2_+0x86>
 8049613:	8b 45 ec             	mov    -0x14(%ebp),%eax
 8049616:	89 04 24             	mov    %eax,(%esp)
 8049619:	e8 a5 02 00 00       	call   80498c3 <_ZNSt8_Rb_treeISsSt4pairIKSslESt10_Select1stIS2_ESt4lessISsESaIS2_EE8_S_rightEPSt18_Rb_tree_node_base>
 804961e:	89 45 ec             	mov    %eax,-0x14(%ebp)
/usr/include/c++/4.4/bits/stl_tree.h:1167
 8049621:	83 7d ec 00          	cmpl   $0x0,-0x14(%ebp)
 8049625:	0f 95 c0             	setne  %al
 8049628:	84 c0                	test   %al,%al
 804962a:	75 99                	jne    80495c5 <_ZNSt8_Rb_treeISsSt4pairIKSslESt10_Select1stIS2_ESt4lessISsESaIS2_EE16_M_insert_uniqueERKS2_+0x2d>
/usr/include/c++/4.4/bits/stl_tree.h:1173
 804962c:	8b 45 e8             	mov    -0x18(%ebp),%eax
 804962f:	89 44 24 04          	mov    %eax,0x4(%esp)
 8049633:	8d 45 e4             	lea    -0x1c(%ebp),%eax
 8049636:	89 04 24             	mov    %eax,(%esp)
 8049639:	e8 38 04 00 00       	call   8049a76 <_ZNSt17_Rb_tree_iteratorISt4pairIKSslEEC1EPSt13_Rb_tree_nodeIS2_E>
/usr/include/c++/4.4/bits/stl_tree.h:1174
 804963e:	80 7d f7 00          	cmpb   $0x0,-0x9(%ebp)
 8049642:	74 7f                	je     80496c3 <_ZNSt8_Rb_treeISsSt4pairIKSslESt10_Select1stIS2_ESt4lessISsESaIS2_EE16_M_insert_uniqueERKS2_+0x12b>
/usr/include/c++/4.4/bits/stl_tree.h:1176
 8049644:	8d 45 e0             	lea    -0x20(%ebp),%eax
 8049647:	8b 55 0c             	mov    0xc(%ebp),%edx
 804964a:	89 54 24 04          	mov    %edx,0x4(%esp)
 804964e:	89 04 24             	mov    %eax,(%esp)
 8049651:	e8 2e 04 00 00       	call   8049a84 <_ZNSt8_Rb_treeISsSt4pairIKSslESt10_Select1stIS2_ESt4lessISsESaIS2_EE5beginEv>
 8049656:	83 ec 04             	sub    $0x4,%esp
 8049659:	8d 45 e0             	lea    -0x20(%ebp),%eax
 804965c:	89 44 24 04          	mov    %eax,0x4(%esp)
 8049660:	8d 45 e4             	lea    -0x1c(%ebp),%eax
 8049663:	89 04 24             	mov    %eax,(%esp)
 8049666:	e8 cd 03 00 00       	call   8049a38 <_ZNKSt17_Rb_tree_iteratorISt4pairIKSslEEeqERKS3_>
 804966b:	84 c0                	test   %al,%al
 804966d:	74 49                	je     80496b8 <_ZNSt8_Rb_treeISsSt4pairIKSslESt10_Select1stIS2_ESt4lessISsESaIS2_EE16_M_insert_uniqueERKS2_+0x120>
/usr/include/c++/4.4/bits/stl_tree.h:1177
 804966f:	c6 45 f5 01          	movb   $0x1,-0xb(%ebp)
 8049673:	8b 4d e8             	mov    -0x18(%ebp),%ecx
 8049676:	8b 55 ec             	mov    -0x14(%ebp),%edx
 8049679:	8d 45 dc             	lea    -0x24(%ebp),%eax
 804967c:	8b 75 10             	mov    0x10(%ebp),%esi
 804967f:	89 74 24 10          	mov    %esi,0x10(%esp)
 8049683:	89 4c 24 0c          	mov    %ecx,0xc(%esp)
 8049687:	89 54 24 08          	mov    %edx,0x8(%esp)
 804968b:	8b 55 0c             	mov    0xc(%ebp),%edx
 804968e:	89 54 24 04          	mov    %edx,0x4(%esp)
 8049692:	89 04 24             	mov    %eax,(%esp)
 8049695:	e8 10 04 00 00       	call   8049aaa <_ZNSt8_Rb_treeISsSt4pairIKSslESt10_Select1stIS2_ESt4lessISsESaIS2_EE10_M_insert_EPKSt18_Rb_tree_node_baseSB_RKS2_>
 804969a:	83 ec 04             	sub    $0x4,%esp
 804969d:	8d 45 f5             	lea    -0xb(%ebp),%eax
 80496a0:	89 44 24 08          	mov    %eax,0x8(%esp)
 80496a4:	8d 45 dc             	lea    -0x24(%ebp),%eax
 80496a7:	89 44 24 04          	mov    %eax,0x4(%esp)
 80496ab:	89 1c 24             	mov    %ebx,(%esp)
 80496ae:	e8 bf 04 00 00       	call   8049b72 <_ZNSt4pairISt17_Rb_tree_iteratorIS_IKSslEEbEC1ERKS3_RKb>
 80496b3:	e9 a1 00 00 00       	jmp    8049759 <_ZNSt8_Rb_treeISsSt4pairIKSslESt10_Select1stIS2_ESt4lessISsESaIS2_EE16_M_insert_uniqueERKS2_+0x1c1>
/usr/include/c++/4.4/bits/stl_tree.h:1179
 80496b8:	8d 45 e4             	lea    -0x1c(%ebp),%eax
 80496bb:	89 04 24             	mov    %eax,(%esp)
 80496be:	e8 cb 04 00 00       	call   8049b8e <_ZNSt17_Rb_tree_iteratorISt4pairIKSslEEmmEv>
/usr/include/c++/4.4/bits/stl_tree.h:1181
 80496c3:	8b 45 10             	mov    0x10(%ebp),%eax
 80496c6:	89 44 24 04          	mov    %eax,0x4(%esp)
 80496ca:	8d 45 f4             	lea    -0xc(%ebp),%eax
 80496cd:	89 04 24             	mov    %eax,(%esp)
 80496d0:	e8 77 03 00 00       	call   8049a4c <_ZNKSt10_Select1stISt4pairIKSslEEclERKS2_>
 80496d5:	89 c6                	mov    %eax,%esi
 80496d7:	8b 45 e4             	mov    -0x1c(%ebp),%eax
 80496da:	89 04 24             	mov    %eax,(%esp)
 80496dd:	e8 1a 03 00 00       	call   80499fc <_ZNSt8_Rb_treeISsSt4pairIKSslESt10_Select1stIS2_ESt4lessISsESaIS2_EE6_S_keyEPKSt18_Rb_tree_node_base>
 80496e2:	8b 55 0c             	mov    0xc(%ebp),%edx
 80496e5:	89 74 24 08          	mov    %esi,0x8(%esp)
 80496e9:	89 44 24 04          	mov    %eax,0x4(%esp)
 80496ed:	89 14 24             	mov    %edx,(%esp)
 80496f0:	e8 29 03 00 00       	call   8049a1e <_ZNKSt4lessISsEclERKSsS2_>
 80496f5:	84 c0                	test   %al,%al
 80496f7:	74 46                	je     804973f <_ZNSt8_Rb_treeISsSt4pairIKSslESt10_Select1stIS2_ESt4lessISsESaIS2_EE16_M_insert_uniqueERKS2_+0x1a7>
/usr/include/c++/4.4/bits/stl_tree.h:1182
 80496f9:	c6 45 f3 01          	movb   $0x1,-0xd(%ebp)
 80496fd:	8b 4d e8             	mov    -0x18(%ebp),%ecx
 8049700:	8b 55 ec             	mov    -0x14(%ebp),%edx
 8049703:	8d 45 d8             	lea    -0x28(%ebp),%eax
 8049706:	8b 75 10             	mov    0x10(%ebp),%esi
 8049709:	89 74 24 10          	mov    %esi,0x10(%esp)
 804970d:	89 4c 24 0c          	mov    %ecx,0xc(%esp)
 8049711:	89 54 24 08          	mov    %edx,0x8(%esp)
 8049715:	8b 55 0c             	mov    0xc(%ebp),%edx
 8049718:	89 54 24 04          	mov    %edx,0x4(%esp)
 804971c:	89 04 24             	mov    %eax,(%esp)
 804971f:	e8 86 03 00 00       	call   8049aaa <_ZNSt8_Rb_treeISsSt4pairIKSslESt10_Select1stIS2_ESt4lessISsESaIS2_EE10_M_insert_EPKSt18_Rb_tree_node_baseSB_RKS2_>
 8049724:	83 ec 04             	sub    $0x4,%esp
 8049727:	8d 45 f3             	lea    -0xd(%ebp),%eax
 804972a:	89 44 24 08          	mov    %eax,0x8(%esp)
 804972e:	8d 45 d8             	lea    -0x28(%ebp),%eax
 8049731:	89 44 24 04          	mov    %eax,0x4(%esp)
 8049735:	89 1c 24             	mov    %ebx,(%esp)
 8049738:	e8 35 04 00 00       	call   8049b72 <_ZNSt4pairISt17_Rb_tree_iteratorIS_IKSslEEbEC1ERKS3_RKb>
 804973d:	eb 1a                	jmp    8049759 <_ZNSt8_Rb_treeISsSt4pairIKSslESt10_Select1stIS2_ESt4lessISsESaIS2_EE16_M_insert_uniqueERKS2_+0x1c1>
/usr/include/c++/4.4/bits/stl_tree.h:1183
 804973f:	c6 45 f2 00          	movb   $0x0,-0xe(%ebp)
 8049743:	8d 45 f2             	lea    -0xe(%ebp),%eax
 8049746:	89 44 24 08          	mov    %eax,0x8(%esp)
 804974a:	8d 45 e4             	lea    -0x1c(%ebp),%eax
 804974d:	89 44 24 04          	mov    %eax,0x4(%esp)
 8049751:	89 1c 24             	mov    %ebx,(%esp)
 8049754:	e8 19 04 00 00       	call   8049b72 <_ZNSt4pairISt17_Rb_tree_iteratorIS_IKSslEEbEC1ERKS3_RKb>
/usr/include/c++/4.4/bits/stl_tree.h:1184
 8049759:	89 d8                	mov    %ebx,%eax
 804975b:	8d 65 f8             	lea    -0x8(%ebp),%esp
 804975e:	83 c4 00             	add    $0x0,%esp
 8049761:	5b                   	pop    %ebx
 8049762:	5e                   	pop    %esi
 8049763:	5d                   	pop    %ebp
 8049764:	c2 04 00             	ret    $0x4
 8049767:	90                   	nop

08049768 <_ZNKSt8_Rb_treeISsSt4pairIKSslESt10_Select1stIS2_ESt4lessISsESaIS2_EE3endEv>:
_ZNKSt8_Rb_treeISsSt4pairIKSslESt10_Select1stIS2_ESt4lessISsESaIS2_EE3endEv():
/usr/include/c++/4.4/bits/stl_tree.h:643
 8049768:	55                   	push   %ebp
 8049769:	89 e5                	mov    %esp,%ebp
 804976b:	53                   	push   %ebx
 804976c:	83 ec 14             	sub    $0x14,%esp
 804976f:	8b 5d 08             	mov    0x8(%ebp),%ebx
/usr/include/c++/4.4/bits/stl_tree.h:646
 8049772:	8b 45 0c             	mov    0xc(%ebp),%eax
 8049775:	83 c0 04             	add    $0x4,%eax
 8049778:	89 44 24 04          	mov    %eax,0x4(%esp)
 804977c:	89 1c 24             	mov    %ebx,(%esp)
 804977f:	e8 28 04 00 00       	call   8049bac <_ZNSt23_Rb_tree_const_iteratorISt4pairIKSslEEC1EPKSt13_Rb_tree_nodeIS2_E>
/usr/include/c++/4.4/bits/stl_tree.h:647
 8049784:	89 d8                	mov    %ebx,%eax
 8049786:	83 c4 14             	add    $0x14,%esp
 8049789:	5b                   	pop    %ebx
 804978a:	5d                   	pop    %ebp
 804978b:	c2 04 00             	ret    $0x4

0804978e <_ZNKSt8_Rb_treeISsSt4pairIKSslESt10_Select1stIS2_ESt4lessISsESaIS2_EE4findERS1_>:
_ZNKSt8_Rb_treeISsSt4pairIKSslESt10_Select1stIS2_ESt4lessISsESaIS2_EE4findERS1_():
/usr/include/c++/4.4/bits/stl_tree.h:1431
 804978e:	55                   	push   %ebp
 804978f:	89 e5                	mov    %esp,%ebp
 8049791:	56                   	push   %esi
 8049792:	53                   	push   %ebx
 8049793:	83 ec 30             	sub    $0x30,%esp
 8049796:	8b 5d 08             	mov    0x8(%ebp),%ebx
/usr/include/c++/4.4/bits/stl_tree.h:1434
 8049799:	8b 45 0c             	mov    0xc(%ebp),%eax
 804979c:	89 04 24             	mov    %eax,(%esp)
 804979f:	e8 22 04 00 00       	call   8049bc6 <_ZNKSt8_Rb_treeISsSt4pairIKSslESt10_Select1stIS2_ESt4lessISsESaIS2_EE6_M_endEv>
 80497a4:	89 c6                	mov    %eax,%esi
 80497a6:	8b 45 0c             	mov    0xc(%ebp),%eax
 80497a9:	89 04 24             	mov    %eax,(%esp)
 80497ac:	e8 09 04 00 00       	call   8049bba <_ZNKSt8_Rb_treeISsSt4pairIKSslESt10_Select1stIS2_ESt4lessISsESaIS2_EE8_M_beginEv>
 80497b1:	8d 55 f4             	lea    -0xc(%ebp),%edx
 80497b4:	8b 4d 10             	mov    0x10(%ebp),%ecx
 80497b7:	89 4c 24 10          	mov    %ecx,0x10(%esp)
 80497bb:	89 74 24 0c          	mov    %esi,0xc(%esp)
 80497bf:	89 44 24 08          	mov    %eax,0x8(%esp)
 80497c3:	8b 45 0c             	mov    0xc(%ebp),%eax
 80497c6:	89 44 24 04          	mov    %eax,0x4(%esp)
 80497ca:	89 14 24             	mov    %edx,(%esp)
 80497cd:	e8 00 04 00 00       	call   8049bd2 <_ZNKSt8_Rb_treeISsSt4pairIKSslESt10_Select1stIS2_ESt4lessISsESaIS2_EE14_M_lower_boundEPKSt13_Rb_tree_nodeIS2_ESC_RS1_>
 80497d2:	83 ec 04             	sub    $0x4,%esp
/usr/include/c++/4.4/bits/stl_tree.h:1437
 80497d5:	8d 45 f0             	lea    -0x10(%ebp),%eax
 80497d8:	8b 55 0c             	mov    0xc(%ebp),%edx
 80497db:	89 54 24 04          	mov    %edx,0x4(%esp)
 80497df:	89 04 24             	mov    %eax,(%esp)
 80497e2:	e8 81 ff ff ff       	call   8049768 <_ZNKSt8_Rb_treeISsSt4pairIKSslESt10_Select1stIS2_ESt4lessISsESaIS2_EE3endEv>
 80497e7:	83 ec 04             	sub    $0x4,%esp
 80497ea:	8d 45 f0             	lea    -0x10(%ebp),%eax
 80497ed:	89 44 24 04          	mov    %eax,0x4(%esp)
 80497f1:	8d 45 f4             	lea    -0xc(%ebp),%eax
 80497f4:	89 04 24             	mov    %eax,(%esp)
 80497f7:	e8 50 00 00 00       	call   804984c <_ZNKSt23_Rb_tree_const_iteratorISt4pairIKSslEEeqERKS3_>
 80497fc:	84 c0                	test   %al,%al
 80497fe:	75 25                	jne    8049825 <_ZNKSt8_Rb_treeISsSt4pairIKSslESt10_Select1stIS2_ESt4lessISsESaIS2_EE4findERS1_+0x97>
 8049800:	8b 45 f4             	mov    -0xc(%ebp),%eax
 8049803:	89 04 24             	mov    %eax,(%esp)
 8049806:	e8 f1 01 00 00       	call   80499fc <_ZNSt8_Rb_treeISsSt4pairIKSslESt10_Select1stIS2_ESt4lessISsESaIS2_EE6_S_keyEPKSt18_Rb_tree_node_base>
 804980b:	8b 55 0c             	mov    0xc(%ebp),%edx
 804980e:	89 44 24 08          	mov    %eax,0x8(%esp)
 8049812:	8b 45 10             	mov    0x10(%ebp),%eax
 8049815:	89 44 24 04          	mov    %eax,0x4(%esp)
 8049819:	89 14 24             	mov    %edx,(%esp)
 804981c:	e8 fd 01 00 00       	call   8049a1e <_ZNKSt4lessISsEclERKSsS2_>
 8049821:	84 c0                	test   %al,%al
 8049823:	74 14                	je     8049839 <_ZNKSt8_Rb_treeISsSt4pairIKSslESt10_Select1stIS2_ESt4lessISsESaIS2_EE4findERS1_+0xab>
 8049825:	8b 45 0c             	mov    0xc(%ebp),%eax
 8049828:	89 44 24 04          	mov    %eax,0x4(%esp)
 804982c:	89 1c 24             	mov    %ebx,(%esp)
 804982f:	e8 34 ff ff ff       	call   8049768 <_ZNKSt8_Rb_treeISsSt4pairIKSslESt10_Select1stIS2_ESt4lessISsESaIS2_EE3endEv>
 8049834:	83 ec 04             	sub    $0x4,%esp
 8049837:	eb 05                	jmp    804983e <_ZNKSt8_Rb_treeISsSt4pairIKSslESt10_Select1stIS2_ESt4lessISsESaIS2_EE4findERS1_+0xb0>
 8049839:	8b 45 f4             	mov    -0xc(%ebp),%eax
 804983c:	89 03                	mov    %eax,(%ebx)
/usr/include/c++/4.4/bits/stl_tree.h:1438
 804983e:	89 d8                	mov    %ebx,%eax
 8049840:	8d 65 f8             	lea    -0x8(%ebp),%esp
 8049843:	83 c4 00             	add    $0x0,%esp
 8049846:	5b                   	pop    %ebx
 8049847:	5e                   	pop    %esi
 8049848:	5d                   	pop    %ebp
 8049849:	c2 04 00             	ret    $0x4

0804984c <_ZNKSt23_Rb_tree_const_iteratorISt4pairIKSslEEeqERKS3_>:
_ZNKSt23_Rb_tree_const_iteratorISt4pairIKSslEEeqERKS3_():
/usr/include/c++/4.4/bits/stl_tree.h:287
 804984c:	55                   	push   %ebp
 804984d:	89 e5                	mov    %esp,%ebp
/usr/include/c++/4.4/bits/stl_tree.h:288
 804984f:	8b 45 08             	mov    0x8(%ebp),%eax
 8049852:	8b 10                	mov    (%eax),%edx
 8049854:	8b 45 0c             	mov    0xc(%ebp),%eax
 8049857:	8b 00                	mov    (%eax),%eax
 8049859:	39 c2                	cmp    %eax,%edx
 804985b:	0f 94 c0             	sete   %al
 804985e:	5d                   	pop    %ebp
 804985f:	c3                   	ret    

08049860 <_ZNSt14_List_iteratorISsEC1EPSt15_List_node_base>:
_List_iterator():
/usr/include/c++/4.4/bits/stl_list.h:128
 8049860:	55                   	push   %ebp
 8049861:	89 e5                	mov    %esp,%ebp
/usr/include/c++/4.4/bits/stl_list.h:129
 8049863:	8b 45 08             	mov    0x8(%ebp),%eax
 8049866:	8b 55 0c             	mov    0xc(%ebp),%edx
 8049869:	89 10                	mov    %edx,(%eax)
 804986b:	5d                   	pop    %ebp
 804986c:	c3                   	ret    
_ZNSt14_List_iteratorISsEC1EPSt15_List_node_base():
 804986d:	90                   	nop

0804986e <_ZNSt8_Rb_treeISsSt4pairIKSslESt10_Select1stIS2_ESt4lessISsESaIS2_EE13_Rb_tree_implIS6_Lb0EEC1Ev>:
_Rb_tree_impl():
/usr/include/c++/4.4/bits/stl_tree.h:432
 804986e:	55                   	push   %ebp
 804986f:	89 e5                	mov    %esp,%ebp
 8049871:	83 ec 18             	sub    $0x18,%esp
/usr/include/c++/4.4/bits/stl_tree.h:434
 8049874:	8b 45 08             	mov    0x8(%ebp),%eax
 8049877:	89 04 24             	mov    %eax,(%esp)
 804987a:	e8 cf 03 00 00       	call   8049c4e <_ZNSaISt13_Rb_tree_nodeISt4pairIKSslEEEC2Ev>
 804987f:	8b 45 08             	mov    0x8(%ebp),%eax
 8049882:	c7 40 04 00 00 00 00 	movl   $0x0,0x4(%eax)
 8049889:	8b 45 08             	mov    0x8(%ebp),%eax
 804988c:	c7 40 08 00 00 00 00 	movl   $0x0,0x8(%eax)
 8049893:	8b 45 08             	mov    0x8(%ebp),%eax
 8049896:	c7 40 0c 00 00 00 00 	movl   $0x0,0xc(%eax)
 804989d:	8b 45 08             	mov    0x8(%ebp),%eax
 80498a0:	c7 40 10 00 00 00 00 	movl   $0x0,0x10(%eax)
 80498a7:	8b 45 08             	mov    0x8(%ebp),%eax
 80498aa:	c7 40 14 00 00 00 00 	movl   $0x0,0x14(%eax)
/usr/include/c++/4.4/bits/stl_tree.h:435
 80498b1:	8b 45 08             	mov    0x8(%ebp),%eax
 80498b4:	89 04 24             	mov    %eax,(%esp)
 80498b7:	e8 a6 03 00 00       	call   8049c62 <_ZNSt8_Rb_treeISsSt4pairIKSslESt10_Select1stIS2_ESt4lessISsESaIS2_EE13_Rb_tree_implIS6_Lb0EE13_M_initializeEv>
 80498bc:	c9                   	leave  
 80498bd:	c3                   	ret    

080498be <_ZN9__gnu_cxx13new_allocatorISt13_Rb_tree_nodeISt4pairIKSslEEED2Ev>:
~new_allocator():
/usr/include/c++/4.4/ext/new_allocator.h:73
 80498be:	55                   	push   %ebp
 80498bf:	89 e5                	mov    %esp,%ebp
 80498c1:	5d                   	pop    %ebp
 80498c2:	c3                   	ret    

080498c3 <_ZNSt8_Rb_treeISsSt4pairIKSslESt10_Select1stIS2_ESt4lessISsESaIS2_EE8_S_rightEPSt18_Rb_tree_node_base>:
_ZNSt8_Rb_treeISsSt4pairIKSslESt10_Select1stIS2_ESt4lessISsESaIS2_EE8_S_rightEPSt18_Rb_tree_node_base():
/usr/include/c++/4.4/bits/stl_tree.h:516
 80498c3:	55                   	push   %ebp
 80498c4:	89 e5                	mov    %esp,%ebp
/usr/include/c++/4.4/bits/stl_tree.h:517
 80498c6:	8b 45 08             	mov    0x8(%ebp),%eax
 80498c9:	8b 40 0c             	mov    0xc(%eax),%eax
 80498cc:	5d                   	pop    %ebp
 80498cd:	c3                   	ret    

080498ce <_ZNSt8_Rb_treeISsSt4pairIKSslESt10_Select1stIS2_ESt4lessISsESaIS2_EE7_S_leftEPSt18_Rb_tree_node_base>:
_ZNSt8_Rb_treeISsSt4pairIKSslESt10_Select1stIS2_ESt4lessISsESaIS2_EE7_S_leftEPSt18_Rb_tree_node_base():
/usr/include/c++/4.4/bits/stl_tree.h:508
 80498ce:	55                   	push   %ebp
 80498cf:	89 e5                	mov    %esp,%ebp
/usr/include/c++/4.4/bits/stl_tree.h:509
 80498d1:	8b 45 08             	mov    0x8(%ebp),%eax
 80498d4:	8b 40 08             	mov    0x8(%eax),%eax
 80498d7:	5d                   	pop    %ebp
 80498d8:	c3                   	ret    
 80498d9:	90                   	nop

080498da <_ZNSt8_Rb_treeISsSt4pairIKSslESt10_Select1stIS2_ESt4lessISsESaIS2_EE15_M_destroy_nodeEPSt13_Rb_tree_nodeIS2_E>:
_ZNSt8_Rb_treeISsSt4pairIKSslESt10_Select1stIS2_ESt4lessISsESaIS2_EE15_M_destroy_nodeEPSt13_Rb_tree_nodeIS2_E():
/usr/include/c++/4.4/bits/stl_tree.h:381
 80498da:	55                   	push   %ebp
 80498db:	89 e5                	mov    %esp,%ebp
 80498dd:	56                   	push   %esi
 80498de:	53                   	push   %ebx
 80498df:	83 ec 20             	sub    $0x20,%esp
/usr/include/c++/4.4/bits/stl_tree.h:383
 80498e2:	8b 45 0c             	mov    0xc(%ebp),%eax
 80498e5:	8d 58 10             	lea    0x10(%eax),%ebx
 80498e8:	8d 45 f7             	lea    -0x9(%ebp),%eax
 80498eb:	8b 55 08             	mov    0x8(%ebp),%edx
 80498ee:	89 54 24 04          	mov    %edx,0x4(%esp)
 80498f2:	89 04 24             	mov    %eax,(%esp)
 80498f5:	e8 9a 03 00 00       	call   8049c94 <_ZNKSt8_Rb_treeISsSt4pairIKSslESt10_Select1stIS2_ESt4lessISsESaIS2_EE13get_allocatorEv>
 80498fa:	83 ec 04             	sub    $0x4,%esp
 80498fd:	8d 45 f7             	lea    -0x9(%ebp),%eax
 8049900:	89 5c 24 04          	mov    %ebx,0x4(%esp)
 8049904:	89 04 24             	mov    %eax,(%esp)
 8049907:	e8 ce 03 00 00       	call   8049cda <_ZN9__gnu_cxx13new_allocatorISt4pairIKSslEE7destroyEPS3_>
 804990c:	8d 45 f7             	lea    -0x9(%ebp),%eax
 804990f:	89 04 24             	mov    %eax,(%esp)
 8049912:	e8 af 03 00 00       	call   8049cc6 <_ZNSaISt4pairIKSslEED1Ev>
/usr/include/c++/4.4/bits/stl_tree.h:384
 8049917:	8b 45 0c             	mov    0xc(%ebp),%eax
 804991a:	89 44 24 04          	mov    %eax,0x4(%esp)
 804991e:	8b 45 08             	mov    0x8(%ebp),%eax
 8049921:	89 04 24             	mov    %eax,(%esp)
 8049924:	e8 c5 03 00 00       	call   8049cee <_ZNSt8_Rb_treeISsSt4pairIKSslESt10_Select1stIS2_ESt4lessISsESaIS2_EE11_M_put_nodeEPSt13_Rb_tree_nodeIS2_E>
/usr/include/c++/4.4/bits/stl_tree.h:385
 8049929:	8d 65 f8             	lea    -0x8(%ebp),%esp
 804992c:	83 c4 00             	add    $0x0,%esp
 804992f:	5b                   	pop    %ebx
 8049930:	5e                   	pop    %esi
 8049931:	5d                   	pop    %ebp
 8049932:	c3                   	ret    
 8049933:	89 d3                	mov    %edx,%ebx
 8049935:	89 c6                	mov    %eax,%esi
/usr/include/c++/4.4/bits/stl_tree.h:383
 8049937:	8d 45 f7             	lea    -0x9(%ebp),%eax
 804993a:	89 04 24             	mov    %eax,(%esp)
 804993d:	e8 84 03 00 00       	call   8049cc6 <_ZNSaISt4pairIKSslEED1Ev>
 8049942:	89 f0                	mov    %esi,%eax
 8049944:	89 da                	mov    %ebx,%edx
 8049946:	89 04 24             	mov    %eax,(%esp)
 8049949:	e8 76 f3 ff ff       	call   8048cc4 <_Unwind_Resume@plt>

0804994e <_ZNSt8_Rb_treeISsSt4pairIKSslESt10_Select1stIS2_ESt4lessISsESaIS2_EE6_M_endEv>:
_ZNSt8_Rb_treeISsSt4pairIKSslESt10_Select1stIS2_ESt4lessISsESaIS2_EE6_M_endEv():
/usr/include/c++/4.4/bits/stl_tree.h:492
 804994e:	55                   	push   %ebp
 804994f:	89 e5                	mov    %esp,%ebp
/usr/include/c++/4.4/bits/stl_tree.h:493
 8049951:	8b 45 08             	mov    0x8(%ebp),%eax
 8049954:	83 c0 04             	add    $0x4,%eax
 8049957:	5d                   	pop    %ebp
 8049958:	c3                   	ret    
 8049959:	90                   	nop

0804995a <_ZNSt8_Rb_treeISsSt4pairIKSslESt10_Select1stIS2_ESt4lessISsESaIS2_EE14_M_lower_boundEPSt13_Rb_tree_nodeIS2_ESB_RS1_>:
_ZNSt8_Rb_treeISsSt4pairIKSslESt10_Select1stIS2_ESt4lessISsESaIS2_EE14_M_lower_boundEPSt13_Rb_tree_nodeIS2_ESB_RS1_():
/usr/include/c++/4.4/bits/stl_tree.h:981
 804995a:	55                   	push   %ebp
 804995b:	89 e5                	mov    %esp,%ebp
 804995d:	53                   	push   %ebx
 804995e:	83 ec 14             	sub    $0x14,%esp
 8049961:	8b 5d 08             	mov    0x8(%ebp),%ebx
/usr/include/c++/4.4/bits/stl_tree.h:985
 8049964:	eb 4c                	jmp    80499b2 <_ZNSt8_Rb_treeISsSt4pairIKSslESt10_Select1stIS2_ESt4lessISsESaIS2_EE14_M_lower_boundEPSt13_Rb_tree_nodeIS2_ESB_RS1_+0x58>
/usr/include/c++/4.4/bits/stl_tree.h:986
 8049966:	8b 45 10             	mov    0x10(%ebp),%eax
 8049969:	89 04 24             	mov    %eax,(%esp)
 804996c:	e8 e3 00 00 00       	call   8049a54 <_ZNSt8_Rb_treeISsSt4pairIKSslESt10_Select1stIS2_ESt4lessISsESaIS2_EE6_S_keyEPKSt13_Rb_tree_nodeIS2_E>
 8049971:	8b 55 0c             	mov    0xc(%ebp),%edx
 8049974:	8b 4d 18             	mov    0x18(%ebp),%ecx
 8049977:	89 4c 24 08          	mov    %ecx,0x8(%esp)
 804997b:	89 44 24 04          	mov    %eax,0x4(%esp)
 804997f:	89 14 24             	mov    %edx,(%esp)
 8049982:	e8 97 00 00 00       	call   8049a1e <_ZNKSt4lessISsEclERKSsS2_>
 8049987:	83 f0 01             	xor    $0x1,%eax
 804998a:	84 c0                	test   %al,%al
 804998c:	74 16                	je     80499a4 <_ZNSt8_Rb_treeISsSt4pairIKSslESt10_Select1stIS2_ESt4lessISsESaIS2_EE14_M_lower_boundEPSt13_Rb_tree_nodeIS2_ESB_RS1_+0x4a>
/usr/include/c++/4.4/bits/stl_tree.h:987
 804998e:	8b 45 10             	mov    0x10(%ebp),%eax
 8049991:	89 45 14             	mov    %eax,0x14(%ebp)
 8049994:	8b 45 10             	mov    0x10(%ebp),%eax
 8049997:	89 04 24             	mov    %eax,(%esp)
 804999a:	e8 2f ff ff ff       	call   80498ce <_ZNSt8_Rb_treeISsSt4pairIKSslESt10_Select1stIS2_ESt4lessISsESaIS2_EE7_S_leftEPSt18_Rb_tree_node_base>
 804999f:	89 45 10             	mov    %eax,0x10(%ebp)
 80499a2:	eb 0e                	jmp    80499b2 <_ZNSt8_Rb_treeISsSt4pairIKSslESt10_Select1stIS2_ESt4lessISsESaIS2_EE14_M_lower_boundEPSt13_Rb_tree_nodeIS2_ESB_RS1_+0x58>
/usr/include/c++/4.4/bits/stl_tree.h:989
 80499a4:	8b 45 10             	mov    0x10(%ebp),%eax
 80499a7:	89 04 24             	mov    %eax,(%esp)
 80499aa:	e8 14 ff ff ff       	call   80498c3 <_ZNSt8_Rb_treeISsSt4pairIKSslESt10_Select1stIS2_ESt4lessISsESaIS2_EE8_S_rightEPSt18_Rb_tree_node_base>
 80499af:	89 45 10             	mov    %eax,0x10(%ebp)
/usr/include/c++/4.4/bits/stl_tree.h:985
 80499b2:	83 7d 10 00          	cmpl   $0x0,0x10(%ebp)
 80499b6:	0f 95 c0             	setne  %al
 80499b9:	84 c0                	test   %al,%al
 80499bb:	75 a9                	jne    8049966 <_ZNSt8_Rb_treeISsSt4pairIKSslESt10_Select1stIS2_ESt4lessISsESaIS2_EE14_M_lower_boundEPSt13_Rb_tree_nodeIS2_ESB_RS1_+0xc>
/usr/include/c++/4.4/bits/stl_tree.h:990
 80499bd:	8b 45 14             	mov    0x14(%ebp),%eax
 80499c0:	89 44 24 04          	mov    %eax,0x4(%esp)
 80499c4:	89 1c 24             	mov    %ebx,(%esp)
 80499c7:	e8 aa 00 00 00       	call   8049a76 <_ZNSt17_Rb_tree_iteratorISt4pairIKSslEEC1EPSt13_Rb_tree_nodeIS2_E>
/usr/include/c++/4.4/bits/stl_tree.h:991
 80499cc:	89 d8                	mov    %ebx,%eax
 80499ce:	83 c4 14             	add    $0x14,%esp
 80499d1:	5b                   	pop    %ebx
 80499d2:	5d                   	pop    %ebp
 80499d3:	c2 04 00             	ret    $0x4

080499d6 <_ZNSt8_Rb_treeISsSt4pairIKSslESt10_Select1stIS2_ESt4lessISsESaIS2_EE3endEv>:
_ZNSt8_Rb_treeISsSt4pairIKSslESt10_Select1stIS2_ESt4lessISsESaIS2_EE3endEv():
/usr/include/c++/4.4/bits/stl_tree.h:639
 80499d6:	55                   	push   %ebp
 80499d7:	89 e5                	mov    %esp,%ebp
 80499d9:	53                   	push   %ebx
 80499da:	83 ec 14             	sub    $0x14,%esp
 80499dd:	8b 5d 08             	mov    0x8(%ebp),%ebx
/usr/include/c++/4.4/bits/stl_tree.h:640
 80499e0:	8b 45 0c             	mov    0xc(%ebp),%eax
 80499e3:	83 c0 04             	add    $0x4,%eax
 80499e6:	89 44 24 04          	mov    %eax,0x4(%esp)
 80499ea:	89 1c 24             	mov    %ebx,(%esp)
 80499ed:	e8 84 00 00 00       	call   8049a76 <_ZNSt17_Rb_tree_iteratorISt4pairIKSslEEC1EPSt13_Rb_tree_nodeIS2_E>
 80499f2:	89 d8                	mov    %ebx,%eax
 80499f4:	83 c4 14             	add    $0x14,%esp
 80499f7:	5b                   	pop    %ebx
 80499f8:	5d                   	pop    %ebp
 80499f9:	c2 04 00             	ret    $0x4

080499fc <_ZNSt8_Rb_treeISsSt4pairIKSslESt10_Select1stIS2_ESt4lessISsESaIS2_EE6_S_keyEPKSt18_Rb_tree_node_base>:
_ZNSt8_Rb_treeISsSt4pairIKSslESt10_Select1stIS2_ESt4lessISsESaIS2_EE6_S_keyEPKSt18_Rb_tree_node_base():
/usr/include/c++/4.4/bits/stl_tree.h:528
 80499fc:	55                   	push   %ebp
 80499fd:	89 e5                	mov    %esp,%ebp
 80499ff:	83 ec 28             	sub    $0x28,%esp
/usr/include/c++/4.4/bits/stl_tree.h:529
 8049a02:	8b 45 08             	mov    0x8(%ebp),%eax
 8049a05:	89 04 24             	mov    %eax,(%esp)
 8049a08:	e8 03 03 00 00       	call   8049d10 <_ZNSt8_Rb_treeISsSt4pairIKSslESt10_Select1stIS2_ESt4lessISsESaIS2_EE8_S_valueEPKSt18_Rb_tree_node_base>
 8049a0d:	89 44 24 04          	mov    %eax,0x4(%esp)
 8049a11:	8d 45 f7             	lea    -0x9(%ebp),%eax
 8049a14:	89 04 24             	mov    %eax,(%esp)
 8049a17:	e8 30 00 00 00       	call   8049a4c <_ZNKSt10_Select1stISt4pairIKSslEEclERKS2_>
 8049a1c:	c9                   	leave  
 8049a1d:	c3                   	ret    

08049a1e <_ZNKSt4lessISsEclERKSsS2_>:
_ZNKSt4lessISsEclERKSsS2_():
/usr/include/c++/4.4/bits/stl_function.h:229
 8049a1e:	55                   	push   %ebp
 8049a1f:	89 e5                	mov    %esp,%ebp
 8049a21:	83 ec 18             	sub    $0x18,%esp
/usr/include/c++/4.4/bits/stl_function.h:230
 8049a24:	8b 45 10             	mov    0x10(%ebp),%eax
 8049a27:	89 44 24 04          	mov    %eax,0x4(%esp)
 8049a2b:	8b 45 0c             	mov    0xc(%ebp),%eax
 8049a2e:	89 04 24             	mov    %eax,(%esp)
 8049a31:	e8 e5 02 00 00       	call   8049d1b <_ZStltIcSt11char_traitsIcESaIcEEbRKSbIT_T0_T1_ES8_>
 8049a36:	c9                   	leave  
 8049a37:	c3                   	ret    

08049a38 <_ZNKSt17_Rb_tree_iteratorISt4pairIKSslEEeqERKS3_>:
_ZNKSt17_Rb_tree_iteratorISt4pairIKSslEEeqERKS3_():
/usr/include/c++/4.4/bits/stl_tree.h:212
 8049a38:	55                   	push   %ebp
 8049a39:	89 e5                	mov    %esp,%ebp
/usr/include/c++/4.4/bits/stl_tree.h:213
 8049a3b:	8b 45 08             	mov    0x8(%ebp),%eax
 8049a3e:	8b 10                	mov    (%eax),%edx
 8049a40:	8b 45 0c             	mov    0xc(%ebp),%eax
 8049a43:	8b 00                	mov    (%eax),%eax
 8049a45:	39 c2                	cmp    %eax,%edx
 8049a47:	0f 94 c0             	sete   %al
 8049a4a:	5d                   	pop    %ebp
 8049a4b:	c3                   	ret    

08049a4c <_ZNKSt10_Select1stISt4pairIKSslEEclERKS2_>:
_ZNKSt10_Select1stISt4pairIKSslEEclERKS2_():
/usr/include/c++/4.4/bits/stl_function.h:488
 8049a4c:	55                   	push   %ebp
 8049a4d:	89 e5                	mov    %esp,%ebp
/usr/include/c++/4.4/bits/stl_function.h:489
 8049a4f:	8b 45 0c             	mov    0xc(%ebp),%eax
 8049a52:	5d                   	pop    %ebp
 8049a53:	c3                   	ret    

08049a54 <_ZNSt8_Rb_treeISsSt4pairIKSslESt10_Select1stIS2_ESt4lessISsESaIS2_EE6_S_keyEPKSt13_Rb_tree_nodeIS2_E>:
_ZNSt8_Rb_treeISsSt4pairIKSslESt10_Select1stIS2_ESt4lessISsESaIS2_EE6_S_keyEPKSt13_Rb_tree_nodeIS2_E():
/usr/include/c++/4.4/bits/stl_tree.h:504
 8049a54:	55                   	push   %ebp
 8049a55:	89 e5                	mov    %esp,%ebp
 8049a57:	83 ec 28             	sub    $0x28,%esp
/usr/include/c++/4.4/bits/stl_tree.h:505
 8049a5a:	8b 45 08             	mov    0x8(%ebp),%eax
 8049a5d:	89 04 24             	mov    %eax,(%esp)
 8049a60:	e8 d3 02 00 00       	call   8049d38 <_ZNSt8_Rb_treeISsSt4pairIKSslESt10_Select1stIS2_ESt4lessISsESaIS2_EE8_S_valueEPKSt13_Rb_tree_nodeIS2_E>
 8049a65:	89 44 24 04          	mov    %eax,0x4(%esp)
 8049a69:	8d 45 f7             	lea    -0x9(%ebp),%eax
 8049a6c:	89 04 24             	mov    %eax,(%esp)
 8049a6f:	e8 d8 ff ff ff       	call   8049a4c <_ZNKSt10_Select1stISt4pairIKSslEEclERKS2_>
 8049a74:	c9                   	leave  
 8049a75:	c3                   	ret    

08049a76 <_ZNSt17_Rb_tree_iteratorISt4pairIKSslEEC1EPSt13_Rb_tree_nodeIS2_E>:
_Rb_tree_iterator():
/usr/include/c++/4.4/bits/stl_tree.h:170
 8049a76:	55                   	push   %ebp
 8049a77:	89 e5                	mov    %esp,%ebp
/usr/include/c++/4.4/bits/stl_tree.h:171
 8049a79:	8b 55 0c             	mov    0xc(%ebp),%edx
 8049a7c:	8b 45 08             	mov    0x8(%ebp),%eax
 8049a7f:	89 10                	mov    %edx,(%eax)
 8049a81:	5d                   	pop    %ebp
 8049a82:	c3                   	ret    
_ZNSt17_Rb_tree_iteratorISt4pairIKSslEEC1EPSt13_Rb_tree_nodeIS2_E():
 8049a83:	90                   	nop

08049a84 <_ZNSt8_Rb_treeISsSt4pairIKSslESt10_Select1stIS2_ESt4lessISsESaIS2_EE5beginEv>:
_ZNSt8_Rb_treeISsSt4pairIKSslESt10_Select1stIS2_ESt4lessISsESaIS2_EE5beginEv():
/usr/include/c++/4.4/bits/stl_tree.h:625
 8049a84:	55                   	push   %ebp
 8049a85:	89 e5                	mov    %esp,%ebp
 8049a87:	53                   	push   %ebx
 8049a88:	83 ec 14             	sub    $0x14,%esp
 8049a8b:	8b 5d 08             	mov    0x8(%ebp),%ebx
/usr/include/c++/4.4/bits/stl_tree.h:628
 8049a8e:	8b 45 0c             	mov    0xc(%ebp),%eax
 8049a91:	8b 40 0c             	mov    0xc(%eax),%eax
 8049a94:	89 44 24 04          	mov    %eax,0x4(%esp)
 8049a98:	89 1c 24             	mov    %ebx,(%esp)
 8049a9b:	e8 d6 ff ff ff       	call   8049a76 <_ZNSt17_Rb_tree_iteratorISt4pairIKSslEEC1EPSt13_Rb_tree_nodeIS2_E>
/usr/include/c++/4.4/bits/stl_tree.h:629
 8049aa0:	89 d8                	mov    %ebx,%eax
 8049aa2:	83 c4 14             	add    $0x14,%esp
 8049aa5:	5b                   	pop    %ebx
 8049aa6:	5d                   	pop    %ebp
 8049aa7:	c2 04 00             	ret    $0x4

08049aaa <_ZNSt8_Rb_treeISsSt4pairIKSslESt10_Select1stIS2_ESt4lessISsESaIS2_EE10_M_insert_EPKSt18_Rb_tree_node_baseSB_RKS2_>:
_ZNSt8_Rb_treeISsSt4pairIKSslESt10_Select1stIS2_ESt4lessISsESaIS2_EE10_M_insert_EPKSt18_Rb_tree_node_baseSB_RKS2_():
/usr/include/c++/4.4/bits/stl_tree.h:874
 8049aaa:	55                   	push   %ebp
 8049aab:	89 e5                	mov    %esp,%ebp
 8049aad:	56                   	push   %esi
 8049aae:	53                   	push   %ebx
 8049aaf:	83 ec 20             	sub    $0x20,%esp
 8049ab2:	8b 75 08             	mov    0x8(%ebp),%esi
/usr/include/c++/4.4/bits/stl_tree.h:879
 8049ab5:	83 7d 10 00          	cmpl   $0x0,0x10(%ebp)
 8049ab9:	75 46                	jne    8049b01 <_ZNSt8_Rb_treeISsSt4pairIKSslESt10_Select1stIS2_ESt4lessISsESaIS2_EE10_M_insert_EPKSt18_Rb_tree_node_baseSB_RKS2_+0x57>
 8049abb:	8b 45 0c             	mov    0xc(%ebp),%eax
 8049abe:	89 04 24             	mov    %eax,(%esp)
 8049ac1:	e8 88 fe ff ff       	call   804994e <_ZNSt8_Rb_treeISsSt4pairIKSslESt10_Select1stIS2_ESt4lessISsESaIS2_EE6_M_endEv>
 8049ac6:	3b 45 14             	cmp    0x14(%ebp),%eax
 8049ac9:	74 36                	je     8049b01 <_ZNSt8_Rb_treeISsSt4pairIKSslESt10_Select1stIS2_ESt4lessISsESaIS2_EE10_M_insert_EPKSt18_Rb_tree_node_baseSB_RKS2_+0x57>
 8049acb:	8b 45 14             	mov    0x14(%ebp),%eax
 8049ace:	89 04 24             	mov    %eax,(%esp)
 8049ad1:	e8 26 ff ff ff       	call   80499fc <_ZNSt8_Rb_treeISsSt4pairIKSslESt10_Select1stIS2_ESt4lessISsESaIS2_EE6_S_keyEPKSt18_Rb_tree_node_base>
 8049ad6:	89 c3                	mov    %eax,%ebx
 8049ad8:	8b 45 18             	mov    0x18(%ebp),%eax
 8049adb:	89 44 24 04          	mov    %eax,0x4(%esp)
 8049adf:	8d 45 f6             	lea    -0xa(%ebp),%eax
 8049ae2:	89 04 24             	mov    %eax,(%esp)
 8049ae5:	e8 62 ff ff ff       	call   8049a4c <_ZNKSt10_Select1stISt4pairIKSslEEclERKS2_>
 8049aea:	8b 55 0c             	mov    0xc(%ebp),%edx
 8049aed:	89 5c 24 08          	mov    %ebx,0x8(%esp)
 8049af1:	89 44 24 04          	mov    %eax,0x4(%esp)
 8049af5:	89 14 24             	mov    %edx,(%esp)
 8049af8:	e8 21 ff ff ff       	call   8049a1e <_ZNKSt4lessISsEclERKSsS2_>
 8049afd:	84 c0                	test   %al,%al
 8049aff:	74 07                	je     8049b08 <_ZNSt8_Rb_treeISsSt4pairIKSslESt10_Select1stIS2_ESt4lessISsESaIS2_EE10_M_insert_EPKSt18_Rb_tree_node_baseSB_RKS2_+0x5e>
 8049b01:	b8 01 00 00 00       	mov    $0x1,%eax
 8049b06:	eb 05                	jmp    8049b0d <_ZNSt8_Rb_treeISsSt4pairIKSslESt10_Select1stIS2_ESt4lessISsESaIS2_EE10_M_insert_EPKSt18_Rb_tree_node_baseSB_RKS2_+0x63>
 8049b08:	b8 00 00 00 00       	mov    $0x0,%eax
 8049b0d:	88 45 f7             	mov    %al,-0x9(%ebp)
/usr/include/c++/4.4/bits/stl_tree.h:881
 8049b10:	8b 45 18             	mov    0x18(%ebp),%eax
 8049b13:	89 44 24 04          	mov    %eax,0x4(%esp)
 8049b17:	8b 45 0c             	mov    0xc(%ebp),%eax
 8049b1a:	89 04 24             	mov    %eax,(%esp)
 8049b1d:	e8 22 02 00 00       	call   8049d44 <_ZNSt8_Rb_treeISsSt4pairIKSslESt10_Select1stIS2_ESt4lessISsESaIS2_EE14_M_create_nodeERKS2_>
 8049b22:	89 45 f0             	mov    %eax,-0x10(%ebp)
/usr/include/c++/4.4/bits/stl_tree.h:883
 8049b25:	8b 45 0c             	mov    0xc(%ebp),%eax
 8049b28:	8d 48 04             	lea    0x4(%eax),%ecx
 8049b2b:	8b 55 f0             	mov    -0x10(%ebp),%edx
 8049b2e:	0f b6 45 f7          	movzbl -0x9(%ebp),%eax
 8049b32:	89 4c 24 0c          	mov    %ecx,0xc(%esp)
 8049b36:	8b 4d 14             	mov    0x14(%ebp),%ecx
 8049b39:	89 4c 24 08          	mov    %ecx,0x8(%esp)
 8049b3d:	89 54 24 04          	mov    %edx,0x4(%esp)
 8049b41:	89 04 24             	mov    %eax,(%esp)
 8049b44:	e8 ab f0 ff ff       	call   8048bf4 <_ZSt29_Rb_tree_insert_and_rebalancebPSt18_Rb_tree_node_baseS0_RS_@plt>
/usr/include/c++/4.4/bits/stl_tree.h:886
 8049b49:	8b 45 0c             	mov    0xc(%ebp),%eax
 8049b4c:	8b 40 14             	mov    0x14(%eax),%eax
 8049b4f:	8d 50 01             	lea    0x1(%eax),%edx
 8049b52:	8b 45 0c             	mov    0xc(%ebp),%eax
 8049b55:	89 50 14             	mov    %edx,0x14(%eax)
/usr/include/c++/4.4/bits/stl_tree.h:887
 8049b58:	8b 45 f0             	mov    -0x10(%ebp),%eax
 8049b5b:	89 44 24 04          	mov    %eax,0x4(%esp)
 8049b5f:	89 34 24             	mov    %esi,(%esp)
 8049b62:	e8 0f ff ff ff       	call   8049a76 <_ZNSt17_Rb_tree_iteratorISt4pairIKSslEEC1EPSt13_Rb_tree_nodeIS2_E>
/usr/include/c++/4.4/bits/stl_tree.h:888
 8049b67:	89 f0                	mov    %esi,%eax
 8049b69:	83 c4 20             	add    $0x20,%esp
 8049b6c:	5b                   	pop    %ebx
 8049b6d:	5e                   	pop    %esi
 8049b6e:	5d                   	pop    %ebp
 8049b6f:	c2 04 00             	ret    $0x4

08049b72 <_ZNSt4pairISt17_Rb_tree_iteratorIS_IKSslEEbEC1ERKS3_RKb>:
pair():
/usr/include/c++/4.4/bits/stl_pair.h:83
 8049b72:	55                   	push   %ebp
 8049b73:	89 e5                	mov    %esp,%ebp
/usr/include/c++/4.4/bits/stl_pair.h:84
 8049b75:	8b 45 08             	mov    0x8(%ebp),%eax
 8049b78:	8b 55 0c             	mov    0xc(%ebp),%edx
 8049b7b:	8b 12                	mov    (%edx),%edx
 8049b7d:	89 10                	mov    %edx,(%eax)
 8049b7f:	8b 45 10             	mov    0x10(%ebp),%eax
 8049b82:	0f b6 10             	movzbl (%eax),%edx
 8049b85:	8b 45 08             	mov    0x8(%ebp),%eax
 8049b88:	88 50 04             	mov    %dl,0x4(%eax)
 8049b8b:	5d                   	pop    %ebp
 8049b8c:	c3                   	ret    
_ZNSt4pairISt17_Rb_tree_iteratorIS_IKSslEEbEC1ERKS3_RKb():
 8049b8d:	90                   	nop

08049b8e <_ZNSt17_Rb_tree_iteratorISt4pairIKSslEEmmEv>:
_ZNSt17_Rb_tree_iteratorISt4pairIKSslEEmmEv():
/usr/include/c++/4.4/bits/stl_tree.h:197
 8049b8e:	55                   	push   %ebp
 8049b8f:	89 e5                	mov    %esp,%ebp
 8049b91:	83 ec 18             	sub    $0x18,%esp
/usr/include/c++/4.4/bits/stl_tree.h:199
 8049b94:	8b 45 08             	mov    0x8(%ebp),%eax
 8049b97:	8b 00                	mov    (%eax),%eax
 8049b99:	89 04 24             	mov    %eax,(%esp)
 8049b9c:	e8 c3 ef ff ff       	call   8048b64 <_ZSt18_Rb_tree_decrementPSt18_Rb_tree_node_base@plt>
 8049ba1:	8b 55 08             	mov    0x8(%ebp),%edx
 8049ba4:	89 02                	mov    %eax,(%edx)
/usr/include/c++/4.4/bits/stl_tree.h:200
 8049ba6:	8b 45 08             	mov    0x8(%ebp),%eax
/usr/include/c++/4.4/bits/stl_tree.h:201
 8049ba9:	c9                   	leave  
 8049baa:	c3                   	ret    
 8049bab:	90                   	nop

08049bac <_ZNSt23_Rb_tree_const_iteratorISt4pairIKSslEEC1EPKSt13_Rb_tree_nodeIS2_E>:
_Rb_tree_const_iterator():
/usr/include/c++/4.4/bits/stl_tree.h:242
 8049bac:	55                   	push   %ebp
 8049bad:	89 e5                	mov    %esp,%ebp
/usr/include/c++/4.4/bits/stl_tree.h:243
 8049baf:	8b 55 0c             	mov    0xc(%ebp),%edx
 8049bb2:	8b 45 08             	mov    0x8(%ebp),%eax
 8049bb5:	89 10                	mov    %edx,(%eax)
 8049bb7:	5d                   	pop    %ebp
 8049bb8:	c3                   	ret    
_ZNSt23_Rb_tree_const_iteratorISt4pairIKSslEEC1EPKSt13_Rb_tree_nodeIS2_E():
 8049bb9:	90                   	nop

08049bba <_ZNKSt8_Rb_treeISsSt4pairIKSslESt10_Select1stIS2_ESt4lessISsESaIS2_EE8_M_beginEv>:
_ZNKSt8_Rb_treeISsSt4pairIKSslESt10_Select1stIS2_ESt4lessISsESaIS2_EE8_M_beginEv():
/usr/include/c++/4.4/bits/stl_tree.h:485
 8049bba:	55                   	push   %ebp
 8049bbb:	89 e5                	mov    %esp,%ebp
/usr/include/c++/4.4/bits/stl_tree.h:488
 8049bbd:	8b 45 08             	mov    0x8(%ebp),%eax
 8049bc0:	8b 40 08             	mov    0x8(%eax),%eax
/usr/include/c++/4.4/bits/stl_tree.h:489
 8049bc3:	5d                   	pop    %ebp
 8049bc4:	c3                   	ret    
 8049bc5:	90                   	nop

08049bc6 <_ZNKSt8_Rb_treeISsSt4pairIKSslESt10_Select1stIS2_ESt4lessISsESaIS2_EE6_M_endEv>:
_ZNKSt8_Rb_treeISsSt4pairIKSslESt10_Select1stIS2_ESt4lessISsESaIS2_EE6_M_endEv():
/usr/include/c++/4.4/bits/stl_tree.h:496
 8049bc6:	55                   	push   %ebp
 8049bc7:	89 e5                	mov    %esp,%ebp
/usr/include/c++/4.4/bits/stl_tree.h:497
 8049bc9:	8b 45 08             	mov    0x8(%ebp),%eax
 8049bcc:	83 c0 04             	add    $0x4,%eax
 8049bcf:	5d                   	pop    %ebp
 8049bd0:	c3                   	ret    
 8049bd1:	90                   	nop

08049bd2 <_ZNKSt8_Rb_treeISsSt4pairIKSslESt10_Select1stIS2_ESt4lessISsESaIS2_EE14_M_lower_boundEPKSt13_Rb_tree_nodeIS2_ESC_RS1_>:
_ZNKSt8_Rb_treeISsSt4pairIKSslESt10_Select1stIS2_ESt4lessISsESaIS2_EE14_M_lower_boundEPKSt13_Rb_tree_nodeIS2_ESC_RS1_():
/usr/include/c++/4.4/bits/stl_tree.h:997
 8049bd2:	55                   	push   %ebp
 8049bd3:	89 e5                	mov    %esp,%ebp
 8049bd5:	53                   	push   %ebx
 8049bd6:	83 ec 14             	sub    $0x14,%esp
 8049bd9:	8b 5d 08             	mov    0x8(%ebp),%ebx
/usr/include/c++/4.4/bits/stl_tree.h:1001
 8049bdc:	eb 4c                	jmp    8049c2a <_ZNKSt8_Rb_treeISsSt4pairIKSslESt10_Select1stIS2_ESt4lessISsESaIS2_EE14_M_lower_boundEPKSt13_Rb_tree_nodeIS2_ESC_RS1_+0x58>
/usr/include/c++/4.4/bits/stl_tree.h:1002
 8049bde:	8b 45 10             	mov    0x10(%ebp),%eax
 8049be1:	89 04 24             	mov    %eax,(%esp)
 8049be4:	e8 6b fe ff ff       	call   8049a54 <_ZNSt8_Rb_treeISsSt4pairIKSslESt10_Select1stIS2_ESt4lessISsESaIS2_EE6_S_keyEPKSt13_Rb_tree_nodeIS2_E>
 8049be9:	8b 55 0c             	mov    0xc(%ebp),%edx
 8049bec:	8b 4d 18             	mov    0x18(%ebp),%ecx
 8049bef:	89 4c 24 08          	mov    %ecx,0x8(%esp)
 8049bf3:	89 44 24 04          	mov    %eax,0x4(%esp)
 8049bf7:	89 14 24             	mov    %edx,(%esp)
 8049bfa:	e8 1f fe ff ff       	call   8049a1e <_ZNKSt4lessISsEclERKSsS2_>
 8049bff:	83 f0 01             	xor    $0x1,%eax
 8049c02:	84 c0                	test   %al,%al
 8049c04:	74 16                	je     8049c1c <_ZNKSt8_Rb_treeISsSt4pairIKSslESt10_Select1stIS2_ESt4lessISsESaIS2_EE14_M_lower_boundEPKSt13_Rb_tree_nodeIS2_ESC_RS1_+0x4a>
/usr/include/c++/4.4/bits/stl_tree.h:1003
 8049c06:	8b 45 10             	mov    0x10(%ebp),%eax
 8049c09:	89 45 14             	mov    %eax,0x14(%ebp)
 8049c0c:	8b 45 10             	mov    0x10(%ebp),%eax
 8049c0f:	89 04 24             	mov    %eax,(%esp)
 8049c12:	e8 d3 01 00 00       	call   8049dea <_ZNSt8_Rb_treeISsSt4pairIKSslESt10_Select1stIS2_ESt4lessISsESaIS2_EE7_S_leftEPKSt18_Rb_tree_node_base>
 8049c17:	89 45 10             	mov    %eax,0x10(%ebp)
 8049c1a:	eb 0e                	jmp    8049c2a <_ZNKSt8_Rb_treeISsSt4pairIKSslESt10_Select1stIS2_ESt4lessISsESaIS2_EE14_M_lower_boundEPKSt13_Rb_tree_nodeIS2_ESC_RS1_+0x58>
/usr/include/c++/4.4/bits/stl_tree.h:1005
 8049c1c:	8b 45 10             	mov    0x10(%ebp),%eax
 8049c1f:	89 04 24             	mov    %eax,(%esp)
 8049c22:	e8 ce 01 00 00       	call   8049df5 <_ZNSt8_Rb_treeISsSt4pairIKSslESt10_Select1stIS2_ESt4lessISsESaIS2_EE8_S_rightEPKSt18_Rb_tree_node_base>
 8049c27:	89 45 10             	mov    %eax,0x10(%ebp)
/usr/include/c++/4.4/bits/stl_tree.h:1001
 8049c2a:	83 7d 10 00          	cmpl   $0x0,0x10(%ebp)
 8049c2e:	0f 95 c0             	setne  %al
 8049c31:	84 c0                	test   %al,%al
 8049c33:	75 a9                	jne    8049bde <_ZNKSt8_Rb_treeISsSt4pairIKSslESt10_Select1stIS2_ESt4lessISsESaIS2_EE14_M_lower_boundEPKSt13_Rb_tree_nodeIS2_ESC_RS1_+0xc>
/usr/include/c++/4.4/bits/stl_tree.h:1006
 8049c35:	8b 45 14             	mov    0x14(%ebp),%eax
 8049c38:	89 44 24 04          	mov    %eax,0x4(%esp)
 8049c3c:	89 1c 24             	mov    %ebx,(%esp)
 8049c3f:	e8 68 ff ff ff       	call   8049bac <_ZNSt23_Rb_tree_const_iteratorISt4pairIKSslEEC1EPKSt13_Rb_tree_nodeIS2_E>
/usr/include/c++/4.4/bits/stl_tree.h:1007
 8049c44:	89 d8                	mov    %ebx,%eax
 8049c46:	83 c4 14             	add    $0x14,%esp
 8049c49:	5b                   	pop    %ebx
 8049c4a:	5d                   	pop    %ebp
 8049c4b:	c2 04 00             	ret    $0x4

08049c4e <_ZNSaISt13_Rb_tree_nodeISt4pairIKSslEEEC2Ev>:
allocator():
/usr/include/c++/4.4/bits/allocator.h:101
 8049c4e:	55                   	push   %ebp
 8049c4f:	89 e5                	mov    %esp,%ebp
 8049c51:	83 ec 18             	sub    $0x18,%esp
 8049c54:	8b 45 08             	mov    0x8(%ebp),%eax
 8049c57:	89 04 24             	mov    %eax,(%esp)
 8049c5a:	e8 a1 01 00 00       	call   8049e00 <_ZN9__gnu_cxx13new_allocatorISt13_Rb_tree_nodeISt4pairIKSslEEEC2Ev>
 8049c5f:	c9                   	leave  
 8049c60:	c3                   	ret    
_ZNSaISt13_Rb_tree_nodeISt4pairIKSslEEEC2Ev():
 8049c61:	90                   	nop

08049c62 <_ZNSt8_Rb_treeISsSt4pairIKSslESt10_Select1stIS2_ESt4lessISsESaIS2_EE13_Rb_tree_implIS6_Lb0EE13_M_initializeEv>:
_ZNSt8_Rb_treeISsSt4pairIKSslESt10_Select1stIS2_ESt4lessISsESaIS2_EE13_Rb_tree_implIS6_Lb0EE13_M_initializeEv():
/usr/include/c++/4.4/bits/stl_tree.h:444
 8049c62:	55                   	push   %ebp
 8049c63:	89 e5                	mov    %esp,%ebp
/usr/include/c++/4.4/bits/stl_tree.h:446
 8049c65:	8b 45 08             	mov    0x8(%ebp),%eax
 8049c68:	c7 40 04 00 00 00 00 	movl   $0x0,0x4(%eax)
/usr/include/c++/4.4/bits/stl_tree.h:447
 8049c6f:	8b 45 08             	mov    0x8(%ebp),%eax
 8049c72:	c7 40 08 00 00 00 00 	movl   $0x0,0x8(%eax)
/usr/include/c++/4.4/bits/stl_tree.h:448
 8049c79:	8b 45 08             	mov    0x8(%ebp),%eax
 8049c7c:	8d 50 04             	lea    0x4(%eax),%edx
 8049c7f:	8b 45 08             	mov    0x8(%ebp),%eax
 8049c82:	89 50 0c             	mov    %edx,0xc(%eax)
/usr/include/c++/4.4/bits/stl_tree.h:449
 8049c85:	8b 45 08             	mov    0x8(%ebp),%eax
 8049c88:	8d 50 04             	lea    0x4(%eax),%edx
 8049c8b:	8b 45 08             	mov    0x8(%ebp),%eax
 8049c8e:	89 50 10             	mov    %edx,0x10(%eax)
/usr/include/c++/4.4/bits/stl_tree.h:450
 8049c91:	5d                   	pop    %ebp
 8049c92:	c3                   	ret    
 8049c93:	90                   	nop

08049c94 <_ZNKSt8_Rb_treeISsSt4pairIKSslESt10_Select1stIS2_ESt4lessISsESaIS2_EE13get_allocatorEv>:
_ZNKSt8_Rb_treeISsSt4pairIKSslESt10_Select1stIS2_ESt4lessISsESaIS2_EE13get_allocatorEv():
/usr/include/c++/4.4/bits/stl_tree.h:353
 8049c94:	55                   	push   %ebp
 8049c95:	89 e5                	mov    %esp,%ebp
 8049c97:	56                   	push   %esi
 8049c98:	53                   	push   %ebx
 8049c99:	83 ec 10             	sub    $0x10,%esp
 8049c9c:	8b 5d 08             	mov    0x8(%ebp),%ebx
/usr/include/c++/4.4/bits/stl_tree.h:354
 8049c9f:	89 de                	mov    %ebx,%esi
 8049ca1:	8b 45 0c             	mov    0xc(%ebp),%eax
 8049ca4:	89 04 24             	mov    %eax,(%esp)
 8049ca7:	e8 5a 01 00 00       	call   8049e06 <_ZNKSt8_Rb_treeISsSt4pairIKSslESt10_Select1stIS2_ESt4lessISsESaIS2_EE21_M_get_Node_allocatorEv>
 8049cac:	89 44 24 04          	mov    %eax,0x4(%esp)
 8049cb0:	89 34 24             	mov    %esi,(%esp)
 8049cb3:	e8 56 01 00 00       	call   8049e0e <_ZNSaISt4pairIKSslEEC1ISt13_Rb_tree_nodeIS1_EEERKSaIT_E>
 8049cb8:	89 d8                	mov    %ebx,%eax
 8049cba:	89 d8                	mov    %ebx,%eax
 8049cbc:	83 c4 10             	add    $0x10,%esp
 8049cbf:	5b                   	pop    %ebx
 8049cc0:	5e                   	pop    %esi
 8049cc1:	5d                   	pop    %ebp
 8049cc2:	c2 04 00             	ret    $0x4
 8049cc5:	90                   	nop

08049cc6 <_ZNSaISt4pairIKSslEED1Ev>:
~allocator():
/usr/include/c++/4.4/bits/allocator.h:109
 8049cc6:	55                   	push   %ebp
 8049cc7:	89 e5                	mov    %esp,%ebp
 8049cc9:	83 ec 18             	sub    $0x18,%esp
 8049ccc:	8b 45 08             	mov    0x8(%ebp),%eax
 8049ccf:	89 04 24             	mov    %eax,(%esp)
 8049cd2:	e8 4b 01 00 00       	call   8049e22 <_ZN9__gnu_cxx13new_allocatorISt4pairIKSslEED2Ev>
 8049cd7:	c9                   	leave  
 8049cd8:	c3                   	ret    
_ZNSaISt4pairIKSslEED1Ev():
 8049cd9:	90                   	nop

08049cda <_ZN9__gnu_cxx13new_allocatorISt4pairIKSslEE7destroyEPS3_>:
_ZN9__gnu_cxx13new_allocatorISt4pairIKSslEE7destroyEPS3_():
/usr/include/c++/4.4/ext/new_allocator.h:115
 8049cda:	55                   	push   %ebp
 8049cdb:	89 e5                	mov    %esp,%ebp
 8049cdd:	83 ec 18             	sub    $0x18,%esp
 8049ce0:	8b 45 0c             	mov    0xc(%ebp),%eax
 8049ce3:	89 04 24             	mov    %eax,(%esp)
 8049ce6:	e8 2f f5 ff ff       	call   804921a <_ZNSt4pairIKSslED1Ev>
 8049ceb:	c9                   	leave  
 8049cec:	c3                   	ret    
 8049ced:	90                   	nop

08049cee <_ZNSt8_Rb_treeISsSt4pairIKSslESt10_Select1stIS2_ESt4lessISsESaIS2_EE11_M_put_nodeEPSt13_Rb_tree_nodeIS2_E>:
_ZNSt8_Rb_treeISsSt4pairIKSslESt10_Select1stIS2_ESt4lessISsESaIS2_EE11_M_put_nodeEPSt13_Rb_tree_nodeIS2_E():
/usr/include/c++/4.4/bits/stl_tree.h:362
 8049cee:	55                   	push   %ebp
 8049cef:	89 e5                	mov    %esp,%ebp
 8049cf1:	83 ec 18             	sub    $0x18,%esp
/usr/include/c++/4.4/bits/stl_tree.h:363
 8049cf4:	8b 45 08             	mov    0x8(%ebp),%eax
 8049cf7:	c7 44 24 08 01 00 00 	movl   $0x1,0x8(%esp)
 8049cfe:	00 
 8049cff:	8b 55 0c             	mov    0xc(%ebp),%edx
 8049d02:	89 54 24 04          	mov    %edx,0x4(%esp)
 8049d06:	89 04 24             	mov    %eax,(%esp)
 8049d09:	e8 1a 01 00 00       	call   8049e28 <_ZN9__gnu_cxx13new_allocatorISt13_Rb_tree_nodeISt4pairIKSslEEE10deallocateEPS5_j>
 8049d0e:	c9                   	leave  
 8049d0f:	c3                   	ret    

08049d10 <_ZNSt8_Rb_treeISsSt4pairIKSslESt10_Select1stIS2_ESt4lessISsESaIS2_EE8_S_valueEPKSt18_Rb_tree_node_base>:
_ZNSt8_Rb_treeISsSt4pairIKSslESt10_Select1stIS2_ESt4lessISsESaIS2_EE8_S_valueEPKSt18_Rb_tree_node_base():
/usr/include/c++/4.4/bits/stl_tree.h:524
 8049d10:	55                   	push   %ebp
 8049d11:	89 e5                	mov    %esp,%ebp
/usr/include/c++/4.4/bits/stl_tree.h:525
 8049d13:	8b 45 08             	mov    0x8(%ebp),%eax
 8049d16:	83 c0 10             	add    $0x10,%eax
 8049d19:	5d                   	pop    %ebp
 8049d1a:	c3                   	ret    

08049d1b <_ZStltIcSt11char_traitsIcESaIcEEbRKSbIT_T0_T1_ES8_>:
_ZStltIcSt11char_traitsIcESaIcEEbRKSbIT_T0_T1_ES8_():
/usr/include/c++/4.4/bits/basic_string.h:2318
 8049d1b:	55                   	push   %ebp
 8049d1c:	89 e5                	mov    %esp,%ebp
 8049d1e:	83 ec 18             	sub    $0x18,%esp
/usr/include/c++/4.4/bits/basic_string.h:2320
 8049d21:	8b 45 0c             	mov    0xc(%ebp),%eax
 8049d24:	89 44 24 04          	mov    %eax,0x4(%esp)
 8049d28:	8b 45 08             	mov    0x8(%ebp),%eax
 8049d2b:	89 04 24             	mov    %eax,(%esp)
 8049d2e:	e8 51 ee ff ff       	call   8048b84 <_ZNKSs7compareERKSs@plt>
 8049d33:	c1 e8 1f             	shr    $0x1f,%eax
 8049d36:	c9                   	leave  
 8049d37:	c3                   	ret    

08049d38 <_ZNSt8_Rb_treeISsSt4pairIKSslESt10_Select1stIS2_ESt4lessISsESaIS2_EE8_S_valueEPKSt13_Rb_tree_nodeIS2_E>:
_ZNSt8_Rb_treeISsSt4pairIKSslESt10_Select1stIS2_ESt4lessISsESaIS2_EE8_S_valueEPKSt13_Rb_tree_nodeIS2_E():
/usr/include/c++/4.4/bits/stl_tree.h:500
 8049d38:	55                   	push   %ebp
 8049d39:	89 e5                	mov    %esp,%ebp
/usr/include/c++/4.4/bits/stl_tree.h:501
 8049d3b:	8b 45 08             	mov    0x8(%ebp),%eax
 8049d3e:	83 c0 10             	add    $0x10,%eax
 8049d41:	5d                   	pop    %ebp
 8049d42:	c3                   	ret    
 8049d43:	90                   	nop

08049d44 <_ZNSt8_Rb_treeISsSt4pairIKSslESt10_Select1stIS2_ESt4lessISsESaIS2_EE14_M_create_nodeERKS2_>:
_ZNSt8_Rb_treeISsSt4pairIKSslESt10_Select1stIS2_ESt4lessISsESaIS2_EE14_M_create_nodeERKS2_():
/usr/include/c++/4.4/bits/stl_tree.h:367
 8049d44:	55                   	push   %ebp
 8049d45:	89 e5                	mov    %esp,%ebp
 8049d47:	56                   	push   %esi
 8049d48:	53                   	push   %ebx
 8049d49:	83 ec 20             	sub    $0x20,%esp
/usr/include/c++/4.4/bits/stl_tree.h:369
 8049d4c:	8b 45 08             	mov    0x8(%ebp),%eax
 8049d4f:	89 04 24             	mov    %eax,(%esp)
 8049d52:	e8 e5 00 00 00       	call   8049e3c <_ZNSt8_Rb_treeISsSt4pairIKSslESt10_Select1stIS2_ESt4lessISsESaIS2_EE11_M_get_nodeEv>
 8049d57:	89 45 f0             	mov    %eax,-0x10(%ebp)
/usr/include/c++/4.4/bits/stl_tree.h:371
 8049d5a:	8b 45 f0             	mov    -0x10(%ebp),%eax
 8049d5d:	8d 58 10             	lea    0x10(%eax),%ebx
 8049d60:	8d 45 f7             	lea    -0x9(%ebp),%eax
 8049d63:	8b 55 08             	mov    0x8(%ebp),%edx
 8049d66:	89 54 24 04          	mov    %edx,0x4(%esp)
 8049d6a:	89 04 24             	mov    %eax,(%esp)
 8049d6d:	e8 22 ff ff ff       	call   8049c94 <_ZNKSt8_Rb_treeISsSt4pairIKSslESt10_Select1stIS2_ESt4lessISsESaIS2_EE13get_allocatorEv>
 8049d72:	83 ec 04             	sub    $0x4,%esp
 8049d75:	8d 45 f7             	lea    -0x9(%ebp),%eax
 8049d78:	8b 55 0c             	mov    0xc(%ebp),%edx
 8049d7b:	89 54 24 08          	mov    %edx,0x8(%esp)
 8049d7f:	89 5c 24 04          	mov    %ebx,0x4(%esp)
 8049d83:	89 04 24             	mov    %eax,(%esp)
 8049d86:	e8 fb 00 00 00       	call   8049e86 <_ZN9__gnu_cxx13new_allocatorISt4pairIKSslEE9constructEPS3_RKS3_>
 8049d8b:	8d 45 f7             	lea    -0x9(%ebp),%eax
 8049d8e:	89 04 24             	mov    %eax,(%esp)
 8049d91:	e8 30 ff ff ff       	call   8049cc6 <_ZNSaISt4pairIKSslEED1Ev>
/usr/include/c++/4.4/bits/stl_tree.h:377
 8049d96:	8b 45 f0             	mov    -0x10(%ebp),%eax
/usr/include/c++/4.4/bits/stl_tree.h:378
 8049d99:	8d 65 f8             	lea    -0x8(%ebp),%esp
 8049d9c:	83 c4 00             	add    $0x0,%esp
 8049d9f:	5b                   	pop    %ebx
 8049da0:	5e                   	pop    %esi
 8049da1:	5d                   	pop    %ebp
 8049da2:	c3                   	ret    
/usr/include/c++/4.4/bits/stl_tree.h:371
 8049da3:	89 d3                	mov    %edx,%ebx
 8049da5:	89 c6                	mov    %eax,%esi
 8049da7:	8d 45 f7             	lea    -0x9(%ebp),%eax
 8049daa:	89 04 24             	mov    %eax,(%esp)
 8049dad:	e8 14 ff ff ff       	call   8049cc6 <_ZNSaISt4pairIKSslEED1Ev>
 8049db2:	89 f0                	mov    %esi,%eax
 8049db4:	89 da                	mov    %ebx,%edx
/usr/include/c++/4.4/bits/stl_tree.h:372
 8049db6:	89 04 24             	mov    %eax,(%esp)
 8049db9:	e8 c6 ee ff ff       	call   8048c84 <__cxa_begin_catch@plt>
/usr/include/c++/4.4/bits/stl_tree.h:374
 8049dbe:	8b 45 f0             	mov    -0x10(%ebp),%eax
 8049dc1:	89 44 24 04          	mov    %eax,0x4(%esp)
 8049dc5:	8b 45 08             	mov    0x8(%ebp),%eax
 8049dc8:	89 04 24             	mov    %eax,(%esp)
 8049dcb:	e8 1e ff ff ff       	call   8049cee <_ZNSt8_Rb_treeISsSt4pairIKSslESt10_Select1stIS2_ESt4lessISsESaIS2_EE11_M_put_nodeEPSt13_Rb_tree_nodeIS2_E>
/usr/include/c++/4.4/bits/stl_tree.h:375
 8049dd0:	e8 6f ed ff ff       	call   8048b44 <__cxa_rethrow@plt>
 8049dd5:	89 d3                	mov    %edx,%ebx
 8049dd7:	89 c6                	mov    %eax,%esi
/usr/include/c++/4.4/bits/stl_tree.h:372
 8049dd9:	e8 76 ee ff ff       	call   8048c54 <__cxa_end_catch@plt>
 8049dde:	89 f0                	mov    %esi,%eax
 8049de0:	89 da                	mov    %ebx,%edx
 8049de2:	89 04 24             	mov    %eax,(%esp)
 8049de5:	e8 da ee ff ff       	call   8048cc4 <_Unwind_Resume@plt>

08049dea <_ZNSt8_Rb_treeISsSt4pairIKSslESt10_Select1stIS2_ESt4lessISsESaIS2_EE7_S_leftEPKSt18_Rb_tree_node_base>:
_ZNSt8_Rb_treeISsSt4pairIKSslESt10_Select1stIS2_ESt4lessISsESaIS2_EE7_S_leftEPKSt18_Rb_tree_node_base():
/usr/include/c++/4.4/bits/stl_tree.h:512
 8049dea:	55                   	push   %ebp
 8049deb:	89 e5                	mov    %esp,%ebp
/usr/include/c++/4.4/bits/stl_tree.h:513
 8049ded:	8b 45 08             	mov    0x8(%ebp),%eax
 8049df0:	8b 40 08             	mov    0x8(%eax),%eax
 8049df3:	5d                   	pop    %ebp
 8049df4:	c3                   	ret    

08049df5 <_ZNSt8_Rb_treeISsSt4pairIKSslESt10_Select1stIS2_ESt4lessISsESaIS2_EE8_S_rightEPKSt18_Rb_tree_node_base>:
_ZNSt8_Rb_treeISsSt4pairIKSslESt10_Select1stIS2_ESt4lessISsESaIS2_EE8_S_rightEPKSt18_Rb_tree_node_base():
/usr/include/c++/4.4/bits/stl_tree.h:520
 8049df5:	55                   	push   %ebp
 8049df6:	89 e5                	mov    %esp,%ebp
/usr/include/c++/4.4/bits/stl_tree.h:521
 8049df8:	8b 45 08             	mov    0x8(%ebp),%eax
 8049dfb:	8b 40 0c             	mov    0xc(%eax),%eax
 8049dfe:	5d                   	pop    %ebp
 8049dff:	c3                   	ret    

08049e00 <_ZN9__gnu_cxx13new_allocatorISt13_Rb_tree_nodeISt4pairIKSslEEEC2Ev>:
new_allocator():
/usr/include/c++/4.4/ext/new_allocator.h:66
 8049e00:	55                   	push   %ebp
 8049e01:	89 e5                	mov    %esp,%ebp
 8049e03:	5d                   	pop    %ebp
 8049e04:	c3                   	ret    
_ZN9__gnu_cxx13new_allocatorISt13_Rb_tree_nodeISt4pairIKSslEEEC2Ev():
 8049e05:	90                   	nop

08049e06 <_ZNKSt8_Rb_treeISsSt4pairIKSslESt10_Select1stIS2_ESt4lessISsESaIS2_EE21_M_get_Node_allocatorEv>:
_ZNKSt8_Rb_treeISsSt4pairIKSslESt10_Select1stIS2_ESt4lessISsESaIS2_EE21_M_get_Node_allocatorEv():
/usr/include/c++/4.4/bits/stl_tree.h:349
 8049e06:	55                   	push   %ebp
 8049e07:	89 e5                	mov    %esp,%ebp
/usr/include/c++/4.4/bits/stl_tree.h:350
 8049e09:	8b 45 08             	mov    0x8(%ebp),%eax
 8049e0c:	5d                   	pop    %ebp
 8049e0d:	c3                   	ret    

08049e0e <_ZNSaISt4pairIKSslEEC1ISt13_Rb_tree_nodeIS1_EEERKSaIT_E>:
allocator<std::_Rb_tree_node<std::pair<const std::basic_string<char, std::char_traits<char>, std::allocator<char> >, long int> > >():
/usr/include/c++/4.4/bits/allocator.h:107
 8049e0e:	55                   	push   %ebp
 8049e0f:	89 e5                	mov    %esp,%ebp
 8049e11:	83 ec 18             	sub    $0x18,%esp
 8049e14:	8b 45 08             	mov    0x8(%ebp),%eax
 8049e17:	89 04 24             	mov    %eax,(%esp)
 8049e1a:	e8 c5 00 00 00       	call   8049ee4 <_ZN9__gnu_cxx13new_allocatorISt4pairIKSslEEC2Ev>
 8049e1f:	c9                   	leave  
 8049e20:	c3                   	ret    
_ZNSaISt4pairIKSslEEC1ISt13_Rb_tree_nodeIS1_EEERKSaIT_E():
 8049e21:	90                   	nop

08049e22 <_ZN9__gnu_cxx13new_allocatorISt4pairIKSslEED2Ev>:
~new_allocator():
/usr/include/c++/4.4/ext/new_allocator.h:73
 8049e22:	55                   	push   %ebp
 8049e23:	89 e5                	mov    %esp,%ebp
 8049e25:	5d                   	pop    %ebp
 8049e26:	c3                   	ret    
_ZN9__gnu_cxx13new_allocatorISt4pairIKSslEED2Ev():
 8049e27:	90                   	nop

08049e28 <_ZN9__gnu_cxx13new_allocatorISt13_Rb_tree_nodeISt4pairIKSslEEE10deallocateEPS5_j>:
_ZN9__gnu_cxx13new_allocatorISt13_Rb_tree_nodeISt4pairIKSslEEE10deallocateEPS5_j():
/usr/include/c++/4.4/ext/new_allocator.h:94
 8049e28:	55                   	push   %ebp
 8049e29:	89 e5                	mov    %esp,%ebp
 8049e2b:	83 ec 18             	sub    $0x18,%esp
/usr/include/c++/4.4/ext/new_allocator.h:95
 8049e2e:	8b 45 0c             	mov    0xc(%ebp),%eax
 8049e31:	89 04 24             	mov    %eax,(%esp)
 8049e34:	e8 fb ec ff ff       	call   8048b34 <_ZdlPv@plt>
 8049e39:	c9                   	leave  
 8049e3a:	c3                   	ret    
 8049e3b:	90                   	nop

08049e3c <_ZNSt8_Rb_treeISsSt4pairIKSslESt10_Select1stIS2_ESt4lessISsESaIS2_EE11_M_get_nodeEv>:
_ZNSt8_Rb_treeISsSt4pairIKSslESt10_Select1stIS2_ESt4lessISsESaIS2_EE11_M_get_nodeEv():
/usr/include/c++/4.4/bits/stl_tree.h:358
 8049e3c:	55                   	push   %ebp
 8049e3d:	89 e5                	mov    %esp,%ebp
 8049e3f:	83 ec 18             	sub    $0x18,%esp
/usr/include/c++/4.4/bits/stl_tree.h:359
 8049e42:	8b 45 08             	mov    0x8(%ebp),%eax
 8049e45:	c7 44 24 08 00 00 00 	movl   $0x0,0x8(%esp)
 8049e4c:	00 
 8049e4d:	c7 44 24 04 01 00 00 	movl   $0x1,0x4(%esp)
 8049e54:	00 
 8049e55:	89 04 24             	mov    %eax,(%esp)
 8049e58:	e8 8d 00 00 00       	call   8049eea <_ZN9__gnu_cxx13new_allocatorISt13_Rb_tree_nodeISt4pairIKSslEEE8allocateEjPKv>
 8049e5d:	c9                   	leave  
 8049e5e:	c3                   	ret    
 8049e5f:	90                   	nop

08049e60 <_ZNSt4pairIKSslEC1ERKS1_>:
pair():
/usr/include/c++/4.4/bits/stl_pair.h:68
 8049e60:	55                   	push   %ebp
 8049e61:	89 e5                	mov    %esp,%ebp
 8049e63:	83 ec 18             	sub    $0x18,%esp
 8049e66:	8b 55 0c             	mov    0xc(%ebp),%edx
 8049e69:	8b 45 08             	mov    0x8(%ebp),%eax
 8049e6c:	89 54 24 04          	mov    %edx,0x4(%esp)
 8049e70:	89 04 24             	mov    %eax,(%esp)
 8049e73:	e8 1c ed ff ff       	call   8048b94 <_ZNSsC1ERKSs@plt>
 8049e78:	8b 45 0c             	mov    0xc(%ebp),%eax
 8049e7b:	8b 50 04             	mov    0x4(%eax),%edx
 8049e7e:	8b 45 08             	mov    0x8(%ebp),%eax
 8049e81:	89 50 04             	mov    %edx,0x4(%eax)
 8049e84:	c9                   	leave  
 8049e85:	c3                   	ret    

08049e86 <_ZN9__gnu_cxx13new_allocatorISt4pairIKSslEE9constructEPS3_RKS3_>:
_ZN9__gnu_cxx13new_allocatorISt4pairIKSslEE9constructEPS3_RKS3_():
/usr/include/c++/4.4/ext/new_allocator.h:104
 8049e86:	55                   	push   %ebp
 8049e87:	89 e5                	mov    %esp,%ebp
 8049e89:	57                   	push   %edi
 8049e8a:	56                   	push   %esi
 8049e8b:	53                   	push   %ebx
 8049e8c:	83 ec 2c             	sub    $0x2c,%esp
/usr/include/c++/4.4/ext/new_allocator.h:105
 8049e8f:	8b 75 0c             	mov    0xc(%ebp),%esi
 8049e92:	89 74 24 04          	mov    %esi,0x4(%esp)
 8049e96:	c7 04 24 08 00 00 00 	movl   $0x8,(%esp)
 8049e9d:	e8 42 f3 ff ff       	call   80491e4 <_ZnwjPv>
 8049ea2:	89 c3                	mov    %eax,%ebx
 8049ea4:	89 d8                	mov    %ebx,%eax
 8049ea6:	85 c0                	test   %eax,%eax
 8049ea8:	74 31                	je     8049edb <_ZN9__gnu_cxx13new_allocatorISt4pairIKSslEE9constructEPS3_RKS3_+0x55>
 8049eaa:	89 d8                	mov    %ebx,%eax
 8049eac:	8b 55 10             	mov    0x10(%ebp),%edx
 8049eaf:	89 54 24 04          	mov    %edx,0x4(%esp)
 8049eb3:	89 04 24             	mov    %eax,(%esp)
 8049eb6:	e8 a5 ff ff ff       	call   8049e60 <_ZNSt4pairIKSslEC1ERKS1_>
 8049ebb:	eb 1e                	jmp    8049edb <_ZN9__gnu_cxx13new_allocatorISt4pairIKSslEE9constructEPS3_RKS3_+0x55>
 8049ebd:	89 d7                	mov    %edx,%edi
 8049ebf:	89 45 e4             	mov    %eax,-0x1c(%ebp)
 8049ec2:	89 74 24 04          	mov    %esi,0x4(%esp)
 8049ec6:	89 1c 24             	mov    %ebx,(%esp)
 8049ec9:	e8 1e f3 ff ff       	call   80491ec <_ZdlPvS_>
 8049ece:	8b 45 e4             	mov    -0x1c(%ebp),%eax
 8049ed1:	89 fa                	mov    %edi,%edx
 8049ed3:	89 04 24             	mov    %eax,(%esp)
 8049ed6:	e8 e9 ed ff ff       	call   8048cc4 <_Unwind_Resume@plt>
 8049edb:	83 c4 2c             	add    $0x2c,%esp
 8049ede:	5b                   	pop    %ebx
 8049edf:	5e                   	pop    %esi
 8049ee0:	5f                   	pop    %edi
 8049ee1:	5d                   	pop    %ebp
 8049ee2:	c3                   	ret    
 8049ee3:	90                   	nop

08049ee4 <_ZN9__gnu_cxx13new_allocatorISt4pairIKSslEEC2Ev>:
new_allocator():
/usr/include/c++/4.4/ext/new_allocator.h:66
 8049ee4:	55                   	push   %ebp
 8049ee5:	89 e5                	mov    %esp,%ebp
 8049ee7:	5d                   	pop    %ebp
 8049ee8:	c3                   	ret    
_ZN9__gnu_cxx13new_allocatorISt4pairIKSslEEC2Ev():
 8049ee9:	90                   	nop

08049eea <_ZN9__gnu_cxx13new_allocatorISt13_Rb_tree_nodeISt4pairIKSslEEE8allocateEjPKv>:
_ZN9__gnu_cxx13new_allocatorISt13_Rb_tree_nodeISt4pairIKSslEEE8allocateEjPKv():
/usr/include/c++/4.4/ext/new_allocator.h:84
 8049eea:	55                   	push   %ebp
 8049eeb:	89 e5                	mov    %esp,%ebp
 8049eed:	83 ec 18             	sub    $0x18,%esp
/usr/include/c++/4.4/ext/new_allocator.h:86
 8049ef0:	8b 45 08             	mov    0x8(%ebp),%eax
 8049ef3:	89 04 24             	mov    %eax,(%esp)
 8049ef6:	e8 2d 00 00 00       	call   8049f28 <_ZNK9__gnu_cxx13new_allocatorISt13_Rb_tree_nodeISt4pairIKSslEEE8max_sizeEv>
 8049efb:	3b 45 0c             	cmp    0xc(%ebp),%eax
 8049efe:	0f 92 c0             	setb   %al
 8049f01:	0f b6 c0             	movzbl %al,%eax
 8049f04:	85 c0                	test   %eax,%eax
 8049f06:	0f 95 c0             	setne  %al
 8049f09:	84 c0                	test   %al,%al
 8049f0b:	74 05                	je     8049f12 <_ZN9__gnu_cxx13new_allocatorISt13_Rb_tree_nodeISt4pairIKSslEEE8allocateEjPKv+0x28>
/usr/include/c++/4.4/ext/new_allocator.h:87
 8049f0d:	e8 52 ed ff ff       	call   8048c64 <_ZSt17__throw_bad_allocv@plt>
/usr/include/c++/4.4/ext/new_allocator.h:89
 8049f12:	8b 55 0c             	mov    0xc(%ebp),%edx
 8049f15:	89 d0                	mov    %edx,%eax
 8049f17:	01 c0                	add    %eax,%eax
 8049f19:	01 d0                	add    %edx,%eax
 8049f1b:	c1 e0 03             	shl    $0x3,%eax
 8049f1e:	89 04 24             	mov    %eax,(%esp)
 8049f21:	e8 be ec ff ff       	call   8048be4 <_Znwj@plt>
/usr/include/c++/4.4/ext/new_allocator.h:90
 8049f26:	c9                   	leave  
 8049f27:	c3                   	ret    

08049f28 <_ZNK9__gnu_cxx13new_allocatorISt13_Rb_tree_nodeISt4pairIKSslEEE8max_sizeEv>:
_ZNK9__gnu_cxx13new_allocatorISt13_Rb_tree_nodeISt4pairIKSslEEE8max_sizeEv():
/usr/include/c++/4.4/ext/new_allocator.h:98
 8049f28:	55                   	push   %ebp
 8049f29:	89 e5                	mov    %esp,%ebp
/usr/include/c++/4.4/ext/new_allocator.h:99
 8049f2b:	b8 aa aa aa 0a       	mov    $0xaaaaaaa,%eax
 8049f30:	5d                   	pop    %ebp
 8049f31:	c3                   	ret    
 8049f32:	90                   	nop
 8049f33:	90                   	nop

08049f34 <_Z12assertEqualsll>:
_Z12assertEqualsll():
/home/fabrizio/Workspaces/workspaceCPP_RegressionExample/WorkersMap-namespace/Debug/../src/WorkersMap_test.cpp:21
 8049f34:	55                   	push   %ebp
 8049f35:	89 e5                	mov    %esp,%ebp
 8049f37:	57                   	push   %edi
 8049f38:	56                   	push   %esi
 8049f39:	53                   	push   %ebx
 8049f3a:	83 ec 1c             	sub    $0x1c,%esp
/home/fabrizio/Workspaces/workspaceCPP_RegressionExample/WorkersMap-namespace/Debug/../src/WorkersMap_test.cpp:22
 8049f3d:	8b 45 08             	mov    0x8(%ebp),%eax
 8049f40:	3b 45 0c             	cmp    0xc(%ebp),%eax
 8049f43:	0f 84 aa 00 00 00    	je     8049ff3 <_Z12assertEqualsll+0xbf>
/home/fabrizio/Workspaces/workspaceCPP_RegressionExample/WorkersMap-namespace/Debug/../src/WorkersMap_test.cpp:23
 8049f49:	c7 44 24 04 7c b8 04 	movl   $0x804b87c,0x4(%esp)
 8049f50:	08 
 8049f51:	c7 04 24 c0 f0 04 08 	movl   $0x804f0c0,(%esp)
 8049f58:	e8 57 ec ff ff       	call   8048bb4 <_ZStlsISt11char_traitsIcEERSt13basic_ostreamIcT_ES5_PKc@plt>
 8049f5d:	8b 55 0c             	mov    0xc(%ebp),%edx
 8049f60:	89 54 24 04          	mov    %edx,0x4(%esp)
 8049f64:	89 04 24             	mov    %eax,(%esp)
 8049f67:	e8 88 eb ff ff       	call   8048af4 <_ZNSolsEl@plt>
 8049f6c:	c7 44 24 04 83 b8 04 	movl   $0x804b883,0x4(%esp)
 8049f73:	08 
 8049f74:	89 04 24             	mov    %eax,(%esp)
 8049f77:	e8 38 ec ff ff       	call   8048bb4 <_ZStlsISt11char_traitsIcEERSt13basic_ostreamIcT_ES5_PKc@plt>
 8049f7c:	8b 55 08             	mov    0x8(%ebp),%edx
 8049f7f:	89 54 24 04          	mov    %edx,0x4(%esp)
 8049f83:	89 04 24             	mov    %eax,(%esp)
 8049f86:	e8 69 eb ff ff       	call   8048af4 <_ZNSolsEl@plt>
 8049f8b:	c7 44 24 04 74 8c 04 	movl   $0x8048c74,0x4(%esp)
 8049f92:	08 
 8049f93:	89 04 24             	mov    %eax,(%esp)
 8049f96:	e8 a9 ec ff ff       	call   8048c44 <_ZNSolsEPFRSoS_E@plt>
/home/fabrizio/Workspaces/workspaceCPP_RegressionExample/WorkersMap-namespace/Debug/../src/WorkersMap_test.cpp:24
 8049f9b:	c7 04 24 04 00 00 00 	movl   $0x4,(%esp)
 8049fa2:	e8 3d ec ff ff       	call   8048be4 <_Znwj@plt>
 8049fa7:	89 c3                	mov    %eax,%ebx
 8049fa9:	89 d8                	mov    %ebx,%eax
 8049fab:	89 04 24             	mov    %eax,(%esp)
 8049fae:	e8 ef ed ff ff       	call   8048da2 <_ZN13TestExceptionC1Ev>
 8049fb3:	c7 04 24 04 00 00 00 	movl   $0x4,(%esp)
 8049fba:	e8 55 ec ff ff       	call   8048c14 <__cxa_allocate_exception@plt>
 8049fbf:	89 c2                	mov    %eax,%edx
 8049fc1:	89 1a                	mov    %ebx,(%edx)
 8049fc3:	c7 44 24 08 00 00 00 	movl   $0x0,0x8(%esp)
 8049fca:	00 
 8049fcb:	c7 44 24 04 60 ba 04 	movl   $0x804ba60,0x4(%esp)
 8049fd2:	08 
 8049fd3:	89 04 24             	mov    %eax,(%esp)
 8049fd6:	e8 59 ec ff ff       	call   8048c34 <__cxa_throw@plt>
 8049fdb:	89 d6                	mov    %edx,%esi
 8049fdd:	89 c7                	mov    %eax,%edi
 8049fdf:	89 1c 24             	mov    %ebx,(%esp)
 8049fe2:	e8 4d eb ff ff       	call   8048b34 <_ZdlPv@plt>
 8049fe7:	89 f8                	mov    %edi,%eax
 8049fe9:	89 f2                	mov    %esi,%edx
 8049feb:	89 04 24             	mov    %eax,(%esp)
 8049fee:	e8 d1 ec ff ff       	call   8048cc4 <_Unwind_Resume@plt>
/home/fabrizio/Workspaces/workspaceCPP_RegressionExample/WorkersMap-namespace/Debug/../src/WorkersMap_test.cpp:26
 8049ff3:	83 c4 1c             	add    $0x1c,%esp
 8049ff6:	5b                   	pop    %ebx
 8049ff7:	5e                   	pop    %esi
 8049ff8:	5f                   	pop    %edi
 8049ff9:	5d                   	pop    %ebp
 8049ffa:	c3                   	ret    

08049ffb <_Z17testAddWorker_onev>:
_Z17testAddWorker_onev():
/home/fabrizio/Workspaces/workspaceCPP_RegressionExample/WorkersMap-namespace/Debug/../src/WorkersMap_test.cpp:28
 8049ffb:	55                   	push   %ebp
 8049ffc:	89 e5                	mov    %esp,%ebp
 8049ffe:	56                   	push   %esi
 8049fff:	53                   	push   %ebx
 804a000:	83 ec 40             	sub    $0x40,%esp
/home/fabrizio/Workspaces/workspaceCPP_RegressionExample/WorkersMap-namespace/Debug/../src/WorkersMap_test.cpp:30
 804a003:	8d 45 c8             	lea    -0x38(%ebp),%eax
 804a006:	89 04 24             	mov    %eax,(%esp)
 804a009:	e8 44 ee ff ff       	call   8048e52 <_ZN7workers10WorkersMapC1Ev>
/home/fabrizio/Workspaces/workspaceCPP_RegressionExample/WorkersMap-namespace/Debug/../src/WorkersMap_test.cpp:32
 804a00e:	8d 45 f7             	lea    -0x9(%ebp),%eax
 804a011:	89 04 24             	mov    %eax,(%esp)
 804a014:	e8 8b ec ff ff       	call   8048ca4 <_ZNSaIcEC1Ev@plt>
 804a019:	8d 45 f7             	lea    -0x9(%ebp),%eax
 804a01c:	89 44 24 08          	mov    %eax,0x8(%esp)
 804a020:	c7 44 24 04 8e b8 04 	movl   $0x804b88e,0x4(%esp)
 804a027:	08 
 804a028:	8d 45 f0             	lea    -0x10(%ebp),%eax
 804a02b:	89 04 24             	mov    %eax,(%esp)
 804a02e:	e8 a1 eb ff ff       	call   8048bd4 <_ZNSsC1EPKcRKSaIcE@plt>
 804a033:	8d 45 f7             	lea    -0x9(%ebp),%eax
 804a036:	89 04 24             	mov    %eax,(%esp)
 804a039:	e8 e6 eb ff ff       	call   8048c24 <_ZNSaIcED1Ev@plt>
/home/fabrizio/Workspaces/workspaceCPP_RegressionExample/WorkersMap-namespace/Debug/../src/WorkersMap_test.cpp:34
 804a03e:	8d 45 f0             	lea    -0x10(%ebp),%eax
 804a041:	89 44 24 04          	mov    %eax,0x4(%esp)
 804a045:	8d 45 ec             	lea    -0x14(%ebp),%eax
 804a048:	89 04 24             	mov    %eax,(%esp)
 804a04b:	e8 44 eb ff ff       	call   8048b94 <_ZNSsC1ERKSs@plt>
 804a050:	eb 18                	jmp    804a06a <_Z17testAddWorker_onev+0x6f>
 804a052:	89 d3                	mov    %edx,%ebx
 804a054:	89 c6                	mov    %eax,%esi
/home/fabrizio/Workspaces/workspaceCPP_RegressionExample/WorkersMap-namespace/Debug/../src/WorkersMap_test.cpp:32
 804a056:	8d 45 f7             	lea    -0x9(%ebp),%eax
 804a059:	89 04 24             	mov    %eax,(%esp)
 804a05c:	e8 c3 eb ff ff       	call   8048c24 <_ZNSaIcED1Ev@plt>
 804a061:	89 f0                	mov    %esi,%eax
 804a063:	89 da                	mov    %ebx,%edx
 804a065:	e9 c6 00 00 00       	jmp    804a130 <_Z17testAddWorker_onev+0x135>
/home/fabrizio/Workspaces/workspaceCPP_RegressionExample/WorkersMap-namespace/Debug/../src/WorkersMap_test.cpp:34
 804a06a:	c7 44 24 08 50 c3 00 	movl   $0xc350,0x8(%esp)
 804a071:	00 
 804a072:	8d 45 ec             	lea    -0x14(%ebp),%eax
 804a075:	89 44 24 04          	mov    %eax,0x4(%esp)
 804a079:	8d 45 c8             	lea    -0x38(%ebp),%eax
 804a07c:	89 04 24             	mov    %eax,(%esp)
 804a07f:	e8 34 ef ff ff       	call   8048fb8 <_ZN7workers10WorkersMap9addWorkerESsl>
 804a084:	8d 45 ec             	lea    -0x14(%ebp),%eax
 804a087:	89 04 24             	mov    %eax,(%esp)
 804a08a:	e8 35 eb ff ff       	call   8048bc4 <_ZNSsD1Ev@plt>
 804a08f:	eb 15                	jmp    804a0a6 <_Z17testAddWorker_onev+0xab>
 804a091:	89 d3                	mov    %edx,%ebx
 804a093:	89 c6                	mov    %eax,%esi
 804a095:	8d 45 ec             	lea    -0x14(%ebp),%eax
 804a098:	89 04 24             	mov    %eax,(%esp)
 804a09b:	e8 24 eb ff ff       	call   8048bc4 <_ZNSsD1Ev@plt>
 804a0a0:	89 f0                	mov    %esi,%eax
 804a0a2:	89 da                	mov    %ebx,%edx
 804a0a4:	eb 63                	jmp    804a109 <_Z17testAddWorker_onev+0x10e>
/home/fabrizio/Workspaces/workspaceCPP_RegressionExample/WorkersMap-namespace/Debug/../src/WorkersMap_test.cpp:36
 804a0a6:	8d 45 f0             	lea    -0x10(%ebp),%eax
 804a0a9:	89 44 24 04          	mov    %eax,0x4(%esp)
 804a0ad:	8d 45 e8             	lea    -0x18(%ebp),%eax
 804a0b0:	89 04 24             	mov    %eax,(%esp)
 804a0b3:	e8 dc ea ff ff       	call   8048b94 <_ZNSsC1ERKSs@plt>
 804a0b8:	8d 45 e8             	lea    -0x18(%ebp),%eax
 804a0bb:	89 44 24 04          	mov    %eax,0x4(%esp)
 804a0bf:	8d 45 c8             	lea    -0x38(%ebp),%eax
 804a0c2:	89 04 24             	mov    %eax,(%esp)
 804a0c5:	e8 52 ee ff ff       	call   8048f1c <_ZN7workers10WorkersMap9getSalaryESs>
 804a0ca:	89 44 24 04          	mov    %eax,0x4(%esp)
 804a0ce:	c7 04 24 50 c3 00 00 	movl   $0xc350,(%esp)
 804a0d5:	e8 5a fe ff ff       	call   8049f34 <_Z12assertEqualsll>
 804a0da:	8d 45 e8             	lea    -0x18(%ebp),%eax
 804a0dd:	89 04 24             	mov    %eax,(%esp)
 804a0e0:	e8 df ea ff ff       	call   8048bc4 <_ZNSsD1Ev@plt>
 804a0e5:	eb 15                	jmp    804a0fc <_Z17testAddWorker_onev+0x101>
 804a0e7:	89 d3                	mov    %edx,%ebx
 804a0e9:	89 c6                	mov    %eax,%esi
 804a0eb:	8d 45 e8             	lea    -0x18(%ebp),%eax
 804a0ee:	89 04 24             	mov    %eax,(%esp)
 804a0f1:	e8 ce ea ff ff       	call   8048bc4 <_ZNSsD1Ev@plt>
 804a0f6:	89 f0                	mov    %esi,%eax
 804a0f8:	89 da                	mov    %ebx,%edx
 804a0fa:	eb 0d                	jmp    804a109 <_Z17testAddWorker_onev+0x10e>
 804a0fc:	8d 45 f0             	lea    -0x10(%ebp),%eax
 804a0ff:	89 04 24             	mov    %eax,(%esp)
 804a102:	e8 bd ea ff ff       	call   8048bc4 <_ZNSsD1Ev@plt>
 804a107:	eb 15                	jmp    804a11e <_Z17testAddWorker_onev+0x123>
 804a109:	89 d3                	mov    %edx,%ebx
 804a10b:	89 c6                	mov    %eax,%esi
 804a10d:	8d 45 f0             	lea    -0x10(%ebp),%eax
 804a110:	89 04 24             	mov    %eax,(%esp)
 804a113:	e8 ac ea ff ff       	call   8048bc4 <_ZNSsD1Ev@plt>
 804a118:	89 f0                	mov    %esi,%eax
 804a11a:	89 da                	mov    %ebx,%edx
 804a11c:	eb 12                	jmp    804a130 <_Z17testAddWorker_onev+0x135>
 804a11e:	8d 45 c8             	lea    -0x38(%ebp),%eax
 804a121:	89 04 24             	mov    %eax,(%esp)
 804a124:	e8 8b ed ff ff       	call   8048eb4 <_ZN7workers10WorkersMapD1Ev>
/home/fabrizio/Workspaces/workspaceCPP_RegressionExample/WorkersMap-namespace/Debug/../src/WorkersMap_test.cpp:39
 804a129:	83 c4 40             	add    $0x40,%esp
 804a12c:	5b                   	pop    %ebx
 804a12d:	5e                   	pop    %esi
 804a12e:	5d                   	pop    %ebp
 804a12f:	c3                   	ret    
 804a130:	89 d3                	mov    %edx,%ebx
 804a132:	89 c6                	mov    %eax,%esi
/home/fabrizio/Workspaces/workspaceCPP_RegressionExample/WorkersMap-namespace/Debug/../src/WorkersMap_test.cpp:36
 804a134:	8d 45 c8             	lea    -0x38(%ebp),%eax
 804a137:	89 04 24             	mov    %eax,(%esp)
 804a13a:	e8 75 ed ff ff       	call   8048eb4 <_ZN7workers10WorkersMapD1Ev>
 804a13f:	89 f0                	mov    %esi,%eax
 804a141:	89 da                	mov    %ebx,%edx
 804a143:	89 04 24             	mov    %eax,(%esp)
 804a146:	e8 79 eb ff ff       	call   8048cc4 <_Unwind_Resume@plt>

0804a14b <_Z17testAddWorker_twov>:
_Z17testAddWorker_twov():
/home/fabrizio/Workspaces/workspaceCPP_RegressionExample/WorkersMap-namespace/Debug/../src/WorkersMap_test.cpp:42
 804a14b:	55                   	push   %ebp
 804a14c:	89 e5                	mov    %esp,%ebp
 804a14e:	56                   	push   %esi
 804a14f:	53                   	push   %ebx
 804a150:	83 ec 50             	sub    $0x50,%esp
/home/fabrizio/Workspaces/workspaceCPP_RegressionExample/WorkersMap-namespace/Debug/../src/WorkersMap_test.cpp:44
 804a153:	8d 45 bc             	lea    -0x44(%ebp),%eax
 804a156:	89 04 24             	mov    %eax,(%esp)
 804a159:	e8 f4 ec ff ff       	call   8048e52 <_ZN7workers10WorkersMapC1Ev>
/home/fabrizio/Workspaces/workspaceCPP_RegressionExample/WorkersMap-namespace/Debug/../src/WorkersMap_test.cpp:46
 804a15e:	8d 45 f7             	lea    -0x9(%ebp),%eax
 804a161:	89 04 24             	mov    %eax,(%esp)
 804a164:	e8 3b eb ff ff       	call   8048ca4 <_ZNSaIcEC1Ev@plt>
 804a169:	8d 45 f7             	lea    -0x9(%ebp),%eax
 804a16c:	89 44 24 08          	mov    %eax,0x8(%esp)
 804a170:	c7 44 24 04 8e b8 04 	movl   $0x804b88e,0x4(%esp)
 804a177:	08 
 804a178:	8d 45 f0             	lea    -0x10(%ebp),%eax
 804a17b:	89 04 24             	mov    %eax,(%esp)
 804a17e:	e8 51 ea ff ff       	call   8048bd4 <_ZNSsC1EPKcRKSaIcE@plt>
 804a183:	8d 45 f7             	lea    -0x9(%ebp),%eax
 804a186:	89 04 24             	mov    %eax,(%esp)
 804a189:	e8 96 ea ff ff       	call   8048c24 <_ZNSaIcED1Ev@plt>
/home/fabrizio/Workspaces/workspaceCPP_RegressionExample/WorkersMap-namespace/Debug/../src/WorkersMap_test.cpp:48
 804a18e:	8d 45 f0             	lea    -0x10(%ebp),%eax
 804a191:	89 44 24 04          	mov    %eax,0x4(%esp)
 804a195:	8d 45 ec             	lea    -0x14(%ebp),%eax
 804a198:	89 04 24             	mov    %eax,(%esp)
 804a19b:	e8 f4 e9 ff ff       	call   8048b94 <_ZNSsC1ERKSs@plt>
 804a1a0:	eb 18                	jmp    804a1ba <_Z17testAddWorker_twov+0x6f>
 804a1a2:	89 d3                	mov    %edx,%ebx
 804a1a4:	89 c6                	mov    %eax,%esi
/home/fabrizio/Workspaces/workspaceCPP_RegressionExample/WorkersMap-namespace/Debug/../src/WorkersMap_test.cpp:46
 804a1a6:	8d 45 f7             	lea    -0x9(%ebp),%eax
 804a1a9:	89 04 24             	mov    %eax,(%esp)
 804a1ac:	e8 73 ea ff ff       	call   8048c24 <_ZNSaIcED1Ev@plt>
 804a1b1:	89 f0                	mov    %esi,%eax
 804a1b3:	89 da                	mov    %ebx,%edx
 804a1b5:	e9 dc 01 00 00       	jmp    804a396 <_Z17testAddWorker_twov+0x24b>
/home/fabrizio/Workspaces/workspaceCPP_RegressionExample/WorkersMap-namespace/Debug/../src/WorkersMap_test.cpp:48
 804a1ba:	c7 44 24 08 50 c3 00 	movl   $0xc350,0x8(%esp)
 804a1c1:	00 
 804a1c2:	8d 45 ec             	lea    -0x14(%ebp),%eax
 804a1c5:	89 44 24 04          	mov    %eax,0x4(%esp)
 804a1c9:	8d 45 bc             	lea    -0x44(%ebp),%eax
 804a1cc:	89 04 24             	mov    %eax,(%esp)
 804a1cf:	e8 e4 ed ff ff       	call   8048fb8 <_ZN7workers10WorkersMap9addWorkerESsl>
 804a1d4:	8d 45 ec             	lea    -0x14(%ebp),%eax
 804a1d7:	89 04 24             	mov    %eax,(%esp)
 804a1da:	e8 e5 e9 ff ff       	call   8048bc4 <_ZNSsD1Ev@plt>
 804a1df:	eb 18                	jmp    804a1f9 <_Z17testAddWorker_twov+0xae>
 804a1e1:	89 d3                	mov    %edx,%ebx
 804a1e3:	89 c6                	mov    %eax,%esi
 804a1e5:	8d 45 ec             	lea    -0x14(%ebp),%eax
 804a1e8:	89 04 24             	mov    %eax,(%esp)
 804a1eb:	e8 d4 e9 ff ff       	call   8048bc4 <_ZNSsD1Ev@plt>
 804a1f0:	89 f0                	mov    %esi,%eax
 804a1f2:	89 da                	mov    %ebx,%edx
 804a1f4:	e9 76 01 00 00       	jmp    804a36f <_Z17testAddWorker_twov+0x224>
/home/fabrizio/Workspaces/workspaceCPP_RegressionExample/WorkersMap-namespace/Debug/../src/WorkersMap_test.cpp:51
 804a1f9:	8d 45 f6             	lea    -0xa(%ebp),%eax
 804a1fc:	89 04 24             	mov    %eax,(%esp)
 804a1ff:	e8 a0 ea ff ff       	call   8048ca4 <_ZNSaIcEC1Ev@plt>
 804a204:	8d 45 f6             	lea    -0xa(%ebp),%eax
 804a207:	89 44 24 08          	mov    %eax,0x8(%esp)
 804a20b:	c7 44 24 04 9e b8 04 	movl   $0x804b89e,0x4(%esp)
 804a212:	08 
 804a213:	8d 45 e8             	lea    -0x18(%ebp),%eax
 804a216:	89 04 24             	mov    %eax,(%esp)
 804a219:	e8 b6 e9 ff ff       	call   8048bd4 <_ZNSsC1EPKcRKSaIcE@plt>
 804a21e:	8d 45 f6             	lea    -0xa(%ebp),%eax
 804a221:	89 04 24             	mov    %eax,(%esp)
 804a224:	e8 fb e9 ff ff       	call   8048c24 <_ZNSaIcED1Ev@plt>
/home/fabrizio/Workspaces/workspaceCPP_RegressionExample/WorkersMap-namespace/Debug/../src/WorkersMap_test.cpp:53
 804a229:	8d 45 e8             	lea    -0x18(%ebp),%eax
 804a22c:	89 44 24 04          	mov    %eax,0x4(%esp)
 804a230:	8d 45 e4             	lea    -0x1c(%ebp),%eax
 804a233:	89 04 24             	mov    %eax,(%esp)
 804a236:	e8 59 e9 ff ff       	call   8048b94 <_ZNSsC1ERKSs@plt>
 804a23b:	eb 18                	jmp    804a255 <_Z17testAddWorker_twov+0x10a>
 804a23d:	89 d3                	mov    %edx,%ebx
 804a23f:	89 c6                	mov    %eax,%esi
/home/fabrizio/Workspaces/workspaceCPP_RegressionExample/WorkersMap-namespace/Debug/../src/WorkersMap_test.cpp:51
 804a241:	8d 45 f6             	lea    -0xa(%ebp),%eax
 804a244:	89 04 24             	mov    %eax,(%esp)
 804a247:	e8 d8 e9 ff ff       	call   8048c24 <_ZNSaIcED1Ev@plt>
 804a24c:	89 f0                	mov    %esi,%eax
 804a24e:	89 da                	mov    %ebx,%edx
 804a250:	e9 1a 01 00 00       	jmp    804a36f <_Z17testAddWorker_twov+0x224>
/home/fabrizio/Workspaces/workspaceCPP_RegressionExample/WorkersMap-namespace/Debug/../src/WorkersMap_test.cpp:53
 804a255:	c7 44 24 08 10 27 00 	movl   $0x2710,0x8(%esp)
 804a25c:	00 
 804a25d:	8d 45 e4             	lea    -0x1c(%ebp),%eax
 804a260:	89 44 24 04          	mov    %eax,0x4(%esp)
 804a264:	8d 45 bc             	lea    -0x44(%ebp),%eax
 804a267:	89 04 24             	mov    %eax,(%esp)
 804a26a:	e8 49 ed ff ff       	call   8048fb8 <_ZN7workers10WorkersMap9addWorkerESsl>
 804a26f:	8d 45 e4             	lea    -0x1c(%ebp),%eax
 804a272:	89 04 24             	mov    %eax,(%esp)
 804a275:	e8 4a e9 ff ff       	call   8048bc4 <_ZNSsD1Ev@plt>
 804a27a:	eb 18                	jmp    804a294 <_Z17testAddWorker_twov+0x149>
 804a27c:	89 d3                	mov    %edx,%ebx
 804a27e:	89 c6                	mov    %eax,%esi
 804a280:	8d 45 e4             	lea    -0x1c(%ebp),%eax
 804a283:	89 04 24             	mov    %eax,(%esp)
 804a286:	e8 39 e9 ff ff       	call   8048bc4 <_ZNSsD1Ev@plt>
 804a28b:	89 f0                	mov    %esi,%eax
 804a28d:	89 da                	mov    %ebx,%edx
 804a28f:	e9 b9 00 00 00       	jmp    804a34d <_Z17testAddWorker_twov+0x202>
/home/fabrizio/Workspaces/workspaceCPP_RegressionExample/WorkersMap-namespace/Debug/../src/WorkersMap_test.cpp:55
 804a294:	8d 45 f0             	lea    -0x10(%ebp),%eax
 804a297:	89 44 24 04          	mov    %eax,0x4(%esp)
 804a29b:	8d 45 e0             	lea    -0x20(%ebp),%eax
 804a29e:	89 04 24             	mov    %eax,(%esp)
 804a2a1:	e8 ee e8 ff ff       	call   8048b94 <_ZNSsC1ERKSs@plt>
 804a2a6:	8d 45 e0             	lea    -0x20(%ebp),%eax
 804a2a9:	89 44 24 04          	mov    %eax,0x4(%esp)
 804a2ad:	8d 45 bc             	lea    -0x44(%ebp),%eax
 804a2b0:	89 04 24             	mov    %eax,(%esp)
 804a2b3:	e8 64 ec ff ff       	call   8048f1c <_ZN7workers10WorkersMap9getSalaryESs>
 804a2b8:	89 44 24 04          	mov    %eax,0x4(%esp)
 804a2bc:	c7 04 24 50 c3 00 00 	movl   $0xc350,(%esp)
 804a2c3:	e8 6c fc ff ff       	call   8049f34 <_Z12assertEqualsll>
 804a2c8:	8d 45 e0             	lea    -0x20(%ebp),%eax
 804a2cb:	89 04 24             	mov    %eax,(%esp)
 804a2ce:	e8 f1 e8 ff ff       	call   8048bc4 <_ZNSsD1Ev@plt>
 804a2d3:	eb 15                	jmp    804a2ea <_Z17testAddWorker_twov+0x19f>
 804a2d5:	89 d3                	mov    %edx,%ebx
 804a2d7:	89 c6                	mov    %eax,%esi
 804a2d9:	8d 45 e0             	lea    -0x20(%ebp),%eax
 804a2dc:	89 04 24             	mov    %eax,(%esp)
 804a2df:	e8 e0 e8 ff ff       	call   8048bc4 <_ZNSsD1Ev@plt>
 804a2e4:	89 f0                	mov    %esi,%eax
 804a2e6:	89 da                	mov    %ebx,%edx
 804a2e8:	eb 63                	jmp    804a34d <_Z17testAddWorker_twov+0x202>
/home/fabrizio/Workspaces/workspaceCPP_RegressionExample/WorkersMap-namespace/Debug/../src/WorkersMap_test.cpp:56
 804a2ea:	8d 45 e8             	lea    -0x18(%ebp),%eax
 804a2ed:	89 44 24 04          	mov    %eax,0x4(%esp)
 804a2f1:	8d 45 dc             	lea    -0x24(%ebp),%eax
 804a2f4:	89 04 24             	mov    %eax,(%esp)
 804a2f7:	e8 98 e8 ff ff       	call   8048b94 <_ZNSsC1ERKSs@plt>
 804a2fc:	8d 45 dc             	lea    -0x24(%ebp),%eax
 804a2ff:	89 44 24 04          	mov    %eax,0x4(%esp)
 804a303:	8d 45 bc             	lea    -0x44(%ebp),%eax
 804a306:	89 04 24             	mov    %eax,(%esp)
 804a309:	e8 0e ec ff ff       	call   8048f1c <_ZN7workers10WorkersMap9getSalaryESs>
 804a30e:	89 44 24 04          	mov    %eax,0x4(%esp)
 804a312:	c7 04 24 10 27 00 00 	movl   $0x2710,(%esp)
 804a319:	e8 16 fc ff ff       	call   8049f34 <_Z12assertEqualsll>
 804a31e:	8d 45 dc             	lea    -0x24(%ebp),%eax
 804a321:	89 04 24             	mov    %eax,(%esp)
 804a324:	e8 9b e8 ff ff       	call   8048bc4 <_ZNSsD1Ev@plt>
 804a329:	eb 15                	jmp    804a340 <_Z17testAddWorker_twov+0x1f5>
 804a32b:	89 d3                	mov    %edx,%ebx
 804a32d:	89 c6                	mov    %eax,%esi
 804a32f:	8d 45 dc             	lea    -0x24(%ebp),%eax
 804a332:	89 04 24             	mov    %eax,(%esp)
 804a335:	e8 8a e8 ff ff       	call   8048bc4 <_ZNSsD1Ev@plt>
 804a33a:	89 f0                	mov    %esi,%eax
 804a33c:	89 da                	mov    %ebx,%edx
 804a33e:	eb 0d                	jmp    804a34d <_Z17testAddWorker_twov+0x202>
 804a340:	8d 45 e8             	lea    -0x18(%ebp),%eax
 804a343:	89 04 24             	mov    %eax,(%esp)
 804a346:	e8 79 e8 ff ff       	call   8048bc4 <_ZNSsD1Ev@plt>
 804a34b:	eb 15                	jmp    804a362 <_Z17testAddWorker_twov+0x217>
 804a34d:	89 d3                	mov    %edx,%ebx
 804a34f:	89 c6                	mov    %eax,%esi
 804a351:	8d 45 e8             	lea    -0x18(%ebp),%eax
 804a354:	89 04 24             	mov    %eax,(%esp)
 804a357:	e8 68 e8 ff ff       	call   8048bc4 <_ZNSsD1Ev@plt>
 804a35c:	89 f0                	mov    %esi,%eax
 804a35e:	89 da                	mov    %ebx,%edx
 804a360:	eb 0d                	jmp    804a36f <_Z17testAddWorker_twov+0x224>
 804a362:	8d 45 f0             	lea    -0x10(%ebp),%eax
 804a365:	89 04 24             	mov    %eax,(%esp)
 804a368:	e8 57 e8 ff ff       	call   8048bc4 <_ZNSsD1Ev@plt>
 804a36d:	eb 15                	jmp    804a384 <_Z17testAddWorker_twov+0x239>
 804a36f:	89 d3                	mov    %edx,%ebx
 804a371:	89 c6                	mov    %eax,%esi
 804a373:	8d 45 f0             	lea    -0x10(%ebp),%eax
 804a376:	89 04 24             	mov    %eax,(%esp)
 804a379:	e8 46 e8 ff ff       	call   8048bc4 <_ZNSsD1Ev@plt>
 804a37e:	89 f0                	mov    %esi,%eax
 804a380:	89 da                	mov    %ebx,%edx
 804a382:	eb 12                	jmp    804a396 <_Z17testAddWorker_twov+0x24b>
 804a384:	8d 45 bc             	lea    -0x44(%ebp),%eax
 804a387:	89 04 24             	mov    %eax,(%esp)
 804a38a:	e8 25 eb ff ff       	call   8048eb4 <_ZN7workers10WorkersMapD1Ev>
/home/fabrizio/Workspaces/workspaceCPP_RegressionExample/WorkersMap-namespace/Debug/../src/WorkersMap_test.cpp:59
 804a38f:	83 c4 50             	add    $0x50,%esp
 804a392:	5b                   	pop    %ebx
 804a393:	5e                   	pop    %esi
 804a394:	5d                   	pop    %ebp
 804a395:	c3                   	ret    
 804a396:	89 d3                	mov    %edx,%ebx
 804a398:	89 c6                	mov    %eax,%esi
/home/fabrizio/Workspaces/workspaceCPP_RegressionExample/WorkersMap-namespace/Debug/../src/WorkersMap_test.cpp:56
 804a39a:	8d 45 bc             	lea    -0x44(%ebp),%eax
 804a39d:	89 04 24             	mov    %eax,(%esp)
 804a3a0:	e8 0f eb ff ff       	call   8048eb4 <_ZN7workers10WorkersMapD1Ev>
 804a3a5:	89 f0                	mov    %esi,%eax
 804a3a7:	89 da                	mov    %ebx,%edx
 804a3a9:	89 04 24             	mov    %eax,(%esp)
 804a3ac:	e8 13 e9 ff ff       	call   8048cc4 <_Unwind_Resume@plt>

0804a3b1 <_Z27testGetAverageSalary_nobodyv>:
_Z27testGetAverageSalary_nobodyv():
/home/fabrizio/Workspaces/workspaceCPP_RegressionExample/WorkersMap-namespace/Debug/../src/WorkersMap_test.cpp:61
 804a3b1:	55                   	push   %ebp
 804a3b2:	89 e5                	mov    %esp,%ebp
 804a3b4:	56                   	push   %esi
 804a3b5:	53                   	push   %ebx
 804a3b6:	83 ec 50             	sub    $0x50,%esp
/home/fabrizio/Workspaces/workspaceCPP_RegressionExample/WorkersMap-namespace/Debug/../src/WorkersMap_test.cpp:63
 804a3b9:	8d 45 b8             	lea    -0x48(%ebp),%eax
 804a3bc:	89 04 24             	mov    %eax,(%esp)
 804a3bf:	e8 8e ea ff ff       	call   8048e52 <_ZN7workers10WorkersMapC1Ev>
/home/fabrizio/Workspaces/workspaceCPP_RegressionExample/WorkersMap-namespace/Debug/../src/WorkersMap_test.cpp:65
 804a3c4:	8d 45 f7             	lea    -0x9(%ebp),%eax
 804a3c7:	89 04 24             	mov    %eax,(%esp)
 804a3ca:	e8 d5 e8 ff ff       	call   8048ca4 <_ZNSaIcEC1Ev@plt>
 804a3cf:	8d 45 f7             	lea    -0x9(%ebp),%eax
 804a3d2:	89 44 24 08          	mov    %eax,0x8(%esp)
 804a3d6:	c7 44 24 04 8e b8 04 	movl   $0x804b88e,0x4(%esp)
 804a3dd:	08 
 804a3de:	8d 45 f0             	lea    -0x10(%ebp),%eax
 804a3e1:	89 04 24             	mov    %eax,(%esp)
 804a3e4:	e8 eb e7 ff ff       	call   8048bd4 <_ZNSsC1EPKcRKSaIcE@plt>
 804a3e9:	8d 45 f7             	lea    -0x9(%ebp),%eax
 804a3ec:	89 04 24             	mov    %eax,(%esp)
 804a3ef:	e8 30 e8 ff ff       	call   8048c24 <_ZNSaIcED1Ev@plt>
/home/fabrizio/Workspaces/workspaceCPP_RegressionExample/WorkersMap-namespace/Debug/../src/WorkersMap_test.cpp:66
 804a3f4:	8d 45 f6             	lea    -0xa(%ebp),%eax
 804a3f7:	89 04 24             	mov    %eax,(%esp)
 804a3fa:	e8 a5 e8 ff ff       	call   8048ca4 <_ZNSaIcEC1Ev@plt>
 804a3ff:	8d 45 f6             	lea    -0xa(%ebp),%eax
 804a402:	89 44 24 08          	mov    %eax,0x8(%esp)
 804a406:	c7 44 24 04 ae b8 04 	movl   $0x804b8ae,0x4(%esp)
 804a40d:	08 
 804a40e:	8d 45 ec             	lea    -0x14(%ebp),%eax
 804a411:	89 04 24             	mov    %eax,(%esp)
 804a414:	e8 bb e7 ff ff       	call   8048bd4 <_ZNSsC1EPKcRKSaIcE@plt>
 804a419:	eb 18                	jmp    804a433 <_Z27testGetAverageSalary_nobodyv+0x82>
 804a41b:	89 d3                	mov    %edx,%ebx
 804a41d:	89 c6                	mov    %eax,%esi
/home/fabrizio/Workspaces/workspaceCPP_RegressionExample/WorkersMap-namespace/Debug/../src/WorkersMap_test.cpp:65
 804a41f:	8d 45 f7             	lea    -0x9(%ebp),%eax
 804a422:	89 04 24             	mov    %eax,(%esp)
 804a425:	e8 fa e7 ff ff       	call   8048c24 <_ZNSaIcED1Ev@plt>
 804a42a:	89 f0                	mov    %esi,%eax
 804a42c:	89 da                	mov    %ebx,%edx
 804a42e:	e9 a0 01 00 00       	jmp    804a5d3 <_Z27testGetAverageSalary_nobodyv+0x222>
/home/fabrizio/Workspaces/workspaceCPP_RegressionExample/WorkersMap-namespace/Debug/../src/WorkersMap_test.cpp:66
 804a433:	8d 45 f6             	lea    -0xa(%ebp),%eax
 804a436:	89 04 24             	mov    %eax,(%esp)
 804a439:	e8 e6 e7 ff ff       	call   8048c24 <_ZNSaIcED1Ev@plt>
/home/fabrizio/Workspaces/workspaceCPP_RegressionExample/WorkersMap-namespace/Debug/../src/WorkersMap_test.cpp:67
 804a43e:	8d 45 f5             	lea    -0xb(%ebp),%eax
 804a441:	89 04 24             	mov    %eax,(%esp)
 804a444:	e8 5b e8 ff ff       	call   8048ca4 <_ZNSaIcEC1Ev@plt>
 804a449:	8d 45 f5             	lea    -0xb(%ebp),%eax
 804a44c:	89 44 24 08          	mov    %eax,0x8(%esp)
 804a450:	c7 44 24 04 be b8 04 	movl   $0x804b8be,0x4(%esp)
 804a457:	08 
 804a458:	8d 45 e8             	lea    -0x18(%ebp),%eax
 804a45b:	89 04 24             	mov    %eax,(%esp)
 804a45e:	e8 71 e7 ff ff       	call   8048bd4 <_ZNSsC1EPKcRKSaIcE@plt>
 804a463:	eb 18                	jmp    804a47d <_Z27testGetAverageSalary_nobodyv+0xcc>
 804a465:	89 d3                	mov    %edx,%ebx
 804a467:	89 c6                	mov    %eax,%esi
/home/fabrizio/Workspaces/workspaceCPP_RegressionExample/WorkersMap-namespace/Debug/../src/WorkersMap_test.cpp:66
 804a469:	8d 45 f6             	lea    -0xa(%ebp),%eax
 804a46c:	89 04 24             	mov    %eax,(%esp)
 804a46f:	e8 b0 e7 ff ff       	call   8048c24 <_ZNSaIcED1Ev@plt>
 804a474:	89 f0                	mov    %esi,%eax
 804a476:	89 da                	mov    %ebx,%edx
 804a478:	e9 2f 01 00 00       	jmp    804a5ac <_Z27testGetAverageSalary_nobodyv+0x1fb>
/home/fabrizio/Workspaces/workspaceCPP_RegressionExample/WorkersMap-namespace/Debug/../src/WorkersMap_test.cpp:67
 804a47d:	8d 45 f5             	lea    -0xb(%ebp),%eax
 804a480:	89 04 24             	mov    %eax,(%esp)
 804a483:	e8 9c e7 ff ff       	call   8048c24 <_ZNSaIcED1Ev@plt>
/home/fabrizio/Workspaces/workspaceCPP_RegressionExample/WorkersMap-namespace/Debug/../src/WorkersMap_test.cpp:69
 804a488:	8d 45 e0             	lea    -0x20(%ebp),%eax
 804a48b:	89 04 24             	mov    %eax,(%esp)
 804a48e:	e8 4d 0c 00 00       	call   804b0e0 <_ZNSt4listISsSaISsEEC1Ev>
 804a493:	eb 18                	jmp    804a4ad <_Z27testGetAverageSalary_nobodyv+0xfc>
 804a495:	89 d3                	mov    %edx,%ebx
 804a497:	89 c6                	mov    %eax,%esi
/home/fabrizio/Workspaces/workspaceCPP_RegressionExample/WorkersMap-namespace/Debug/../src/WorkersMap_test.cpp:67
 804a499:	8d 45 f5             	lea    -0xb(%ebp),%eax
 804a49c:	89 04 24             	mov    %eax,(%esp)
 804a49f:	e8 80 e7 ff ff       	call   8048c24 <_ZNSaIcED1Ev@plt>
 804a4a4:	89 f0                	mov    %esi,%eax
 804a4a6:	89 da                	mov    %ebx,%edx
 804a4a8:	e9 dd 00 00 00       	jmp    804a58a <_Z27testGetAverageSalary_nobodyv+0x1d9>
/home/fabrizio/Workspaces/workspaceCPP_RegressionExample/WorkersMap-namespace/Debug/../src/WorkersMap_test.cpp:70
 804a4ad:	8d 45 f0             	lea    -0x10(%ebp),%eax
 804a4b0:	89 44 24 04          	mov    %eax,0x4(%esp)
 804a4b4:	8d 45 e0             	lea    -0x20(%ebp),%eax
 804a4b7:	89 04 24             	mov    %eax,(%esp)
 804a4ba:	e8 89 0c 00 00       	call   804b148 <_ZNSt4listISsSaISsEE9push_backERKSs>
/home/fabrizio/Workspaces/workspaceCPP_RegressionExample/WorkersMap-namespace/Debug/../src/WorkersMap_test.cpp:71
 804a4bf:	8d 45 ec             	lea    -0x14(%ebp),%eax
 804a4c2:	89 44 24 04          	mov    %eax,0x4(%esp)
 804a4c6:	8d 45 e0             	lea    -0x20(%ebp),%eax
 804a4c9:	89 04 24             	mov    %eax,(%esp)
 804a4cc:	e8 77 0c 00 00       	call   804b148 <_ZNSt4listISsSaISsEE9push_backERKSs>
/home/fabrizio/Workspaces/workspaceCPP_RegressionExample/WorkersMap-namespace/Debug/../src/WorkersMap_test.cpp:72
 804a4d1:	8d 45 e8             	lea    -0x18(%ebp),%eax
 804a4d4:	89 44 24 04          	mov    %eax,0x4(%esp)
 804a4d8:	8d 45 e0             	lea    -0x20(%ebp),%eax
 804a4db:	89 04 24             	mov    %eax,(%esp)
 804a4de:	e8 65 0c 00 00       	call   804b148 <_ZNSt4listISsSaISsEE9push_backERKSs>
/home/fabrizio/Workspaces/workspaceCPP_RegressionExample/WorkersMap-namespace/Debug/../src/WorkersMap_test.cpp:74
 804a4e3:	8d 45 e0             	lea    -0x20(%ebp),%eax
 804a4e6:	89 44 24 04          	mov    %eax,0x4(%esp)
 804a4ea:	8d 45 d8             	lea    -0x28(%ebp),%eax
 804a4ed:	89 04 24             	mov    %eax,(%esp)
 804a4f0:	e8 89 0c 00 00       	call   804b17e <_ZNSt4listISsSaISsEEC1ERKS1_>
 804a4f5:	8d 45 d8             	lea    -0x28(%ebp),%eax
 804a4f8:	89 44 24 04          	mov    %eax,0x4(%esp)
 804a4fc:	8d 45 b8             	lea    -0x48(%ebp),%eax
 804a4ff:	89 04 24             	mov    %eax,(%esp)
 804a502:	e8 87 eb ff ff       	call   804908e <_ZN7workers10WorkersMap16getAverageSalaryESt4listISsSaISsEE>
 804a507:	89 44 24 04          	mov    %eax,0x4(%esp)
 804a50b:	c7 04 24 ff ff ff ff 	movl   $0xffffffff,(%esp)
 804a512:	e8 1d fa ff ff       	call   8049f34 <_Z12assertEqualsll>
 804a517:	8d 45 d8             	lea    -0x28(%ebp),%eax
 804a51a:	89 04 24             	mov    %eax,(%esp)
 804a51d:	e8 aa 0b 00 00       	call   804b0cc <_ZNSt4listISsSaISsEED1Ev>
 804a522:	eb 15                	jmp    804a539 <_Z27testGetAverageSalary_nobodyv+0x188>
 804a524:	89 d3                	mov    %edx,%ebx
 804a526:	89 c6                	mov    %eax,%esi
 804a528:	8d 45 d8             	lea    -0x28(%ebp),%eax
 804a52b:	89 04 24             	mov    %eax,(%esp)
 804a52e:	e8 99 0b 00 00       	call   804b0cc <_ZNSt4listISsSaISsEED1Ev>
 804a533:	89 f0                	mov    %esi,%eax
 804a535:	89 da                	mov    %ebx,%edx
 804a537:	eb 0d                	jmp    804a546 <_Z27testGetAverageSalary_nobodyv+0x195>
 804a539:	8d 45 e0             	lea    -0x20(%ebp),%eax
 804a53c:	89 04 24             	mov    %eax,(%esp)
 804a53f:	e8 88 0b 00 00       	call   804b0cc <_ZNSt4listISsSaISsEED1Ev>
 804a544:	eb 15                	jmp    804a55b <_Z27testGetAverageSalary_nobodyv+0x1aa>
 804a546:	89 d3                	mov    %edx,%ebx
 804a548:	89 c6                	mov    %eax,%esi
 804a54a:	8d 45 e0             	lea    -0x20(%ebp),%eax
 804a54d:	89 04 24             	mov    %eax,(%esp)
 804a550:	e8 77 0b 00 00       	call   804b0cc <_ZNSt4listISsSaISsEED1Ev>
 804a555:	89 f0                	mov    %esi,%eax
 804a557:	89 da                	mov    %ebx,%edx
 804a559:	eb 0d                	jmp    804a568 <_Z27testGetAverageSalary_nobodyv+0x1b7>
 804a55b:	8d 45 e8             	lea    -0x18(%ebp),%eax
 804a55e:	89 04 24             	mov    %eax,(%esp)
 804a561:	e8 5e e6 ff ff       	call   8048bc4 <_ZNSsD1Ev@plt>
 804a566:	eb 15                	jmp    804a57d <_Z27testGetAverageSalary_nobodyv+0x1cc>
 804a568:	89 d3                	mov    %edx,%ebx
 804a56a:	89 c6                	mov    %eax,%esi
 804a56c:	8d 45 e8             	lea    -0x18(%ebp),%eax
 804a56f:	89 04 24             	mov    %eax,(%esp)
 804a572:	e8 4d e6 ff ff       	call   8048bc4 <_ZNSsD1Ev@plt>
 804a577:	89 f0                	mov    %esi,%eax
 804a579:	89 da                	mov    %ebx,%edx
 804a57b:	eb 0d                	jmp    804a58a <_Z27testGetAverageSalary_nobodyv+0x1d9>
 804a57d:	8d 45 ec             	lea    -0x14(%ebp),%eax
 804a580:	89 04 24             	mov    %eax,(%esp)
 804a583:	e8 3c e6 ff ff       	call   8048bc4 <_ZNSsD1Ev@plt>
 804a588:	eb 15                	jmp    804a59f <_Z27testGetAverageSalary_nobodyv+0x1ee>
 804a58a:	89 d3                	mov    %edx,%ebx
 804a58c:	89 c6                	mov    %eax,%esi
 804a58e:	8d 45 ec             	lea    -0x14(%ebp),%eax
 804a591:	89 04 24             	mov    %eax,(%esp)
 804a594:	e8 2b e6 ff ff       	call   8048bc4 <_ZNSsD1Ev@plt>
 804a599:	89 f0                	mov    %esi,%eax
 804a59b:	89 da                	mov    %ebx,%edx
 804a59d:	eb 0d                	jmp    804a5ac <_Z27testGetAverageSalary_nobodyv+0x1fb>
 804a59f:	8d 45 f0             	lea    -0x10(%ebp),%eax
 804a5a2:	89 04 24             	mov    %eax,(%esp)
 804a5a5:	e8 1a e6 ff ff       	call   8048bc4 <_ZNSsD1Ev@plt>
 804a5aa:	eb 15                	jmp    804a5c1 <_Z27testGetAverageSalary_nobodyv+0x210>
 804a5ac:	89 d3                	mov    %edx,%ebx
 804a5ae:	89 c6                	mov    %eax,%esi
 804a5b0:	8d 45 f0             	lea    -0x10(%ebp),%eax
 804a5b3:	89 04 24             	mov    %eax,(%esp)
 804a5b6:	e8 09 e6 ff ff       	call   8048bc4 <_ZNSsD1Ev@plt>
 804a5bb:	89 f0                	mov    %esi,%eax
 804a5bd:	89 da                	mov    %ebx,%edx
 804a5bf:	eb 12                	jmp    804a5d3 <_Z27testGetAverageSalary_nobodyv+0x222>
 804a5c1:	8d 45 b8             	lea    -0x48(%ebp),%eax
 804a5c4:	89 04 24             	mov    %eax,(%esp)
 804a5c7:	e8 e8 e8 ff ff       	call   8048eb4 <_ZN7workers10WorkersMapD1Ev>
/home/fabrizio/Workspaces/workspaceCPP_RegressionExample/WorkersMap-namespace/Debug/../src/WorkersMap_test.cpp:77
 804a5cc:	83 c4 50             	add    $0x50,%esp
 804a5cf:	5b                   	pop    %ebx
 804a5d0:	5e                   	pop    %esi
 804a5d1:	5d                   	pop    %ebp
 804a5d2:	c3                   	ret    
 804a5d3:	89 d3                	mov    %edx,%ebx
 804a5d5:	89 c6                	mov    %eax,%esi
/home/fabrizio/Workspaces/workspaceCPP_RegressionExample/WorkersMap-namespace/Debug/../src/WorkersMap_test.cpp:74
 804a5d7:	8d 45 b8             	lea    -0x48(%ebp),%eax
 804a5da:	89 04 24             	mov    %eax,(%esp)
 804a5dd:	e8 d2 e8 ff ff       	call   8048eb4 <_ZN7workers10WorkersMapD1Ev>
 804a5e2:	89 f0                	mov    %esi,%eax
 804a5e4:	89 da                	mov    %ebx,%edx
 804a5e6:	89 04 24             	mov    %eax,(%esp)
 804a5e9:	e8 d6 e6 ff ff       	call   8048cc4 <_Unwind_Resume@plt>

0804a5ee <_Z25testGetAverageSalary_manyv>:
_Z25testGetAverageSalary_manyv():
/home/fabrizio/Workspaces/workspaceCPP_RegressionExample/WorkersMap-namespace/Debug/../src/WorkersMap_test.cpp:79
 804a5ee:	55                   	push   %ebp
 804a5ef:	89 e5                	mov    %esp,%ebp
 804a5f1:	56                   	push   %esi
 804a5f2:	53                   	push   %ebx
 804a5f3:	83 c4 80             	add    $0xffffff80,%esp
/home/fabrizio/Workspaces/workspaceCPP_RegressionExample/WorkersMap-namespace/Debug/../src/WorkersMap_test.cpp:81
 804a5f6:	8d 45 88             	lea    -0x78(%ebp),%eax
 804a5f9:	89 04 24             	mov    %eax,(%esp)
 804a5fc:	e8 51 e8 ff ff       	call   8048e52 <_ZN7workers10WorkersMapC1Ev>
/home/fabrizio/Workspaces/workspaceCPP_RegressionExample/WorkersMap-namespace/Debug/../src/WorkersMap_test.cpp:83
 804a601:	8d 45 f7             	lea    -0x9(%ebp),%eax
 804a604:	89 04 24             	mov    %eax,(%esp)
 804a607:	e8 98 e6 ff ff       	call   8048ca4 <_ZNSaIcEC1Ev@plt>
 804a60c:	8d 45 f7             	lea    -0x9(%ebp),%eax
 804a60f:	89 44 24 08          	mov    %eax,0x8(%esp)
 804a613:	c7 44 24 04 8e b8 04 	movl   $0x804b88e,0x4(%esp)
 804a61a:	08 
 804a61b:	8d 45 ec             	lea    -0x14(%ebp),%eax
 804a61e:	89 04 24             	mov    %eax,(%esp)
 804a621:	e8 ae e5 ff ff       	call   8048bd4 <_ZNSsC1EPKcRKSaIcE@plt>
 804a626:	8d 45 f7             	lea    -0x9(%ebp),%eax
 804a629:	89 04 24             	mov    %eax,(%esp)
 804a62c:	e8 f3 e5 ff ff       	call   8048c24 <_ZNSaIcED1Ev@plt>
/home/fabrizio/Workspaces/workspaceCPP_RegressionExample/WorkersMap-namespace/Debug/../src/WorkersMap_test.cpp:84
 804a631:	8d 45 ec             	lea    -0x14(%ebp),%eax
 804a634:	89 44 24 04          	mov    %eax,0x4(%esp)
 804a638:	8d 45 e8             	lea    -0x18(%ebp),%eax
 804a63b:	89 04 24             	mov    %eax,(%esp)
 804a63e:	e8 51 e5 ff ff       	call   8048b94 <_ZNSsC1ERKSs@plt>
 804a643:	eb 18                	jmp    804a65d <_Z25testGetAverageSalary_manyv+0x6f>
 804a645:	89 d3                	mov    %edx,%ebx
 804a647:	89 c6                	mov    %eax,%esi
/home/fabrizio/Workspaces/workspaceCPP_RegressionExample/WorkersMap-namespace/Debug/../src/WorkersMap_test.cpp:83
 804a649:	8d 45 f7             	lea    -0x9(%ebp),%eax
 804a64c:	89 04 24             	mov    %eax,(%esp)
 804a64f:	e8 d0 e5 ff ff       	call   8048c24 <_ZNSaIcED1Ev@plt>
 804a654:	89 f0                	mov    %esi,%eax
 804a656:	89 da                	mov    %ebx,%edx
 804a658:	e9 d0 05 00 00       	jmp    804ac2d <_Z25testGetAverageSalary_manyv+0x63f>
/home/fabrizio/Workspaces/workspaceCPP_RegressionExample/WorkersMap-namespace/Debug/../src/WorkersMap_test.cpp:84
 804a65d:	c7 44 24 08 50 c3 00 	movl   $0xc350,0x8(%esp)
 804a664:	00 
 804a665:	8d 45 e8             	lea    -0x18(%ebp),%eax
 804a668:	89 44 24 04          	mov    %eax,0x4(%esp)
 804a66c:	8d 45 88             	lea    -0x78(%ebp),%eax
 804a66f:	89 04 24             	mov    %eax,(%esp)
 804a672:	e8 41 e9 ff ff       	call   8048fb8 <_ZN7workers10WorkersMap9addWorkerESsl>
 804a677:	8d 45 e8             	lea    -0x18(%ebp),%eax
 804a67a:	89 04 24             	mov    %eax,(%esp)
 804a67d:	e8 42 e5 ff ff       	call   8048bc4 <_ZNSsD1Ev@plt>
 804a682:	eb 18                	jmp    804a69c <_Z25testGetAverageSalary_manyv+0xae>
 804a684:	89 d3                	mov    %edx,%ebx
 804a686:	89 c6                	mov    %eax,%esi
 804a688:	8d 45 e8             	lea    -0x18(%ebp),%eax
 804a68b:	89 04 24             	mov    %eax,(%esp)
 804a68e:	e8 31 e5 ff ff       	call   8048bc4 <_ZNSsD1Ev@plt>
 804a693:	89 f0                	mov    %esi,%eax
 804a695:	89 da                	mov    %ebx,%edx
 804a697:	e9 6a 05 00 00       	jmp    804ac06 <_Z25testGetAverageSalary_manyv+0x618>
/home/fabrizio/Workspaces/workspaceCPP_RegressionExample/WorkersMap-namespace/Debug/../src/WorkersMap_test.cpp:86
 804a69c:	8d 45 f6             	lea    -0xa(%ebp),%eax
 804a69f:	89 04 24             	mov    %eax,(%esp)
 804a6a2:	e8 fd e5 ff ff       	call   8048ca4 <_ZNSaIcEC1Ev@plt>
 804a6a7:	8d 45 f6             	lea    -0xa(%ebp),%eax
 804a6aa:	89 44 24 08          	mov    %eax,0x8(%esp)
 804a6ae:	c7 44 24 04 9e b8 04 	movl   $0x804b89e,0x4(%esp)
 804a6b5:	08 
 804a6b6:	8d 45 e4             	lea    -0x1c(%ebp),%eax
 804a6b9:	89 04 24             	mov    %eax,(%esp)
 804a6bc:	e8 13 e5 ff ff       	call   8048bd4 <_ZNSsC1EPKcRKSaIcE@plt>
 804a6c1:	8d 45 f6             	lea    -0xa(%ebp),%eax
 804a6c4:	89 04 24             	mov    %eax,(%esp)
 804a6c7:	e8 58 e5 ff ff       	call   8048c24 <_ZNSaIcED1Ev@plt>
/home/fabrizio/Workspaces/workspaceCPP_RegressionExample/WorkersMap-namespace/Debug/../src/WorkersMap_test.cpp:87
 804a6cc:	8d 45 e4             	lea    -0x1c(%ebp),%eax
 804a6cf:	89 44 24 04          	mov    %eax,0x4(%esp)
 804a6d3:	8d 45 e0             	lea    -0x20(%ebp),%eax
 804a6d6:	89 04 24             	mov    %eax,(%esp)
 804a6d9:	e8 b6 e4 ff ff       	call   8048b94 <_ZNSsC1ERKSs@plt>
 804a6de:	eb 18                	jmp    804a6f8 <_Z25testGetAverageSalary_manyv+0x10a>
 804a6e0:	89 d3                	mov    %edx,%ebx
 804a6e2:	89 c6                	mov    %eax,%esi
/home/fabrizio/Workspaces/workspaceCPP_RegressionExample/WorkersMap-namespace/Debug/../src/WorkersMap_test.cpp:86
 804a6e4:	8d 45 f6             	lea    -0xa(%ebp),%eax
 804a6e7:	89 04 24             	mov    %eax,(%esp)
 804a6ea:	e8 35 e5 ff ff       	call   8048c24 <_ZNSaIcED1Ev@plt>
 804a6ef:	89 f0                	mov    %esi,%eax
 804a6f1:	89 da                	mov    %ebx,%edx
 804a6f3:	e9 0e 05 00 00       	jmp    804ac06 <_Z25testGetAverageSalary_manyv+0x618>
/home/fabrizio/Workspaces/workspaceCPP_RegressionExample/WorkersMap-namespace/Debug/../src/WorkersMap_test.cpp:87
 804a6f8:	c7 44 24 08 10 27 00 	movl   $0x2710,0x8(%esp)
 804a6ff:	00 
 804a700:	8d 45 e0             	lea    -0x20(%ebp),%eax
 804a703:	89 44 24 04          	mov    %eax,0x4(%esp)
 804a707:	8d 45 88             	lea    -0x78(%ebp),%eax
 804a70a:	89 04 24             	mov    %eax,(%esp)
 804a70d:	e8 a6 e8 ff ff       	call   8048fb8 <_ZN7workers10WorkersMap9addWorkerESsl>
 804a712:	8d 45 e0             	lea    -0x20(%ebp),%eax
 804a715:	89 04 24             	mov    %eax,(%esp)
 804a718:	e8 a7 e4 ff ff       	call   8048bc4 <_ZNSsD1Ev@plt>
 804a71d:	eb 18                	jmp    804a737 <_Z25testGetAverageSalary_manyv+0x149>
 804a71f:	89 d3                	mov    %edx,%ebx
 804a721:	89 c6                	mov    %eax,%esi
 804a723:	8d 45 e0             	lea    -0x20(%ebp),%eax
 804a726:	89 04 24             	mov    %eax,(%esp)
 804a729:	e8 96 e4 ff ff       	call   8048bc4 <_ZNSsD1Ev@plt>
 804a72e:	89 f0                	mov    %esi,%eax
 804a730:	89 da                	mov    %ebx,%edx
 804a732:	e9 ad 04 00 00       	jmp    804abe4 <_Z25testGetAverageSalary_manyv+0x5f6>
/home/fabrizio/Workspaces/workspaceCPP_RegressionExample/WorkersMap-namespace/Debug/../src/WorkersMap_test.cpp:89
 804a737:	8d 45 f5             	lea    -0xb(%ebp),%eax
 804a73a:	89 04 24             	mov    %eax,(%esp)
 804a73d:	e8 62 e5 ff ff       	call   8048ca4 <_ZNSaIcEC1Ev@plt>
 804a742:	8d 45 f5             	lea    -0xb(%ebp),%eax
 804a745:	89 44 24 08          	mov    %eax,0x8(%esp)
 804a749:	c7 44 24 04 ce b8 04 	movl   $0x804b8ce,0x4(%esp)
 804a750:	08 
 804a751:	8d 45 dc             	lea    -0x24(%ebp),%eax
 804a754:	89 04 24             	mov    %eax,(%esp)
 804a757:	e8 78 e4 ff ff       	call   8048bd4 <_ZNSsC1EPKcRKSaIcE@plt>
 804a75c:	8d 45 f5             	lea    -0xb(%ebp),%eax
 804a75f:	89 04 24             	mov    %eax,(%esp)
 804a762:	e8 bd e4 ff ff       	call   8048c24 <_ZNSaIcED1Ev@plt>
/home/fabrizio/Workspaces/workspaceCPP_RegressionExample/WorkersMap-namespace/Debug/../src/WorkersMap_test.cpp:90
 804a767:	8d 45 dc             	lea    -0x24(%ebp),%eax
 804a76a:	89 44 24 04          	mov    %eax,0x4(%esp)
 804a76e:	8d 45 d8             	lea    -0x28(%ebp),%eax
 804a771:	89 04 24             	mov    %eax,(%esp)
 804a774:	e8 1b e4 ff ff       	call   8048b94 <_ZNSsC1ERKSs@plt>
 804a779:	eb 18                	jmp    804a793 <_Z25testGetAverageSalary_manyv+0x1a5>
 804a77b:	89 d3                	mov    %edx,%ebx
 804a77d:	89 c6                	mov    %eax,%esi
/home/fabrizio/Workspaces/workspaceCPP_RegressionExample/WorkersMap-namespace/Debug/../src/WorkersMap_test.cpp:89
 804a77f:	8d 45 f5             	lea    -0xb(%ebp),%eax
 804a782:	89 04 24             	mov    %eax,(%esp)
 804a785:	e8 9a e4 ff ff       	call   8048c24 <_ZNSaIcED1Ev@plt>
 804a78a:	89 f0                	mov    %esi,%eax
 804a78c:	89 da                	mov    %ebx,%edx
 804a78e:	e9 51 04 00 00       	jmp    804abe4 <_Z25testGetAverageSalary_manyv+0x5f6>
/home/fabrizio/Workspaces/workspaceCPP_RegressionExample/WorkersMap-namespace/Debug/../src/WorkersMap_test.cpp:90
 804a793:	c7 44 24 08 98 3a 00 	movl   $0x3a98,0x8(%esp)
 804a79a:	00 
 804a79b:	8d 45 d8             	lea    -0x28(%ebp),%eax
 804a79e:	89 44 24 04          	mov    %eax,0x4(%esp)
 804a7a2:	8d 45 88             	lea    -0x78(%ebp),%eax
 804a7a5:	89 04 24             	mov    %eax,(%esp)
 804a7a8:	e8 0b e8 ff ff       	call   8048fb8 <_ZN7workers10WorkersMap9addWorkerESsl>
 804a7ad:	8d 45 d8             	lea    -0x28(%ebp),%eax
 804a7b0:	89 04 24             	mov    %eax,(%esp)
 804a7b3:	e8 0c e4 ff ff       	call   8048bc4 <_ZNSsD1Ev@plt>
 804a7b8:	eb 18                	jmp    804a7d2 <_Z25testGetAverageSalary_manyv+0x1e4>
 804a7ba:	89 d3                	mov    %edx,%ebx
 804a7bc:	89 c6                	mov    %eax,%esi
 804a7be:	8d 45 d8             	lea    -0x28(%ebp),%eax
 804a7c1:	89 04 24             	mov    %eax,(%esp)
 804a7c4:	e8 fb e3 ff ff       	call   8048bc4 <_ZNSsD1Ev@plt>
 804a7c9:	89 f0                	mov    %esi,%eax
 804a7cb:	89 da                	mov    %ebx,%edx
 804a7cd:	e9 f0 03 00 00       	jmp    804abc2 <_Z25testGetAverageSalary_manyv+0x5d4>
/home/fabrizio/Workspaces/workspaceCPP_RegressionExample/WorkersMap-namespace/Debug/../src/WorkersMap_test.cpp:92
 804a7d2:	8d 45 f4             	lea    -0xc(%ebp),%eax
 804a7d5:	89 04 24             	mov    %eax,(%esp)
 804a7d8:	e8 c7 e4 ff ff       	call   8048ca4 <_ZNSaIcEC1Ev@plt>
 804a7dd:	8d 45 f4             	lea    -0xc(%ebp),%eax
 804a7e0:	89 44 24 08          	mov    %eax,0x8(%esp)
 804a7e4:	c7 44 24 04 de b8 04 	movl   $0x804b8de,0x4(%esp)
 804a7eb:	08 
 804a7ec:	8d 45 d4             	lea    -0x2c(%ebp),%eax
 804a7ef:	89 04 24             	mov    %eax,(%esp)
 804a7f2:	e8 dd e3 ff ff       	call   8048bd4 <_ZNSsC1EPKcRKSaIcE@plt>
 804a7f7:	8d 45 f4             	lea    -0xc(%ebp),%eax
 804a7fa:	89 04 24             	mov    %eax,(%esp)
 804a7fd:	e8 22 e4 ff ff       	call   8048c24 <_ZNSaIcED1Ev@plt>
/home/fabrizio/Workspaces/workspaceCPP_RegressionExample/WorkersMap-namespace/Debug/../src/WorkersMap_test.cpp:93
 804a802:	8d 45 d4             	lea    -0x2c(%ebp),%eax
 804a805:	89 44 24 04          	mov    %eax,0x4(%esp)
 804a809:	8d 45 d0             	lea    -0x30(%ebp),%eax
 804a80c:	89 04 24             	mov    %eax,(%esp)
 804a80f:	e8 80 e3 ff ff       	call   8048b94 <_ZNSsC1ERKSs@plt>
 804a814:	eb 18                	jmp    804a82e <_Z25testGetAverageSalary_manyv+0x240>
 804a816:	89 d3                	mov    %edx,%ebx
 804a818:	89 c6                	mov    %eax,%esi
/home/fabrizio/Workspaces/workspaceCPP_RegressionExample/WorkersMap-namespace/Debug/../src/WorkersMap_test.cpp:92
 804a81a:	8d 45 f4             	lea    -0xc(%ebp),%eax
 804a81d:	89 04 24             	mov    %eax,(%esp)
 804a820:	e8 ff e3 ff ff       	call   8048c24 <_ZNSaIcED1Ev@plt>
 804a825:	89 f0                	mov    %esi,%eax
 804a827:	89 da                	mov    %ebx,%edx
 804a829:	e9 94 03 00 00       	jmp    804abc2 <_Z25testGetAverageSalary_manyv+0x5d4>
/home/fabrizio/Workspaces/workspaceCPP_RegressionExample/WorkersMap-namespace/Debug/../src/WorkersMap_test.cpp:93
 804a82e:	c7 44 24 08 38 4a 00 	movl   $0x4a38,0x8(%esp)
 804a835:	00 
 804a836:	8d 45 d0             	lea    -0x30(%ebp),%eax
 804a839:	89 44 24 04          	mov    %eax,0x4(%esp)
 804a83d:	8d 45 88             	lea    -0x78(%ebp),%eax
 804a840:	89 04 24             	mov    %eax,(%esp)
 804a843:	e8 70 e7 ff ff       	call   8048fb8 <_ZN7workers10WorkersMap9addWorkerESsl>
 804a848:	8d 45 d0             	lea    -0x30(%ebp),%eax
 804a84b:	89 04 24             	mov    %eax,(%esp)
 804a84e:	e8 71 e3 ff ff       	call   8048bc4 <_ZNSsD1Ev@plt>
 804a853:	eb 18                	jmp    804a86d <_Z25testGetAverageSalary_manyv+0x27f>
 804a855:	89 d3                	mov    %edx,%ebx
 804a857:	89 c6                	mov    %eax,%esi
 804a859:	8d 45 d0             	lea    -0x30(%ebp),%eax
 804a85c:	89 04 24             	mov    %eax,(%esp)
 804a85f:	e8 60 e3 ff ff       	call   8048bc4 <_ZNSsD1Ev@plt>
 804a864:	89 f0                	mov    %esi,%eax
 804a866:	89 da                	mov    %ebx,%edx
 804a868:	e9 33 03 00 00       	jmp    804aba0 <_Z25testGetAverageSalary_manyv+0x5b2>
/home/fabrizio/Workspaces/workspaceCPP_RegressionExample/WorkersMap-namespace/Debug/../src/WorkersMap_test.cpp:95
 804a86d:	8d 45 f3             	lea    -0xd(%ebp),%eax
 804a870:	89 04 24             	mov    %eax,(%esp)
 804a873:	e8 2c e4 ff ff       	call   8048ca4 <_ZNSaIcEC1Ev@plt>
 804a878:	8d 45 f3             	lea    -0xd(%ebp),%eax
 804a87b:	89 44 24 08          	mov    %eax,0x8(%esp)
 804a87f:	c7 44 24 04 ee b8 04 	movl   $0x804b8ee,0x4(%esp)
 804a886:	08 
 804a887:	8d 45 cc             	lea    -0x34(%ebp),%eax
 804a88a:	89 04 24             	mov    %eax,(%esp)
 804a88d:	e8 42 e3 ff ff       	call   8048bd4 <_ZNSsC1EPKcRKSaIcE@plt>
 804a892:	8d 45 f3             	lea    -0xd(%ebp),%eax
 804a895:	89 04 24             	mov    %eax,(%esp)
 804a898:	e8 87 e3 ff ff       	call   8048c24 <_ZNSaIcED1Ev@plt>
/home/fabrizio/Workspaces/workspaceCPP_RegressionExample/WorkersMap-namespace/Debug/../src/WorkersMap_test.cpp:96
 804a89d:	8d 45 cc             	lea    -0x34(%ebp),%eax
 804a8a0:	89 44 24 04          	mov    %eax,0x4(%esp)
 804a8a4:	8d 45 c8             	lea    -0x38(%ebp),%eax
 804a8a7:	89 04 24             	mov    %eax,(%esp)
 804a8aa:	e8 e5 e2 ff ff       	call   8048b94 <_ZNSsC1ERKSs@plt>
 804a8af:	eb 18                	jmp    804a8c9 <_Z25testGetAverageSalary_manyv+0x2db>
 804a8b1:	89 d3                	mov    %edx,%ebx
 804a8b3:	89 c6                	mov    %eax,%esi
/home/fabrizio/Workspaces/workspaceCPP_RegressionExample/WorkersMap-namespace/Debug/../src/WorkersMap_test.cpp:95
 804a8b5:	8d 45 f3             	lea    -0xd(%ebp),%eax
 804a8b8:	89 04 24             	mov    %eax,(%esp)
 804a8bb:	e8 64 e3 ff ff       	call   8048c24 <_ZNSaIcED1Ev@plt>
 804a8c0:	89 f0                	mov    %esi,%eax
 804a8c2:	89 da                	mov    %ebx,%edx
 804a8c4:	e9 d7 02 00 00       	jmp    804aba0 <_Z25testGetAverageSalary_manyv+0x5b2>
/home/fabrizio/Workspaces/workspaceCPP_RegressionExample/WorkersMap-namespace/Debug/../src/WorkersMap_test.cpp:96
 804a8c9:	c7 44 24 08 f8 2a 00 	movl   $0x2af8,0x8(%esp)
 804a8d0:	00 
 804a8d1:	8d 45 c8             	lea    -0x38(%ebp),%eax
 804a8d4:	89 44 24 04          	mov    %eax,0x4(%esp)
 804a8d8:	8d 45 88             	lea    -0x78(%ebp),%eax
 804a8db:	89 04 24             	mov    %eax,(%esp)
 804a8de:	e8 d5 e6 ff ff       	call   8048fb8 <_ZN7workers10WorkersMap9addWorkerESsl>
 804a8e3:	8d 45 c8             	lea    -0x38(%ebp),%eax
 804a8e6:	89 04 24             	mov    %eax,(%esp)
 804a8e9:	e8 d6 e2 ff ff       	call   8048bc4 <_ZNSsD1Ev@plt>
 804a8ee:	eb 18                	jmp    804a908 <_Z25testGetAverageSalary_manyv+0x31a>
 804a8f0:	89 d3                	mov    %edx,%ebx
 804a8f2:	89 c6                	mov    %eax,%esi
 804a8f4:	8d 45 c8             	lea    -0x38(%ebp),%eax
 804a8f7:	89 04 24             	mov    %eax,(%esp)
 804a8fa:	e8 c5 e2 ff ff       	call   8048bc4 <_ZNSsD1Ev@plt>
 804a8ff:	89 f0                	mov    %esi,%eax
 804a901:	89 da                	mov    %ebx,%edx
 804a903:	e9 76 02 00 00       	jmp    804ab7e <_Z25testGetAverageSalary_manyv+0x590>
/home/fabrizio/Workspaces/workspaceCPP_RegressionExample/WorkersMap-namespace/Debug/../src/WorkersMap_test.cpp:98
 804a908:	8d 45 f2             	lea    -0xe(%ebp),%eax
 804a90b:	89 04 24             	mov    %eax,(%esp)
 804a90e:	e8 91 e3 ff ff       	call   8048ca4 <_ZNSaIcEC1Ev@plt>
 804a913:	8d 45 f2             	lea    -0xe(%ebp),%eax
 804a916:	89 44 24 08          	mov    %eax,0x8(%esp)
 804a91a:	c7 44 24 04 fe b8 04 	movl   $0x804b8fe,0x4(%esp)
 804a921:	08 
 804a922:	8d 45 c4             	lea    -0x3c(%ebp),%eax
 804a925:	89 04 24             	mov    %eax,(%esp)
 804a928:	e8 a7 e2 ff ff       	call   8048bd4 <_ZNSsC1EPKcRKSaIcE@plt>
 804a92d:	8d 45 f2             	lea    -0xe(%ebp),%eax
 804a930:	89 04 24             	mov    %eax,(%esp)
 804a933:	e8 ec e2 ff ff       	call   8048c24 <_ZNSaIcED1Ev@plt>
/home/fabrizio/Workspaces/workspaceCPP_RegressionExample/WorkersMap-namespace/Debug/../src/WorkersMap_test.cpp:99
 804a938:	8d 45 c4             	lea    -0x3c(%ebp),%eax
 804a93b:	89 44 24 04          	mov    %eax,0x4(%esp)
 804a93f:	8d 45 c0             	lea    -0x40(%ebp),%eax
 804a942:	89 04 24             	mov    %eax,(%esp)
 804a945:	e8 4a e2 ff ff       	call   8048b94 <_ZNSsC1ERKSs@plt>
 804a94a:	eb 18                	jmp    804a964 <_Z25testGetAverageSalary_manyv+0x376>
 804a94c:	89 d3                	mov    %edx,%ebx
 804a94e:	89 c6                	mov    %eax,%esi
/home/fabrizio/Workspaces/workspaceCPP_RegressionExample/WorkersMap-namespace/Debug/../src/WorkersMap_test.cpp:98
 804a950:	8d 45 f2             	lea    -0xe(%ebp),%eax
 804a953:	89 04 24             	mov    %eax,(%esp)
 804a956:	e8 c9 e2 ff ff       	call   8048c24 <_ZNSaIcED1Ev@plt>
 804a95b:	89 f0                	mov    %esi,%eax
 804a95d:	89 da                	mov    %ebx,%edx
 804a95f:	e9 1a 02 00 00       	jmp    804ab7e <_Z25testGetAverageSalary_manyv+0x590>
/home/fabrizio/Workspaces/workspaceCPP_RegressionExample/WorkersMap-namespace/Debug/../src/WorkersMap_test.cpp:99
 804a964:	c7 44 24 08 90 5f 01 	movl   $0x15f90,0x8(%esp)
 804a96b:	00 
 804a96c:	8d 45 c0             	lea    -0x40(%ebp),%eax
 804a96f:	89 44 24 04          	mov    %eax,0x4(%esp)
 804a973:	8d 45 88             	lea    -0x78(%ebp),%eax
 804a976:	89 04 24             	mov    %eax,(%esp)
 804a979:	e8 3a e6 ff ff       	call   8048fb8 <_ZN7workers10WorkersMap9addWorkerESsl>
 804a97e:	8d 45 c0             	lea    -0x40(%ebp),%eax
 804a981:	89 04 24             	mov    %eax,(%esp)
 804a984:	e8 3b e2 ff ff       	call   8048bc4 <_ZNSsD1Ev@plt>
 804a989:	eb 18                	jmp    804a9a3 <_Z25testGetAverageSalary_manyv+0x3b5>
 804a98b:	89 d3                	mov    %edx,%ebx
 804a98d:	89 c6                	mov    %eax,%esi
 804a98f:	8d 45 c0             	lea    -0x40(%ebp),%eax
 804a992:	89 04 24             	mov    %eax,(%esp)
 804a995:	e8 2a e2 ff ff       	call   8048bc4 <_ZNSsD1Ev@plt>
 804a99a:	89 f0                	mov    %esi,%eax
 804a99c:	89 da                	mov    %ebx,%edx
 804a99e:	e9 b9 01 00 00       	jmp    804ab5c <_Z25testGetAverageSalary_manyv+0x56e>
/home/fabrizio/Workspaces/workspaceCPP_RegressionExample/WorkersMap-namespace/Debug/../src/WorkersMap_test.cpp:101
 804a9a3:	8d 45 f1             	lea    -0xf(%ebp),%eax
 804a9a6:	89 04 24             	mov    %eax,(%esp)
 804a9a9:	e8 f6 e2 ff ff       	call   8048ca4 <_ZNSaIcEC1Ev@plt>
 804a9ae:	8d 45 f1             	lea    -0xf(%ebp),%eax
 804a9b1:	89 44 24 08          	mov    %eax,0x8(%esp)
 804a9b5:	c7 44 24 04 0e b9 04 	movl   $0x804b90e,0x4(%esp)
 804a9bc:	08 
 804a9bd:	8d 45 bc             	lea    -0x44(%ebp),%eax
 804a9c0:	89 04 24             	mov    %eax,(%esp)
 804a9c3:	e8 0c e2 ff ff       	call   8048bd4 <_ZNSsC1EPKcRKSaIcE@plt>
 804a9c8:	8d 45 f1             	lea    -0xf(%ebp),%eax
 804a9cb:	89 04 24             	mov    %eax,(%esp)
 804a9ce:	e8 51 e2 ff ff       	call   8048c24 <_ZNSaIcED1Ev@plt>
/home/fabrizio/Workspaces/workspaceCPP_RegressionExample/WorkersMap-namespace/Debug/../src/WorkersMap_test.cpp:102
 804a9d3:	8d 45 bc             	lea    -0x44(%ebp),%eax
 804a9d6:	89 44 24 04          	mov    %eax,0x4(%esp)
 804a9da:	8d 45 b8             	lea    -0x48(%ebp),%eax
 804a9dd:	89 04 24             	mov    %eax,(%esp)
 804a9e0:	e8 af e1 ff ff       	call   8048b94 <_ZNSsC1ERKSs@plt>
 804a9e5:	eb 18                	jmp    804a9ff <_Z25testGetAverageSalary_manyv+0x411>
 804a9e7:	89 d3                	mov    %edx,%ebx
 804a9e9:	89 c6                	mov    %eax,%esi
/home/fabrizio/Workspaces/workspaceCPP_RegressionExample/WorkersMap-namespace/Debug/../src/WorkersMap_test.cpp:101
 804a9eb:	8d 45 f1             	lea    -0xf(%ebp),%eax
 804a9ee:	89 04 24             	mov    %eax,(%esp)
 804a9f1:	e8 2e e2 ff ff       	call   8048c24 <_ZNSaIcED1Ev@plt>
 804a9f6:	89 f0                	mov    %esi,%eax
 804a9f8:	89 da                	mov    %ebx,%edx
 804a9fa:	e9 5d 01 00 00       	jmp    804ab5c <_Z25testGetAverageSalary_manyv+0x56e>
/home/fabrizio/Workspaces/workspaceCPP_RegressionExample/WorkersMap-namespace/Debug/../src/WorkersMap_test.cpp:102
 804a9ff:	c7 44 24 08 c8 32 00 	movl   $0x32c8,0x8(%esp)
 804aa06:	00 
 804aa07:	8d 45 b8             	lea    -0x48(%ebp),%eax
 804aa0a:	89 44 24 04          	mov    %eax,0x4(%esp)
 804aa0e:	8d 45 88             	lea    -0x78(%ebp),%eax
 804aa11:	89 04 24             	mov    %eax,(%esp)
 804aa14:	e8 9f e5 ff ff       	call   8048fb8 <_ZN7workers10WorkersMap9addWorkerESsl>
 804aa19:	8d 45 b8             	lea    -0x48(%ebp),%eax
 804aa1c:	89 04 24             	mov    %eax,(%esp)
 804aa1f:	e8 a0 e1 ff ff       	call   8048bc4 <_ZNSsD1Ev@plt>
 804aa24:	eb 18                	jmp    804aa3e <_Z25testGetAverageSalary_manyv+0x450>
 804aa26:	89 d3                	mov    %edx,%ebx
 804aa28:	89 c6                	mov    %eax,%esi
 804aa2a:	8d 45 b8             	lea    -0x48(%ebp),%eax
 804aa2d:	89 04 24             	mov    %eax,(%esp)
 804aa30:	e8 8f e1 ff ff       	call   8048bc4 <_ZNSsD1Ev@plt>
 804aa35:	89 f0                	mov    %esi,%eax
 804aa37:	89 da                	mov    %ebx,%edx
 804aa39:	e9 fc 00 00 00       	jmp    804ab3a <_Z25testGetAverageSalary_manyv+0x54c>
/home/fabrizio/Workspaces/workspaceCPP_RegressionExample/WorkersMap-namespace/Debug/../src/WorkersMap_test.cpp:104
 804aa3e:	8d 45 b0             	lea    -0x50(%ebp),%eax
 804aa41:	89 04 24             	mov    %eax,(%esp)
 804aa44:	e8 97 06 00 00       	call   804b0e0 <_ZNSt4listISsSaISsEEC1Ev>
/home/fabrizio/Workspaces/workspaceCPP_RegressionExample/WorkersMap-namespace/Debug/../src/WorkersMap_test.cpp:105
 804aa49:	8d 45 ec             	lea    -0x14(%ebp),%eax
 804aa4c:	89 44 24 04          	mov    %eax,0x4(%esp)
 804aa50:	8d 45 b0             	lea    -0x50(%ebp),%eax
 804aa53:	89 04 24             	mov    %eax,(%esp)
 804aa56:	e8 ed 06 00 00       	call   804b148 <_ZNSt4listISsSaISsEE9push_backERKSs>
/home/fabrizio/Workspaces/workspaceCPP_RegressionExample/WorkersMap-namespace/Debug/../src/WorkersMap_test.cpp:106
 804aa5b:	8d 45 e4             	lea    -0x1c(%ebp),%eax
 804aa5e:	89 44 24 04          	mov    %eax,0x4(%esp)
 804aa62:	8d 45 b0             	lea    -0x50(%ebp),%eax
 804aa65:	89 04 24             	mov    %eax,(%esp)
 804aa68:	e8 db 06 00 00       	call   804b148 <_ZNSt4listISsSaISsEE9push_backERKSs>
/home/fabrizio/Workspaces/workspaceCPP_RegressionExample/WorkersMap-namespace/Debug/../src/WorkersMap_test.cpp:107
 804aa6d:	8d 45 dc             	lea    -0x24(%ebp),%eax
 804aa70:	89 44 24 04          	mov    %eax,0x4(%esp)
 804aa74:	8d 45 b0             	lea    -0x50(%ebp),%eax
 804aa77:	89 04 24             	mov    %eax,(%esp)
 804aa7a:	e8 c9 06 00 00       	call   804b148 <_ZNSt4listISsSaISsEE9push_backERKSs>
/home/fabrizio/Workspaces/workspaceCPP_RegressionExample/WorkersMap-namespace/Debug/../src/WorkersMap_test.cpp:108
 804aa7f:	8d 45 d4             	lea    -0x2c(%ebp),%eax
 804aa82:	89 44 24 04          	mov    %eax,0x4(%esp)
 804aa86:	8d 45 b0             	lea    -0x50(%ebp),%eax
 804aa89:	89 04 24             	mov    %eax,(%esp)
 804aa8c:	e8 b7 06 00 00       	call   804b148 <_ZNSt4listISsSaISsEE9push_backERKSs>
/home/fabrizio/Workspaces/workspaceCPP_RegressionExample/WorkersMap-namespace/Debug/../src/WorkersMap_test.cpp:109
 804aa91:	8d 45 cc             	lea    -0x34(%ebp),%eax
 804aa94:	89 44 24 04          	mov    %eax,0x4(%esp)
 804aa98:	8d 45 b0             	lea    -0x50(%ebp),%eax
 804aa9b:	89 04 24             	mov    %eax,(%esp)
 804aa9e:	e8 a5 06 00 00       	call   804b148 <_ZNSt4listISsSaISsEE9push_backERKSs>
/home/fabrizio/Workspaces/workspaceCPP_RegressionExample/WorkersMap-namespace/Debug/../src/WorkersMap_test.cpp:110
 804aaa3:	8d 45 bc             	lea    -0x44(%ebp),%eax
 804aaa6:	89 44 24 04          	mov    %eax,0x4(%esp)
 804aaaa:	8d 45 b0             	lea    -0x50(%ebp),%eax
 804aaad:	89 04 24             	mov    %eax,(%esp)
 804aab0:	e8 93 06 00 00       	call   804b148 <_ZNSt4listISsSaISsEE9push_backERKSs>
/home/fabrizio/Workspaces/workspaceCPP_RegressionExample/WorkersMap-namespace/Debug/../src/WorkersMap_test.cpp:112
 804aab5:	8d 45 b0             	lea    -0x50(%ebp),%eax
 804aab8:	89 44 24 04          	mov    %eax,0x4(%esp)
 804aabc:	8d 45 a8             	lea    -0x58(%ebp),%eax
 804aabf:	89 04 24             	mov    %eax,(%esp)
 804aac2:	e8 b7 06 00 00       	call   804b17e <_ZNSt4listISsSaISsEEC1ERKS1_>
 804aac7:	8d 45 a8             	lea    -0x58(%ebp),%eax
 804aaca:	89 44 24 04          	mov    %eax,0x4(%esp)
 804aace:	8d 45 88             	lea    -0x78(%ebp),%eax
 804aad1:	89 04 24             	mov    %eax,(%esp)
 804aad4:	e8 b5 e5 ff ff       	call   804908e <_ZN7workers10WorkersMap16getAverageSalaryESt4listISsSaISsEE>
 804aad9:	89 44 24 04          	mov    %eax,0x4(%esp)
 804aadd:	c7 04 24 d2 4c 00 00 	movl   $0x4cd2,(%esp)
 804aae4:	e8 4b f4 ff ff       	call   8049f34 <_Z12assertEqualsll>
 804aae9:	8d 45 a8             	lea    -0x58(%ebp),%eax
 804aaec:	89 04 24             	mov    %eax,(%esp)
 804aaef:	e8 d8 05 00 00       	call   804b0cc <_ZNSt4listISsSaISsEED1Ev>
 804aaf4:	eb 15                	jmp    804ab0b <_Z25testGetAverageSalary_manyv+0x51d>
 804aaf6:	89 d3                	mov    %edx,%ebx
 804aaf8:	89 c6                	mov    %eax,%esi
 804aafa:	8d 45 a8             	lea    -0x58(%ebp),%eax
 804aafd:	89 04 24             	mov    %eax,(%esp)
 804ab00:	e8 c7 05 00 00       	call   804b0cc <_ZNSt4listISsSaISsEED1Ev>
 804ab05:	89 f0                	mov    %esi,%eax
 804ab07:	89 da                	mov    %ebx,%edx
 804ab09:	eb 0d                	jmp    804ab18 <_Z25testGetAverageSalary_manyv+0x52a>
 804ab0b:	8d 45 b0             	lea    -0x50(%ebp),%eax
 804ab0e:	89 04 24             	mov    %eax,(%esp)
 804ab11:	e8 b6 05 00 00       	call   804b0cc <_ZNSt4listISsSaISsEED1Ev>
 804ab16:	eb 15                	jmp    804ab2d <_Z25testGetAverageSalary_manyv+0x53f>
 804ab18:	89 d3                	mov    %edx,%ebx
 804ab1a:	89 c6                	mov    %eax,%esi
 804ab1c:	8d 45 b0             	lea    -0x50(%ebp),%eax
 804ab1f:	89 04 24             	mov    %eax,(%esp)
 804ab22:	e8 a5 05 00 00       	call   804b0cc <_ZNSt4listISsSaISsEED1Ev>
 804ab27:	89 f0                	mov    %esi,%eax
 804ab29:	89 da                	mov    %ebx,%edx
 804ab2b:	eb 0d                	jmp    804ab3a <_Z25testGetAverageSalary_manyv+0x54c>
 804ab2d:	8d 45 bc             	lea    -0x44(%ebp),%eax
 804ab30:	89 04 24             	mov    %eax,(%esp)
 804ab33:	e8 8c e0 ff ff       	call   8048bc4 <_ZNSsD1Ev@plt>
 804ab38:	eb 15                	jmp    804ab4f <_Z25testGetAverageSalary_manyv+0x561>
 804ab3a:	89 d3                	mov    %edx,%ebx
 804ab3c:	89 c6                	mov    %eax,%esi
 804ab3e:	8d 45 bc             	lea    -0x44(%ebp),%eax
 804ab41:	89 04 24             	mov    %eax,(%esp)
 804ab44:	e8 7b e0 ff ff       	call   8048bc4 <_ZNSsD1Ev@plt>
 804ab49:	89 f0                	mov    %esi,%eax
 804ab4b:	89 da                	mov    %ebx,%edx
 804ab4d:	eb 0d                	jmp    804ab5c <_Z25testGetAverageSalary_manyv+0x56e>
 804ab4f:	8d 45 c4             	lea    -0x3c(%ebp),%eax
 804ab52:	89 04 24             	mov    %eax,(%esp)
 804ab55:	e8 6a e0 ff ff       	call   8048bc4 <_ZNSsD1Ev@plt>
 804ab5a:	eb 15                	jmp    804ab71 <_Z25testGetAverageSalary_manyv+0x583>
 804ab5c:	89 d3                	mov    %edx,%ebx
 804ab5e:	89 c6                	mov    %eax,%esi
 804ab60:	8d 45 c4             	lea    -0x3c(%ebp),%eax
 804ab63:	89 04 24             	mov    %eax,(%esp)
 804ab66:	e8 59 e0 ff ff       	call   8048bc4 <_ZNSsD1Ev@plt>
 804ab6b:	89 f0                	mov    %esi,%eax
 804ab6d:	89 da                	mov    %ebx,%edx
 804ab6f:	eb 0d                	jmp    804ab7e <_Z25testGetAverageSalary_manyv+0x590>
 804ab71:	8d 45 cc             	lea    -0x34(%ebp),%eax
 804ab74:	89 04 24             	mov    %eax,(%esp)
 804ab77:	e8 48 e0 ff ff       	call   8048bc4 <_ZNSsD1Ev@plt>
 804ab7c:	eb 15                	jmp    804ab93 <_Z25testGetAverageSalary_manyv+0x5a5>
 804ab7e:	89 d3                	mov    %edx,%ebx
 804ab80:	89 c6                	mov    %eax,%esi
 804ab82:	8d 45 cc             	lea    -0x34(%ebp),%eax
 804ab85:	89 04 24             	mov    %eax,(%esp)
 804ab88:	e8 37 e0 ff ff       	call   8048bc4 <_ZNSsD1Ev@plt>
 804ab8d:	89 f0                	mov    %esi,%eax
 804ab8f:	89 da                	mov    %ebx,%edx
 804ab91:	eb 0d                	jmp    804aba0 <_Z25testGetAverageSalary_manyv+0x5b2>
 804ab93:	8d 45 d4             	lea    -0x2c(%ebp),%eax
 804ab96:	89 04 24             	mov    %eax,(%esp)
 804ab99:	e8 26 e0 ff ff       	call   8048bc4 <_ZNSsD1Ev@plt>
 804ab9e:	eb 15                	jmp    804abb5 <_Z25testGetAverageSalary_manyv+0x5c7>
 804aba0:	89 d3                	mov    %edx,%ebx
 804aba2:	89 c6                	mov    %eax,%esi
 804aba4:	8d 45 d4             	lea    -0x2c(%ebp),%eax
 804aba7:	89 04 24             	mov    %eax,(%esp)
 804abaa:	e8 15 e0 ff ff       	call   8048bc4 <_ZNSsD1Ev@plt>
 804abaf:	89 f0                	mov    %esi,%eax
 804abb1:	89 da                	mov    %ebx,%edx
 804abb3:	eb 0d                	jmp    804abc2 <_Z25testGetAverageSalary_manyv+0x5d4>
 804abb5:	8d 45 dc             	lea    -0x24(%ebp),%eax
 804abb8:	89 04 24             	mov    %eax,(%esp)
 804abbb:	e8 04 e0 ff ff       	call   8048bc4 <_ZNSsD1Ev@plt>
 804abc0:	eb 15                	jmp    804abd7 <_Z25testGetAverageSalary_manyv+0x5e9>
 804abc2:	89 d3                	mov    %edx,%ebx
 804abc4:	89 c6                	mov    %eax,%esi
 804abc6:	8d 45 dc             	lea    -0x24(%ebp),%eax
 804abc9:	89 04 24             	mov    %eax,(%esp)
 804abcc:	e8 f3 df ff ff       	call   8048bc4 <_ZNSsD1Ev@plt>
 804abd1:	89 f0                	mov    %esi,%eax
 804abd3:	89 da                	mov    %ebx,%edx
 804abd5:	eb 0d                	jmp    804abe4 <_Z25testGetAverageSalary_manyv+0x5f6>
 804abd7:	8d 45 e4             	lea    -0x1c(%ebp),%eax
 804abda:	89 04 24             	mov    %eax,(%esp)
 804abdd:	e8 e2 df ff ff       	call   8048bc4 <_ZNSsD1Ev@plt>
 804abe2:	eb 15                	jmp    804abf9 <_Z25testGetAverageSalary_manyv+0x60b>
 804abe4:	89 d3                	mov    %edx,%ebx
 804abe6:	89 c6                	mov    %eax,%esi
 804abe8:	8d 45 e4             	lea    -0x1c(%ebp),%eax
 804abeb:	89 04 24             	mov    %eax,(%esp)
 804abee:	e8 d1 df ff ff       	call   8048bc4 <_ZNSsD1Ev@plt>
 804abf3:	89 f0                	mov    %esi,%eax
 804abf5:	89 da                	mov    %ebx,%edx
 804abf7:	eb 0d                	jmp    804ac06 <_Z25testGetAverageSalary_manyv+0x618>
 804abf9:	8d 45 ec             	lea    -0x14(%ebp),%eax
 804abfc:	89 04 24             	mov    %eax,(%esp)
 804abff:	e8 c0 df ff ff       	call   8048bc4 <_ZNSsD1Ev@plt>
 804ac04:	eb 15                	jmp    804ac1b <_Z25testGetAverageSalary_manyv+0x62d>
 804ac06:	89 d3                	mov    %edx,%ebx
 804ac08:	89 c6                	mov    %eax,%esi
 804ac0a:	8d 45 ec             	lea    -0x14(%ebp),%eax
 804ac0d:	89 04 24             	mov    %eax,(%esp)
 804ac10:	e8 af df ff ff       	call   8048bc4 <_ZNSsD1Ev@plt>
 804ac15:	89 f0                	mov    %esi,%eax
 804ac17:	89 da                	mov    %ebx,%edx
 804ac19:	eb 12                	jmp    804ac2d <_Z25testGetAverageSalary_manyv+0x63f>
 804ac1b:	8d 45 88             	lea    -0x78(%ebp),%eax
 804ac1e:	89 04 24             	mov    %eax,(%esp)
 804ac21:	e8 8e e2 ff ff       	call   8048eb4 <_ZN7workers10WorkersMapD1Ev>
/home/fabrizio/Workspaces/workspaceCPP_RegressionExample/WorkersMap-namespace/Debug/../src/WorkersMap_test.cpp:115
 804ac26:	83 ec 80             	sub    $0xffffff80,%esp
 804ac29:	5b                   	pop    %ebx
 804ac2a:	5e                   	pop    %esi
 804ac2b:	5d                   	pop    %ebp
 804ac2c:	c3                   	ret    
 804ac2d:	89 d3                	mov    %edx,%ebx
 804ac2f:	89 c6                	mov    %eax,%esi
/home/fabrizio/Workspaces/workspaceCPP_RegressionExample/WorkersMap-namespace/Debug/../src/WorkersMap_test.cpp:112
 804ac31:	8d 45 88             	lea    -0x78(%ebp),%eax
 804ac34:	89 04 24             	mov    %eax,(%esp)
 804ac37:	e8 78 e2 ff ff       	call   8048eb4 <_ZN7workers10WorkersMapD1Ev>
 804ac3c:	89 f0                	mov    %esi,%eax
 804ac3e:	89 da                	mov    %ebx,%edx
 804ac40:	89 04 24             	mov    %eax,(%esp)
 804ac43:	e8 7c e0 ff ff       	call   8048cc4 <_Unwind_Resume@plt>

0804ac48 <_Z7runTestSsPFvvE>:
_Z7runTestSsPFvvE():
/home/fabrizio/Workspaces/workspaceCPP_RegressionExample/WorkersMap-namespace/Debug/../src/WorkersMap_test.cpp:117
 804ac48:	55                   	push   %ebp
 804ac49:	89 e5                	mov    %esp,%ebp
 804ac4b:	56                   	push   %esi
 804ac4c:	53                   	push   %ebx
 804ac4d:	83 ec 10             	sub    $0x10,%esp
/home/fabrizio/Workspaces/workspaceCPP_RegressionExample/WorkersMap-namespace/Debug/../src/WorkersMap_test.cpp:118
 804ac50:	a1 8c f1 04 08       	mov    0x804f18c,%eax
 804ac55:	83 c0 01             	add    $0x1,%eax
 804ac58:	a3 8c f1 04 08       	mov    %eax,0x804f18c
/home/fabrizio/Workspaces/workspaceCPP_RegressionExample/WorkersMap-namespace/Debug/../src/WorkersMap_test.cpp:120
 804ac5d:	8b 45 0c             	mov    0xc(%ebp),%eax
 804ac60:	ff d0                	call   *%eax
/home/fabrizio/Workspaces/workspaceCPP_RegressionExample/WorkersMap-namespace/Debug/../src/WorkersMap_test.cpp:121
 804ac62:	a1 90 f1 04 08       	mov    0x804f190,%eax
 804ac67:	83 c0 01             	add    $0x1,%eax
 804ac6a:	a3 90 f1 04 08       	mov    %eax,0x804f190
/home/fabrizio/Workspaces/workspaceCPP_RegressionExample/WorkersMap-namespace/Debug/../src/WorkersMap_test.cpp:122
 804ac6f:	c7 44 24 04 1e b9 04 	movl   $0x804b91e,0x4(%esp)
 804ac76:	08 
 804ac77:	c7 04 24 c0 f0 04 08 	movl   $0x804f0c0,(%esp)
 804ac7e:	e8 31 df ff ff       	call   8048bb4 <_ZStlsISt11char_traitsIcEERSt13basic_ostreamIcT_ES5_PKc@plt>
 804ac83:	8b 55 08             	mov    0x8(%ebp),%edx
 804ac86:	89 54 24 04          	mov    %edx,0x4(%esp)
 804ac8a:	89 04 24             	mov    %eax,(%esp)
 804ac8d:	e8 72 df ff ff       	call   8048c04 <_ZStlsIcSt11char_traitsIcESaIcEERSt13basic_ostreamIT_T0_ES7_RKSbIS4_S5_T1_E@plt>
 804ac92:	c7 44 24 04 74 8c 04 	movl   $0x8048c74,0x4(%esp)
 804ac99:	08 
 804ac9a:	89 04 24             	mov    %eax,(%esp)
 804ac9d:	e8 a2 df ff ff       	call   8048c44 <_ZNSolsEPFRSoS_E@plt>
 804aca2:	eb 64                	jmp    804ad08 <_Z7runTestSsPFvvE+0xc0>
/home/fabrizio/Workspaces/workspaceCPP_RegressionExample/WorkersMap-namespace/Debug/../src/WorkersMap_test.cpp:123
 804aca4:	89 04 24             	mov    %eax,(%esp)
 804aca7:	e8 d8 df ff ff       	call   8048c84 <__cxa_begin_catch@plt>
/home/fabrizio/Workspaces/workspaceCPP_RegressionExample/WorkersMap-namespace/Debug/../src/WorkersMap_test.cpp:124
 804acac:	a1 94 f1 04 08       	mov    0x804f194,%eax
 804acb1:	83 c0 01             	add    $0x1,%eax
 804acb4:	a3 94 f1 04 08       	mov    %eax,0x804f194
/home/fabrizio/Workspaces/workspaceCPP_RegressionExample/WorkersMap-namespace/Debug/../src/WorkersMap_test.cpp:125
 804acb9:	c7 44 24 04 2c b9 04 	movl   $0x804b92c,0x4(%esp)
 804acc0:	08 
 804acc1:	c7 04 24 c0 f0 04 08 	movl   $0x804f0c0,(%esp)
 804acc8:	e8 e7 de ff ff       	call   8048bb4 <_ZStlsISt11char_traitsIcEERSt13basic_ostreamIcT_ES5_PKc@plt>
 804accd:	8b 55 08             	mov    0x8(%ebp),%edx
 804acd0:	89 54 24 04          	mov    %edx,0x4(%esp)
 804acd4:	89 04 24             	mov    %eax,(%esp)
 804acd7:	e8 28 df ff ff       	call   8048c04 <_ZStlsIcSt11char_traitsIcESaIcEERSt13basic_ostreamIT_T0_ES7_RKSbIS4_S5_T1_E@plt>
 804acdc:	c7 44 24 04 74 8c 04 	movl   $0x8048c74,0x4(%esp)
 804ace3:	08 
 804ace4:	89 04 24             	mov    %eax,(%esp)
 804ace7:	e8 58 df ff ff       	call   8048c44 <_ZNSolsEPFRSoS_E@plt>
/home/fabrizio/Workspaces/workspaceCPP_RegressionExample/WorkersMap-namespace/Debug/../src/WorkersMap_test.cpp:123
 804acec:	e8 63 df ff ff       	call   8048c54 <__cxa_end_catch@plt>
 804acf1:	eb 15                	jmp    804ad08 <_Z7runTestSsPFvvE+0xc0>
 804acf3:	89 d3                	mov    %edx,%ebx
 804acf5:	89 c6                	mov    %eax,%esi
 804acf7:	e8 58 df ff ff       	call   8048c54 <__cxa_end_catch@plt>
 804acfc:	89 f0                	mov    %esi,%eax
 804acfe:	89 da                	mov    %ebx,%edx
 804ad00:	89 04 24             	mov    %eax,(%esp)
 804ad03:	e8 bc df ff ff       	call   8048cc4 <_Unwind_Resume@plt>
/home/fabrizio/Workspaces/workspaceCPP_RegressionExample/WorkersMap-namespace/Debug/../src/WorkersMap_test.cpp:127
 804ad08:	83 c4 10             	add    $0x10,%esp
 804ad0b:	5b                   	pop    %ebx
 804ad0c:	5e                   	pop    %esi
 804ad0d:	5d                   	pop    %ebp
 804ad0e:	c3                   	ret    

0804ad0f <main>:
main():
/home/fabrizio/Workspaces/workspaceCPP_RegressionExample/WorkersMap-namespace/Debug/../src/WorkersMap_test.cpp:129
 804ad0f:	55                   	push   %ebp
 804ad10:	89 e5                	mov    %esp,%ebp
 804ad12:	83 e4 f0             	and    $0xfffffff0,%esp
 804ad15:	56                   	push   %esi
 804ad16:	53                   	push   %ebx
 804ad17:	83 ec 38             	sub    $0x38,%esp
/home/fabrizio/Workspaces/workspaceCPP_RegressionExample/WorkersMap-namespace/Debug/../src/WorkersMap_test.cpp:130
 804ad1a:	c7 44 24 04 3c b9 04 	movl   $0x804b93c,0x4(%esp)
 804ad21:	08 
 804ad22:	c7 04 24 c0 f0 04 08 	movl   $0x804f0c0,(%esp)
 804ad29:	e8 86 de ff ff       	call   8048bb4 <_ZStlsISt11char_traitsIcEERSt13basic_ostreamIcT_ES5_PKc@plt>
 804ad2e:	c7 44 24 04 74 8c 04 	movl   $0x8048c74,0x4(%esp)
 804ad35:	08 
 804ad36:	89 04 24             	mov    %eax,(%esp)
 804ad39:	e8 06 df ff ff       	call   8048c44 <_ZNSolsEPFRSoS_E@plt>
/home/fabrizio/Workspaces/workspaceCPP_RegressionExample/WorkersMap-namespace/Debug/../src/WorkersMap_test.cpp:132
 804ad3e:	8d 44 24 2f          	lea    0x2f(%esp),%eax
 804ad42:	89 04 24             	mov    %eax,(%esp)
 804ad45:	e8 5a df ff ff       	call   8048ca4 <_ZNSaIcEC1Ev@plt>
 804ad4a:	8d 44 24 2f          	lea    0x2f(%esp),%eax
 804ad4e:	89 44 24 08          	mov    %eax,0x8(%esp)
 804ad52:	c7 44 24 04 64 b9 04 	movl   $0x804b964,0x4(%esp)
 804ad59:	08 
 804ad5a:	8d 44 24 28          	lea    0x28(%esp),%eax
 804ad5e:	89 04 24             	mov    %eax,(%esp)
 804ad61:	e8 6e de ff ff       	call   8048bd4 <_ZNSsC1EPKcRKSaIcE@plt>
 804ad66:	c7 44 24 04 fb 9f 04 	movl   $0x8049ffb,0x4(%esp)
 804ad6d:	08 
 804ad6e:	8d 44 24 28          	lea    0x28(%esp),%eax
 804ad72:	89 04 24             	mov    %eax,(%esp)
 804ad75:	e8 ce fe ff ff       	call   804ac48 <_Z7runTestSsPFvvE>
 804ad7a:	8d 44 24 28          	lea    0x28(%esp),%eax
 804ad7e:	89 04 24             	mov    %eax,(%esp)
 804ad81:	e8 3e de ff ff       	call   8048bc4 <_ZNSsD1Ev@plt>
 804ad86:	eb 16                	jmp    804ad9e <main+0x8f>
 804ad88:	89 d3                	mov    %edx,%ebx
 804ad8a:	89 c6                	mov    %eax,%esi
 804ad8c:	8d 44 24 28          	lea    0x28(%esp),%eax
 804ad90:	89 04 24             	mov    %eax,(%esp)
 804ad93:	e8 2c de ff ff       	call   8048bc4 <_ZNSsD1Ev@plt>
 804ad98:	89 f0                	mov    %esi,%eax
 804ad9a:	89 da                	mov    %ebx,%edx
 804ad9c:	eb 36                	jmp    804add4 <main+0xc5>
 804ad9e:	8d 44 24 2f          	lea    0x2f(%esp),%eax
 804ada2:	89 04 24             	mov    %eax,(%esp)
 804ada5:	e8 7a de ff ff       	call   8048c24 <_ZNSaIcED1Ev@plt>
/home/fabrizio/Workspaces/workspaceCPP_RegressionExample/WorkersMap-namespace/Debug/../src/WorkersMap_test.cpp:133
 804adaa:	8d 44 24 2e          	lea    0x2e(%esp),%eax
 804adae:	89 04 24             	mov    %eax,(%esp)
 804adb1:	e8 ee de ff ff       	call   8048ca4 <_ZNSaIcEC1Ev@plt>
 804adb6:	8d 44 24 2e          	lea    0x2e(%esp),%eax
 804adba:	89 44 24 08          	mov    %eax,0x8(%esp)
 804adbe:	c7 44 24 04 76 b9 04 	movl   $0x804b976,0x4(%esp)
 804adc5:	08 
 804adc6:	8d 44 24 24          	lea    0x24(%esp),%eax
 804adca:	89 04 24             	mov    %eax,(%esp)
 804adcd:	e8 02 de ff ff       	call   8048bd4 <_ZNSsC1EPKcRKSaIcE@plt>
 804add2:	eb 1c                	jmp    804adf0 <main+0xe1>
 804add4:	89 d3                	mov    %edx,%ebx
 804add6:	89 c6                	mov    %eax,%esi
/home/fabrizio/Workspaces/workspaceCPP_RegressionExample/WorkersMap-namespace/Debug/../src/WorkersMap_test.cpp:132
 804add8:	8d 44 24 2f          	lea    0x2f(%esp),%eax
 804addc:	89 04 24             	mov    %eax,(%esp)
 804addf:	e8 40 de ff ff       	call   8048c24 <_ZNSaIcED1Ev@plt>
 804ade4:	89 f0                	mov    %esi,%eax
 804ade6:	89 da                	mov    %ebx,%edx
 804ade8:	89 04 24             	mov    %eax,(%esp)
 804adeb:	e8 d4 de ff ff       	call   8048cc4 <_Unwind_Resume@plt>
/home/fabrizio/Workspaces/workspaceCPP_RegressionExample/WorkersMap-namespace/Debug/../src/WorkersMap_test.cpp:133
 804adf0:	c7 44 24 04 4b a1 04 	movl   $0x804a14b,0x4(%esp)
 804adf7:	08 
 804adf8:	8d 44 24 24          	lea    0x24(%esp),%eax
 804adfc:	89 04 24             	mov    %eax,(%esp)
 804adff:	e8 44 fe ff ff       	call   804ac48 <_Z7runTestSsPFvvE>
 804ae04:	8d 44 24 24          	lea    0x24(%esp),%eax
 804ae08:	89 04 24             	mov    %eax,(%esp)
 804ae0b:	e8 b4 dd ff ff       	call   8048bc4 <_ZNSsD1Ev@plt>
 804ae10:	eb 16                	jmp    804ae28 <main+0x119>
 804ae12:	89 d3                	mov    %edx,%ebx
 804ae14:	89 c6                	mov    %eax,%esi
 804ae16:	8d 44 24 24          	lea    0x24(%esp),%eax
 804ae1a:	89 04 24             	mov    %eax,(%esp)
 804ae1d:	e8 a2 dd ff ff       	call   8048bc4 <_ZNSsD1Ev@plt>
 804ae22:	89 f0                	mov    %esi,%eax
 804ae24:	89 da                	mov    %ebx,%edx
 804ae26:	eb 36                	jmp    804ae5e <main+0x14f>
 804ae28:	8d 44 24 2e          	lea    0x2e(%esp),%eax
 804ae2c:	89 04 24             	mov    %eax,(%esp)
 804ae2f:	e8 f0 dd ff ff       	call   8048c24 <_ZNSaIcED1Ev@plt>
/home/fabrizio/Workspaces/workspaceCPP_RegressionExample/WorkersMap-namespace/Debug/../src/WorkersMap_test.cpp:134
 804ae34:	8d 44 24 2d          	lea    0x2d(%esp),%eax
 804ae38:	89 04 24             	mov    %eax,(%esp)
 804ae3b:	e8 64 de ff ff       	call   8048ca4 <_ZNSaIcEC1Ev@plt>
 804ae40:	8d 44 24 2d          	lea    0x2d(%esp),%eax
 804ae44:	89 44 24 08          	mov    %eax,0x8(%esp)
 804ae48:	c7 44 24 04 88 b9 04 	movl   $0x804b988,0x4(%esp)
 804ae4f:	08 
 804ae50:	8d 44 24 20          	lea    0x20(%esp),%eax
 804ae54:	89 04 24             	mov    %eax,(%esp)
 804ae57:	e8 78 dd ff ff       	call   8048bd4 <_ZNSsC1EPKcRKSaIcE@plt>
 804ae5c:	eb 1c                	jmp    804ae7a <main+0x16b>
 804ae5e:	89 d3                	mov    %edx,%ebx
 804ae60:	89 c6                	mov    %eax,%esi
/home/fabrizio/Workspaces/workspaceCPP_RegressionExample/WorkersMap-namespace/Debug/../src/WorkersMap_test.cpp:133
 804ae62:	8d 44 24 2e          	lea    0x2e(%esp),%eax
 804ae66:	89 04 24             	mov    %eax,(%esp)
 804ae69:	e8 b6 dd ff ff       	call   8048c24 <_ZNSaIcED1Ev@plt>
 804ae6e:	89 f0                	mov    %esi,%eax
 804ae70:	89 da                	mov    %ebx,%edx
 804ae72:	89 04 24             	mov    %eax,(%esp)
 804ae75:	e8 4a de ff ff       	call   8048cc4 <_Unwind_Resume@plt>
/home/fabrizio/Workspaces/workspaceCPP_RegressionExample/WorkersMap-namespace/Debug/../src/WorkersMap_test.cpp:134
 804ae7a:	c7 44 24 04 b1 a3 04 	movl   $0x804a3b1,0x4(%esp)
 804ae81:	08 
 804ae82:	8d 44 24 20          	lea    0x20(%esp),%eax
 804ae86:	89 04 24             	mov    %eax,(%esp)
 804ae89:	e8 ba fd ff ff       	call   804ac48 <_Z7runTestSsPFvvE>
 804ae8e:	8d 44 24 20          	lea    0x20(%esp),%eax
 804ae92:	89 04 24             	mov    %eax,(%esp)
 804ae95:	e8 2a dd ff ff       	call   8048bc4 <_ZNSsD1Ev@plt>
 804ae9a:	eb 16                	jmp    804aeb2 <main+0x1a3>
 804ae9c:	89 d3                	mov    %edx,%ebx
 804ae9e:	89 c6                	mov    %eax,%esi
 804aea0:	8d 44 24 20          	lea    0x20(%esp),%eax
 804aea4:	89 04 24             	mov    %eax,(%esp)
 804aea7:	e8 18 dd ff ff       	call   8048bc4 <_ZNSsD1Ev@plt>
 804aeac:	89 f0                	mov    %esi,%eax
 804aeae:	89 da                	mov    %ebx,%edx
 804aeb0:	eb 36                	jmp    804aee8 <main+0x1d9>
 804aeb2:	8d 44 24 2d          	lea    0x2d(%esp),%eax
 804aeb6:	89 04 24             	mov    %eax,(%esp)
 804aeb9:	e8 66 dd ff ff       	call   8048c24 <_ZNSaIcED1Ev@plt>
/home/fabrizio/Workspaces/workspaceCPP_RegressionExample/WorkersMap-namespace/Debug/../src/WorkersMap_test.cpp:135
 804aebe:	8d 44 24 2c          	lea    0x2c(%esp),%eax
 804aec2:	89 04 24             	mov    %eax,(%esp)
 804aec5:	e8 da dd ff ff       	call   8048ca4 <_ZNSaIcEC1Ev@plt>
 804aeca:	8d 44 24 2c          	lea    0x2c(%esp),%eax
 804aece:	89 44 24 08          	mov    %eax,0x8(%esp)
 804aed2:	c7 44 24 04 a4 b9 04 	movl   $0x804b9a4,0x4(%esp)
 804aed9:	08 
 804aeda:	8d 44 24 1c          	lea    0x1c(%esp),%eax
 804aede:	89 04 24             	mov    %eax,(%esp)
 804aee1:	e8 ee dc ff ff       	call   8048bd4 <_ZNSsC1EPKcRKSaIcE@plt>
 804aee6:	eb 1c                	jmp    804af04 <main+0x1f5>
 804aee8:	89 d3                	mov    %edx,%ebx
 804aeea:	89 c6                	mov    %eax,%esi
/home/fabrizio/Workspaces/workspaceCPP_RegressionExample/WorkersMap-namespace/Debug/../src/WorkersMap_test.cpp:134
 804aeec:	8d 44 24 2d          	lea    0x2d(%esp),%eax
 804aef0:	89 04 24             	mov    %eax,(%esp)
 804aef3:	e8 2c dd ff ff       	call   8048c24 <_ZNSaIcED1Ev@plt>
 804aef8:	89 f0                	mov    %esi,%eax
 804aefa:	89 da                	mov    %ebx,%edx
 804aefc:	89 04 24             	mov    %eax,(%esp)
 804aeff:	e8 c0 dd ff ff       	call   8048cc4 <_Unwind_Resume@plt>
/home/fabrizio/Workspaces/workspaceCPP_RegressionExample/WorkersMap-namespace/Debug/../src/WorkersMap_test.cpp:135
 804af04:	c7 44 24 04 ee a5 04 	movl   $0x804a5ee,0x4(%esp)
 804af0b:	08 
 804af0c:	8d 44 24 1c          	lea    0x1c(%esp),%eax
 804af10:	89 04 24             	mov    %eax,(%esp)
 804af13:	e8 30 fd ff ff       	call   804ac48 <_Z7runTestSsPFvvE>
 804af18:	8d 44 24 1c          	lea    0x1c(%esp),%eax
 804af1c:	89 04 24             	mov    %eax,(%esp)
 804af1f:	e8 a0 dc ff ff       	call   8048bc4 <_ZNSsD1Ev@plt>
 804af24:	eb 16                	jmp    804af3c <main+0x22d>
 804af26:	89 d3                	mov    %edx,%ebx
 804af28:	89 c6                	mov    %eax,%esi
 804af2a:	8d 44 24 1c          	lea    0x1c(%esp),%eax
 804af2e:	89 04 24             	mov    %eax,(%esp)
 804af31:	e8 8e dc ff ff       	call   8048bc4 <_ZNSsD1Ev@plt>
 804af36:	89 f0                	mov    %esi,%eax
 804af38:	89 da                	mov    %ebx,%edx
 804af3a:	eb 1d                	jmp    804af59 <main+0x24a>
 804af3c:	8d 44 24 2c          	lea    0x2c(%esp),%eax
 804af40:	89 04 24             	mov    %eax,(%esp)
 804af43:	e8 dc dc ff ff       	call   8048c24 <_ZNSaIcED1Ev@plt>
/home/fabrizio/Workspaces/workspaceCPP_RegressionExample/WorkersMap-namespace/Debug/../src/WorkersMap_test.cpp:137
 804af48:	8b 15 8c f1 04 08    	mov    0x804f18c,%edx
 804af4e:	a1 90 f1 04 08       	mov    0x804f190,%eax
 804af53:	39 c2                	cmp    %eax,%edx
 804af55:	74 1e                	je     804af75 <main+0x266>
 804af57:	eb 42                	jmp    804af9b <main+0x28c>
 804af59:	89 d3                	mov    %edx,%ebx
 804af5b:	89 c6                	mov    %eax,%esi
/home/fabrizio/Workspaces/workspaceCPP_RegressionExample/WorkersMap-namespace/Debug/../src/WorkersMap_test.cpp:135
 804af5d:	8d 44 24 2c          	lea    0x2c(%esp),%eax
 804af61:	89 04 24             	mov    %eax,(%esp)
 804af64:	e8 bb dc ff ff       	call   8048c24 <_ZNSaIcED1Ev@plt>
 804af69:	89 f0                	mov    %esi,%eax
 804af6b:	89 da                	mov    %ebx,%edx
 804af6d:	89 04 24             	mov    %eax,(%esp)
 804af70:	e8 4f dd ff ff       	call   8048cc4 <_Unwind_Resume@plt>
/home/fabrizio/Workspaces/workspaceCPP_RegressionExample/WorkersMap-namespace/Debug/../src/WorkersMap_test.cpp:138
 804af75:	c7 44 24 04 c0 b9 04 	movl   $0x804b9c0,0x4(%esp)
 804af7c:	08 
 804af7d:	c7 04 24 c0 f0 04 08 	movl   $0x804f0c0,(%esp)
 804af84:	e8 2b dc ff ff       	call   8048bb4 <_ZStlsISt11char_traitsIcEERSt13basic_ostreamIcT_ES5_PKc@plt>
 804af89:	c7 44 24 04 74 8c 04 	movl   $0x8048c74,0x4(%esp)
 804af90:	08 
 804af91:	89 04 24             	mov    %eax,(%esp)
 804af94:	e8 ab dc ff ff       	call   8048c44 <_ZNSolsEPFRSoS_E@plt>
 804af99:	eb 24                	jmp    804afbf <main+0x2b0>
/home/fabrizio/Workspaces/workspaceCPP_RegressionExample/WorkersMap-namespace/Debug/../src/WorkersMap_test.cpp:140
 804af9b:	c7 44 24 04 ea b9 04 	movl   $0x804b9ea,0x4(%esp)
 804afa2:	08 
 804afa3:	c7 04 24 c0 f0 04 08 	movl   $0x804f0c0,(%esp)
 804afaa:	e8 05 dc ff ff       	call   8048bb4 <_ZStlsISt11char_traitsIcEERSt13basic_ostreamIcT_ES5_PKc@plt>
 804afaf:	c7 44 24 04 74 8c 04 	movl   $0x8048c74,0x4(%esp)
 804afb6:	08 
 804afb7:	89 04 24             	mov    %eax,(%esp)
 804afba:	e8 85 dc ff ff       	call   8048c44 <_ZNSolsEPFRSoS_E@plt>
/home/fabrizio/Workspaces/workspaceCPP_RegressionExample/WorkersMap-namespace/Debug/../src/WorkersMap_test.cpp:143
 804afbf:	8b 1d 8c f1 04 08    	mov    0x804f18c,%ebx
 804afc5:	c7 44 24 04 08 ba 04 	movl   $0x804ba08,0x4(%esp)
 804afcc:	08 
 804afcd:	c7 04 24 c0 f0 04 08 	movl   $0x804f0c0,(%esp)
 804afd4:	e8 db db ff ff       	call   8048bb4 <_ZStlsISt11char_traitsIcEERSt13basic_ostreamIcT_ES5_PKc@plt>
 804afd9:	89 5c 24 04          	mov    %ebx,0x4(%esp)
 804afdd:	89 04 24             	mov    %eax,(%esp)
 804afe0:	e8 1f db ff ff       	call   8048b04 <_ZNSolsEi@plt>
 804afe5:	c7 44 24 04 74 8c 04 	movl   $0x8048c74,0x4(%esp)
 804afec:	08 
 804afed:	89 04 24             	mov    %eax,(%esp)
 804aff0:	e8 4f dc ff ff       	call   8048c44 <_ZNSolsEPFRSoS_E@plt>
/home/fabrizio/Workspaces/workspaceCPP_RegressionExample/WorkersMap-namespace/Debug/../src/WorkersMap_test.cpp:145
 804aff5:	8b 1d 90 f1 04 08    	mov    0x804f190,%ebx
 804affb:	c7 44 24 04 1e ba 04 	movl   $0x804ba1e,0x4(%esp)
 804b002:	08 
 804b003:	c7 04 24 c0 f0 04 08 	movl   $0x804f0c0,(%esp)
 804b00a:	e8 a5 db ff ff       	call   8048bb4 <_ZStlsISt11char_traitsIcEERSt13basic_ostreamIcT_ES5_PKc@plt>
 804b00f:	89 5c 24 04          	mov    %ebx,0x4(%esp)
 804b013:	89 04 24             	mov    %eax,(%esp)
 804b016:	e8 e9 da ff ff       	call   8048b04 <_ZNSolsEi@plt>
 804b01b:	c7 44 24 04 74 8c 04 	movl   $0x8048c74,0x4(%esp)
 804b022:	08 
 804b023:	89 04 24             	mov    %eax,(%esp)
 804b026:	e8 19 dc ff ff       	call   8048c44 <_ZNSolsEPFRSoS_E@plt>
/home/fabrizio/Workspaces/workspaceCPP_RegressionExample/WorkersMap-namespace/Debug/../src/WorkersMap_test.cpp:147
 804b02b:	8b 1d 94 f1 04 08    	mov    0x804f194,%ebx
 804b031:	c7 44 24 04 32 ba 04 	movl   $0x804ba32,0x4(%esp)
 804b038:	08 
 804b039:	c7 04 24 c0 f0 04 08 	movl   $0x804f0c0,(%esp)
 804b040:	e8 6f db ff ff       	call   8048bb4 <_ZStlsISt11char_traitsIcEERSt13basic_ostreamIcT_ES5_PKc@plt>
 804b045:	89 5c 24 04          	mov    %ebx,0x4(%esp)
 804b049:	89 04 24             	mov    %eax,(%esp)
 804b04c:	e8 b3 da ff ff       	call   8048b04 <_ZNSolsEi@plt>
 804b051:	c7 44 24 04 74 8c 04 	movl   $0x8048c74,0x4(%esp)
 804b058:	08 
 804b059:	89 04 24             	mov    %eax,(%esp)
 804b05c:	e8 e3 db ff ff       	call   8048c44 <_ZNSolsEPFRSoS_E@plt>
/home/fabrizio/Workspaces/workspaceCPP_RegressionExample/WorkersMap-namespace/Debug/../src/WorkersMap_test.cpp:149
 804b061:	b8 00 00 00 00       	mov    $0x0,%eax
/home/fabrizio/Workspaces/workspaceCPP_RegressionExample/WorkersMap-namespace/Debug/../src/WorkersMap_test.cpp:150
 804b066:	83 c4 38             	add    $0x38,%esp
 804b069:	5b                   	pop    %ebx
 804b06a:	5e                   	pop    %esi
 804b06b:	89 ec                	mov    %ebp,%esp
 804b06d:	5d                   	pop    %ebp
 804b06e:	c3                   	ret    

0804b06f <_Z41__static_initialization_and_destruction_0ii>:
__static_initialization_and_destruction_0():
 804b06f:	55                   	push   %ebp
 804b070:	89 e5                	mov    %esp,%ebp
 804b072:	83 ec 18             	sub    $0x18,%esp
 804b075:	83 7d 08 01          	cmpl   $0x1,0x8(%ebp)
 804b079:	75 32                	jne    804b0ad <_Z41__static_initialization_and_destruction_0ii+0x3e>
 804b07b:	81 7d 0c ff ff 00 00 	cmpl   $0xffff,0xc(%ebp)
 804b082:	75 29                	jne    804b0ad <_Z41__static_initialization_and_destruction_0ii+0x3e>
/usr/include/c++/4.4/iostream:72
 804b084:	c7 04 24 98 f1 04 08 	movl   $0x804f198,(%esp)
 804b08b:	e8 c4 da ff ff       	call   8048b54 <_ZNSt8ios_base4InitC1Ev@plt>
 804b090:	b8 a4 8b 04 08       	mov    $0x8048ba4,%eax
 804b095:	c7 44 24 08 7c f0 04 	movl   $0x804f07c,0x8(%esp)
 804b09c:	08 
 804b09d:	c7 44 24 04 98 f1 04 	movl   $0x804f198,0x4(%esp)
 804b0a4:	08 
 804b0a5:	89 04 24             	mov    %eax,(%esp)
 804b0a8:	e8 67 da ff ff       	call   8048b14 <__cxa_atexit@plt>
/home/fabrizio/Workspaces/workspaceCPP_RegressionExample/WorkersMap-namespace/Debug/../src/WorkersMap_test.cpp:150
 804b0ad:	c9                   	leave  
 804b0ae:	c3                   	ret    

0804b0af <_GLOBAL__I_allTestCases>:
_GLOBAL__I_allTestCases():
 804b0af:	55                   	push   %ebp
 804b0b0:	89 e5                	mov    %esp,%ebp
 804b0b2:	83 ec 18             	sub    $0x18,%esp
 804b0b5:	c7 44 24 04 ff ff 00 	movl   $0xffff,0x4(%esp)
 804b0bc:	00 
 804b0bd:	c7 04 24 01 00 00 00 	movl   $0x1,(%esp)
 804b0c4:	e8 a6 ff ff ff       	call   804b06f <_Z41__static_initialization_and_destruction_0ii>
 804b0c9:	c9                   	leave  
 804b0ca:	c3                   	ret    
 804b0cb:	90                   	nop

0804b0cc <_ZNSt4listISsSaISsEED1Ev>:
~list():
/usr/include/c++/4.4/bits/stl_list.h:418
 804b0cc:	55                   	push   %ebp
 804b0cd:	89 e5                	mov    %esp,%ebp
 804b0cf:	83 ec 18             	sub    $0x18,%esp
 804b0d2:	8b 45 08             	mov    0x8(%ebp),%eax
 804b0d5:	89 04 24             	mov    %eax,(%esp)
 804b0d8:	e8 2b 00 00 00       	call   804b108 <_ZNSt10_List_baseISsSaISsEED2Ev>
 804b0dd:	c9                   	leave  
 804b0de:	c3                   	ret    
_ZNSt4listISsSaISsEED1Ev():
 804b0df:	90                   	nop

0804b0e0 <_ZNSt4listISsSaISsEEC1Ev>:
list():
/usr/include/c++/4.4/bits/stl_list.h:499
 804b0e0:	55                   	push   %ebp
 804b0e1:	89 e5                	mov    %esp,%ebp
 804b0e3:	83 ec 18             	sub    $0x18,%esp
/usr/include/c++/4.4/bits/stl_list.h:500
 804b0e6:	8b 45 08             	mov    0x8(%ebp),%eax
 804b0e9:	89 04 24             	mov    %eax,(%esp)
 804b0ec:	e8 57 01 00 00       	call   804b248 <_ZNSt10_List_baseISsSaISsEEC2Ev>
 804b0f1:	c9                   	leave  
 804b0f2:	c3                   	ret    
_ZNSt4listISsSaISsEEC1Ev():
 804b0f3:	90                   	nop

0804b0f4 <_ZNSt10_List_baseISsSaISsEE10_List_implD1Ev>:
~_List_impl():
/usr/include/c++/4.4/bits/stl_list.h:300
 804b0f4:	55                   	push   %ebp
 804b0f5:	89 e5                	mov    %esp,%ebp
 804b0f7:	83 ec 18             	sub    $0x18,%esp
 804b0fa:	8b 45 08             	mov    0x8(%ebp),%eax
 804b0fd:	89 04 24             	mov    %eax,(%esp)
 804b100:	e8 61 01 00 00       	call   804b266 <_ZNSaISt10_List_nodeISsEED2Ev>
 804b105:	c9                   	leave  
 804b106:	c3                   	ret    
_ZNSt10_List_baseISsSaISsEE10_List_implD1Ev():
 804b107:	90                   	nop

0804b108 <_ZNSt10_List_baseISsSaISsEED2Ev>:
~_List_base():
/usr/include/c++/4.4/bits/stl_list.h:359
 804b108:	55                   	push   %ebp
 804b109:	89 e5                	mov    %esp,%ebp
 804b10b:	56                   	push   %esi
 804b10c:	53                   	push   %ebx
 804b10d:	83 ec 10             	sub    $0x10,%esp
/usr/include/c++/4.4/bits/stl_list.h:360
 804b110:	8b 45 08             	mov    0x8(%ebp),%eax
 804b113:	89 04 24             	mov    %eax,(%esp)
 804b116:	e8 73 01 00 00       	call   804b28e <_ZNSt10_List_baseISsSaISsEE8_M_clearEv>
 804b11b:	8b 45 08             	mov    0x8(%ebp),%eax
 804b11e:	89 04 24             	mov    %eax,(%esp)
 804b121:	e8 ce ff ff ff       	call   804b0f4 <_ZNSt10_List_baseISsSaISsEE10_List_implD1Ev>
 804b126:	83 c4 10             	add    $0x10,%esp
 804b129:	5b                   	pop    %ebx
 804b12a:	5e                   	pop    %esi
 804b12b:	5d                   	pop    %ebp
 804b12c:	c3                   	ret    
 804b12d:	89 d3                	mov    %edx,%ebx
 804b12f:	89 c6                	mov    %eax,%esi
 804b131:	8b 45 08             	mov    0x8(%ebp),%eax
 804b134:	89 04 24             	mov    %eax,(%esp)
 804b137:	e8 b8 ff ff ff       	call   804b0f4 <_ZNSt10_List_baseISsSaISsEE10_List_implD1Ev>
 804b13c:	89 f0                	mov    %esi,%eax
 804b13e:	89 da                	mov    %ebx,%edx
 804b140:	89 04 24             	mov    %eax,(%esp)
 804b143:	e8 7c db ff ff       	call   8048cc4 <_Unwind_Resume@plt>

0804b148 <_ZNSt4listISsSaISsEE9push_backERKSs>:
_ZNSt4listISsSaISsEE9push_backERKSs():
/usr/include/c++/4.4/bits/stl_list.h:919
 804b148:	55                   	push   %ebp
 804b149:	89 e5                	mov    %esp,%ebp
 804b14b:	83 ec 28             	sub    $0x28,%esp
/usr/include/c++/4.4/bits/stl_list.h:920
 804b14e:	8d 45 f4             	lea    -0xc(%ebp),%eax
 804b151:	8b 55 08             	mov    0x8(%ebp),%edx
 804b154:	89 54 24 04          	mov    %edx,0x4(%esp)
 804b158:	89 04 24             	mov    %eax,(%esp)
 804b15b:	e8 96 e2 ff ff       	call   80493f6 <_ZNSt4listISsSaISsEE3endEv>
 804b160:	83 ec 04             	sub    $0x4,%esp
 804b163:	8b 45 0c             	mov    0xc(%ebp),%eax
 804b166:	89 44 24 08          	mov    %eax,0x8(%esp)
 804b16a:	8b 45 f4             	mov    -0xc(%ebp),%eax
 804b16d:	89 44 24 04          	mov    %eax,0x4(%esp)
 804b171:	8b 45 08             	mov    0x8(%ebp),%eax
 804b174:	89 04 24             	mov    %eax,(%esp)
 804b177:	e8 b4 01 00 00       	call   804b330 <_ZNSt4listISsSaISsEE9_M_insertESt14_List_iteratorISsERKSs>
 804b17c:	c9                   	leave  
 804b17d:	c3                   	ret    

0804b17e <_ZNSt4listISsSaISsEEC1ERKS1_>:
list():
/usr/include/c++/4.4/bits/stl_list.h:531
 804b17e:	55                   	push   %ebp
 804b17f:	89 e5                	mov    %esp,%ebp
 804b181:	56                   	push   %esi
 804b182:	53                   	push   %ebx
 804b183:	83 ec 20             	sub    $0x20,%esp
/usr/include/c++/4.4/bits/stl_list.h:532
 804b186:	8b 45 0c             	mov    0xc(%ebp),%eax
 804b189:	89 04 24             	mov    %eax,(%esp)
 804b18c:	e8 cf 01 00 00       	call   804b360 <_ZNKSt10_List_baseISsSaISsEE21_M_get_Node_allocatorEv>
 804b191:	89 44 24 04          	mov    %eax,0x4(%esp)
 804b195:	8d 45 f7             	lea    -0x9(%ebp),%eax
 804b198:	89 04 24             	mov    %eax,(%esp)
 804b19b:	e8 c8 01 00 00       	call   804b368 <_ZNSaISsEC1ISt10_List_nodeISsEEERKSaIT_E>
 804b1a0:	8b 45 08             	mov    0x8(%ebp),%eax
 804b1a3:	8d 55 f7             	lea    -0x9(%ebp),%edx
 804b1a6:	89 54 24 04          	mov    %edx,0x4(%esp)
 804b1aa:	89 04 24             	mov    %eax,(%esp)
 804b1ad:	e8 de 01 00 00       	call   804b390 <_ZNSt10_List_baseISsSaISsEEC2ERKS0_>
 804b1b2:	8d 45 f7             	lea    -0x9(%ebp),%eax
 804b1b5:	89 04 24             	mov    %eax,(%esp)
 804b1b8:	e8 bf 01 00 00       	call   804b37c <_ZNSaISsED1Ev>
/usr/include/c++/4.4/bits/stl_list.h:533
 804b1bd:	8d 45 f0             	lea    -0x10(%ebp),%eax
 804b1c0:	8b 55 0c             	mov    0xc(%ebp),%edx
 804b1c3:	89 54 24 04          	mov    %edx,0x4(%esp)
 804b1c7:	89 04 24             	mov    %eax,(%esp)
 804b1ca:	e8 29 02 00 00       	call   804b3f8 <_ZNKSt4listISsSaISsEE3endEv>
 804b1cf:	83 ec 04             	sub    $0x4,%esp
 804b1d2:	8d 45 ec             	lea    -0x14(%ebp),%eax
 804b1d5:	8b 55 0c             	mov    0xc(%ebp),%edx
 804b1d8:	89 54 24 04          	mov    %edx,0x4(%esp)
 804b1dc:	89 04 24             	mov    %eax,(%esp)
 804b1df:	e8 ee 01 00 00       	call   804b3d2 <_ZNKSt4listISsSaISsEE5beginEv>
 804b1e4:	eb 1b                	jmp    804b201 <_ZNSt4listISsSaISsEEC1ERKS1_+0x83>
 804b1e6:	89 d3                	mov    %edx,%ebx
 804b1e8:	89 c6                	mov    %eax,%esi
/usr/include/c++/4.4/bits/stl_list.h:532
 804b1ea:	8d 45 f7             	lea    -0x9(%ebp),%eax
 804b1ed:	89 04 24             	mov    %eax,(%esp)
 804b1f0:	e8 87 01 00 00       	call   804b37c <_ZNSaISsED1Ev>
 804b1f5:	89 f0                	mov    %esi,%eax
 804b1f7:	89 da                	mov    %ebx,%edx
 804b1f9:	89 04 24             	mov    %eax,(%esp)
 804b1fc:	e8 c3 da ff ff       	call   8048cc4 <_Unwind_Resume@plt>
/usr/include/c++/4.4/bits/stl_list.h:533
 804b201:	83 ec 04             	sub    $0x4,%esp
 804b204:	88 5c 24 0c          	mov    %bl,0xc(%esp)
 804b208:	8b 45 f0             	mov    -0x10(%ebp),%eax
 804b20b:	89 44 24 08          	mov    %eax,0x8(%esp)
 804b20f:	8b 45 ec             	mov    -0x14(%ebp),%eax
 804b212:	89 44 24 04          	mov    %eax,0x4(%esp)
 804b216:	8b 45 08             	mov    0x8(%ebp),%eax
 804b219:	89 04 24             	mov    %eax,(%esp)
 804b21c:	e8 fb 01 00 00       	call   804b41c <_ZNSt4listISsSaISsEE22_M_initialize_dispatchISt20_List_const_iteratorISsEEEvT_S5_St12__false_type>
 804b221:	eb 1b                	jmp    804b23e <_ZNSt4listISsSaISsEEC1ERKS1_+0xc0>
 804b223:	89 d3                	mov    %edx,%ebx
 804b225:	89 c6                	mov    %eax,%esi
 804b227:	8b 45 08             	mov    0x8(%ebp),%eax
 804b22a:	89 04 24             	mov    %eax,(%esp)
 804b22d:	e8 d6 fe ff ff       	call   804b108 <_ZNSt10_List_baseISsSaISsEED2Ev>
 804b232:	89 f0                	mov    %esi,%eax
 804b234:	89 da                	mov    %ebx,%edx
 804b236:	89 04 24             	mov    %eax,(%esp)
 804b239:	e8 86 da ff ff       	call   8048cc4 <_Unwind_Resume@plt>
 804b23e:	8d 65 f8             	lea    -0x8(%ebp),%esp
 804b241:	83 c4 00             	add    $0x0,%esp
 804b244:	5b                   	pop    %ebx
 804b245:	5e                   	pop    %esi
 804b246:	5d                   	pop    %ebp
 804b247:	c3                   	ret    

0804b248 <_ZNSt10_List_baseISsSaISsEEC2Ev>:
_List_base():
/usr/include/c++/4.4/bits/stl_list.h:341
 804b248:	55                   	push   %ebp
 804b249:	89 e5                	mov    %esp,%ebp
 804b24b:	83 ec 18             	sub    $0x18,%esp
/usr/include/c++/4.4/bits/stl_list.h:342
 804b24e:	8b 45 08             	mov    0x8(%ebp),%eax
 804b251:	89 04 24             	mov    %eax,(%esp)
 804b254:	e8 09 02 00 00       	call   804b462 <_ZNSt10_List_baseISsSaISsEE10_List_implC1Ev>
/usr/include/c++/4.4/bits/stl_list.h:343
 804b259:	8b 45 08             	mov    0x8(%ebp),%eax
 804b25c:	89 04 24             	mov    %eax,(%esp)
 804b25f:	e8 24 02 00 00       	call   804b488 <_ZNSt10_List_baseISsSaISsEE7_M_initEv>
 804b264:	c9                   	leave  
 804b265:	c3                   	ret    

0804b266 <_ZNSaISt10_List_nodeISsEED2Ev>:
~allocator():
/usr/include/c++/4.4/bits/allocator.h:109
 804b266:	55                   	push   %ebp
 804b267:	89 e5                	mov    %esp,%ebp
 804b269:	83 ec 18             	sub    $0x18,%esp
 804b26c:	8b 45 08             	mov    0x8(%ebp),%eax
 804b26f:	89 04 24             	mov    %eax,(%esp)
 804b272:	e8 27 02 00 00       	call   804b49e <_ZN9__gnu_cxx13new_allocatorISt10_List_nodeISsEED2Ev>
 804b277:	c9                   	leave  
 804b278:	c3                   	ret    
_ZNSaISt10_List_nodeISsEED2Ev():
 804b279:	90                   	nop

0804b27a <_ZNSaISt10_List_nodeISsEED1Ev>:
~allocator():
 804b27a:	55                   	push   %ebp
 804b27b:	89 e5                	mov    %esp,%ebp
 804b27d:	83 ec 18             	sub    $0x18,%esp
 804b280:	8b 45 08             	mov    0x8(%ebp),%eax
 804b283:	89 04 24             	mov    %eax,(%esp)
 804b286:	e8 13 02 00 00       	call   804b49e <_ZN9__gnu_cxx13new_allocatorISt10_List_nodeISsEED2Ev>
 804b28b:	c9                   	leave  
 804b28c:	c3                   	ret    
_ZNSaISt10_List_nodeISsEED1Ev():
 804b28d:	90                   	nop

0804b28e <_ZNSt10_List_baseISsSaISsEE8_M_clearEv>:
_ZNSt10_List_baseISsSaISsEE8_M_clearEv():
/usr/include/c++/4.4/bits/list.tcc:64
 804b28e:	55                   	push   %ebp
 804b28f:	89 e5                	mov    %esp,%ebp
 804b291:	56                   	push   %esi
 804b292:	53                   	push   %ebx
 804b293:	83 ec 20             	sub    $0x20,%esp
/usr/include/c++/4.4/bits/list.tcc:68
 804b296:	8b 45 08             	mov    0x8(%ebp),%eax
 804b299:	8b 00                	mov    (%eax),%eax
 804b29b:	89 45 f0             	mov    %eax,-0x10(%ebp)
/usr/include/c++/4.4/bits/list.tcc:69
 804b29e:	eb 72                	jmp    804b312 <_ZNSt10_List_baseISsSaISsEE8_M_clearEv+0x84>
/usr/include/c++/4.4/bits/list.tcc:71
 804b2a0:	8b 45 f0             	mov    -0x10(%ebp),%eax
 804b2a3:	89 45 ec             	mov    %eax,-0x14(%ebp)
/usr/include/c++/4.4/bits/list.tcc:72
 804b2a6:	8b 45 f0             	mov    -0x10(%ebp),%eax
 804b2a9:	8b 00                	mov    (%eax),%eax
 804b2ab:	89 45 f0             	mov    %eax,-0x10(%ebp)
/usr/include/c++/4.4/bits/list.tcc:76
 804b2ae:	8b 45 ec             	mov    -0x14(%ebp),%eax
 804b2b1:	8d 58 08             	lea    0x8(%eax),%ebx
 804b2b4:	8d 45 f7             	lea    -0x9(%ebp),%eax
 804b2b7:	8b 55 08             	mov    0x8(%ebp),%edx
 804b2ba:	89 54 24 04          	mov    %edx,0x4(%esp)
 804b2be:	89 04 24             	mov    %eax,(%esp)
 804b2c1:	e8 de 01 00 00       	call   804b4a4 <_ZNKSt10_List_baseISsSaISsEE19_M_get_Tp_allocatorEv>
 804b2c6:	83 ec 04             	sub    $0x4,%esp
 804b2c9:	8d 45 f7             	lea    -0x9(%ebp),%eax
 804b2cc:	89 5c 24 04          	mov    %ebx,0x4(%esp)
 804b2d0:	89 04 24             	mov    %eax,(%esp)
 804b2d3:	e8 fe 01 00 00       	call   804b4d6 <_ZN9__gnu_cxx13new_allocatorISsE7destroyEPSs>
 804b2d8:	8d 45 f7             	lea    -0x9(%ebp),%eax
 804b2db:	89 04 24             	mov    %eax,(%esp)
 804b2de:	e8 99 00 00 00       	call   804b37c <_ZNSaISsED1Ev>
/usr/include/c++/4.4/bits/list.tcc:78
 804b2e3:	8b 45 ec             	mov    -0x14(%ebp),%eax
 804b2e6:	89 44 24 04          	mov    %eax,0x4(%esp)
 804b2ea:	8b 45 08             	mov    0x8(%ebp),%eax
 804b2ed:	89 04 24             	mov    %eax,(%esp)
 804b2f0:	e8 f5 01 00 00       	call   804b4ea <_ZNSt10_List_baseISsSaISsEE11_M_put_nodeEPSt10_List_nodeISsE>
 804b2f5:	eb 1b                	jmp    804b312 <_ZNSt10_List_baseISsSaISsEE8_M_clearEv+0x84>
 804b2f7:	89 d3                	mov    %edx,%ebx
 804b2f9:	89 c6                	mov    %eax,%esi
/usr/include/c++/4.4/bits/list.tcc:76
 804b2fb:	8d 45 f7             	lea    -0x9(%ebp),%eax
 804b2fe:	89 04 24             	mov    %eax,(%esp)
 804b301:	e8 76 00 00 00       	call   804b37c <_ZNSaISsED1Ev>
 804b306:	89 f0                	mov    %esi,%eax
 804b308:	89 da                	mov    %ebx,%edx
 804b30a:	89 04 24             	mov    %eax,(%esp)
 804b30d:	e8 b2 d9 ff ff       	call   8048cc4 <_Unwind_Resume@plt>
/usr/include/c++/4.4/bits/list.tcc:69
 804b312:	8b 55 08             	mov    0x8(%ebp),%edx
 804b315:	8b 45 f0             	mov    -0x10(%ebp),%eax
 804b318:	39 c2                	cmp    %eax,%edx
 804b31a:	0f 95 c0             	setne  %al
 804b31d:	84 c0                	test   %al,%al
 804b31f:	0f 85 7b ff ff ff    	jne    804b2a0 <_ZNSt10_List_baseISsSaISsEE8_M_clearEv+0x12>
/usr/include/c++/4.4/bits/list.tcc:80
 804b325:	8d 65 f8             	lea    -0x8(%ebp),%esp
 804b328:	83 c4 00             	add    $0x0,%esp
 804b32b:	5b                   	pop    %ebx
 804b32c:	5e                   	pop    %esi
 804b32d:	5d                   	pop    %ebp
 804b32e:	c3                   	ret    
 804b32f:	90                   	nop

0804b330 <_ZNSt4listISsSaISsEE9_M_insertESt14_List_iteratorISsERKSs>:
_ZNSt4listISsSaISsEE9_M_insertESt14_List_iteratorISsERKSs():
/usr/include/c++/4.4/bits/stl_list.h:1405
 804b330:	55                   	push   %ebp
 804b331:	89 e5                	mov    %esp,%ebp
 804b333:	83 ec 28             	sub    $0x28,%esp
/usr/include/c++/4.4/bits/stl_list.h:1407
 804b336:	8b 45 10             	mov    0x10(%ebp),%eax
 804b339:	89 44 24 04          	mov    %eax,0x4(%esp)
 804b33d:	8b 45 08             	mov    0x8(%ebp),%eax
 804b340:	89 04 24             	mov    %eax,(%esp)
 804b343:	e8 c4 01 00 00       	call   804b50c <_ZNSt4listISsSaISsEE14_M_create_nodeERKSs>
 804b348:	89 45 f4             	mov    %eax,-0xc(%ebp)
/usr/include/c++/4.4/bits/stl_list.h:1408
 804b34b:	8b 55 0c             	mov    0xc(%ebp),%edx
 804b34e:	8b 45 f4             	mov    -0xc(%ebp),%eax
 804b351:	89 54 24 04          	mov    %edx,0x4(%esp)
 804b355:	89 04 24             	mov    %eax,(%esp)
 804b358:	e8 37 d9 ff ff       	call   8048c94 <_ZNSt15_List_node_base4hookEPS_@plt>
/usr/include/c++/4.4/bits/stl_list.h:1409
 804b35d:	c9                   	leave  
 804b35e:	c3                   	ret    
 804b35f:	90                   	nop

0804b360 <_ZNKSt10_List_baseISsSaISsEE21_M_get_Node_allocatorEv>:
_ZNKSt10_List_baseISsSaISsEE21_M_get_Node_allocatorEv():
/usr/include/c++/4.4/bits/stl_list.h:330
 804b360:	55                   	push   %ebp
 804b361:	89 e5                	mov    %esp,%ebp
/usr/include/c++/4.4/bits/stl_list.h:331
 804b363:	8b 45 08             	mov    0x8(%ebp),%eax
 804b366:	5d                   	pop    %ebp
 804b367:	c3                   	ret    

0804b368 <_ZNSaISsEC1ISt10_List_nodeISsEEERKSaIT_E>:
allocator<std::_List_node<std::basic_string<char, std::char_traits<char>, std::allocator<char> > > >():
/usr/include/c++/4.4/bits/allocator.h:107
 804b368:	55                   	push   %ebp
 804b369:	89 e5                	mov    %esp,%ebp
 804b36b:	83 ec 18             	sub    $0x18,%esp
 804b36e:	8b 45 08             	mov    0x8(%ebp),%eax
 804b371:	89 04 24             	mov    %eax,(%esp)
 804b374:	e8 39 02 00 00       	call   804b5b2 <_ZN9__gnu_cxx13new_allocatorISsEC2Ev>
 804b379:	c9                   	leave  
 804b37a:	c3                   	ret    
_ZNSaISsEC1ISt10_List_nodeISsEEERKSaIT_E():
 804b37b:	90                   	nop

0804b37c <_ZNSaISsED1Ev>:
~allocator():
/usr/include/c++/4.4/bits/allocator.h:109
 804b37c:	55                   	push   %ebp
 804b37d:	89 e5                	mov    %esp,%ebp
 804b37f:	83 ec 18             	sub    $0x18,%esp
 804b382:	8b 45 08             	mov    0x8(%ebp),%eax
 804b385:	89 04 24             	mov    %eax,(%esp)
 804b388:	e8 2b 02 00 00       	call   804b5b8 <_ZN9__gnu_cxx13new_allocatorISsED2Ev>
 804b38d:	c9                   	leave  
 804b38e:	c3                   	ret    
_ZNSaISsED1Ev():
 804b38f:	90                   	nop

0804b390 <_ZNSt10_List_baseISsSaISsEEC2ERKS0_>:
_List_base():
/usr/include/c++/4.4/bits/stl_list.h:345
 804b390:	55                   	push   %ebp
 804b391:	89 e5                	mov    %esp,%ebp
 804b393:	83 ec 28             	sub    $0x28,%esp
/usr/include/c++/4.4/bits/stl_list.h:346
 804b396:	8b 45 0c             	mov    0xc(%ebp),%eax
 804b399:	89 44 24 04          	mov    %eax,0x4(%esp)
 804b39d:	8d 45 f7             	lea    -0x9(%ebp),%eax
 804b3a0:	89 04 24             	mov    %eax,(%esp)
 804b3a3:	e8 16 02 00 00       	call   804b5be <_ZNSaISt10_List_nodeISsEEC1ISsEERKSaIT_E>
 804b3a8:	8b 45 08             	mov    0x8(%ebp),%eax
 804b3ab:	8d 55 f7             	lea    -0x9(%ebp),%edx
 804b3ae:	89 54 24 04          	mov    %edx,0x4(%esp)
 804b3b2:	89 04 24             	mov    %eax,(%esp)
 804b3b5:	e8 18 02 00 00       	call   804b5d2 <_ZNSt10_List_baseISsSaISsEE10_List_implC1ERKSaISt10_List_nodeISsEE>
 804b3ba:	8d 45 f7             	lea    -0x9(%ebp),%eax
 804b3bd:	89 04 24             	mov    %eax,(%esp)
 804b3c0:	e8 b5 fe ff ff       	call   804b27a <_ZNSaISt10_List_nodeISsEED1Ev>
/usr/include/c++/4.4/bits/stl_list.h:347
 804b3c5:	8b 45 08             	mov    0x8(%ebp),%eax
 804b3c8:	89 04 24             	mov    %eax,(%esp)
 804b3cb:	e8 b8 00 00 00       	call   804b488 <_ZNSt10_List_baseISsSaISsEE7_M_initEv>
 804b3d0:	c9                   	leave  
 804b3d1:	c3                   	ret    

0804b3d2 <_ZNKSt4listISsSaISsEE5beginEv>:
_ZNKSt4listISsSaISsEE5beginEv():
/usr/include/c++/4.4/bits/stl_list.h:698
 804b3d2:	55                   	push   %ebp
 804b3d3:	89 e5                	mov    %esp,%ebp
 804b3d5:	53                   	push   %ebx
 804b3d6:	83 ec 14             	sub    $0x14,%esp
 804b3d9:	8b 5d 08             	mov    0x8(%ebp),%ebx
/usr/include/c++/4.4/bits/stl_list.h:699
 804b3dc:	8b 45 0c             	mov    0xc(%ebp),%eax
 804b3df:	8b 00                	mov    (%eax),%eax
 804b3e1:	89 44 24 04          	mov    %eax,0x4(%esp)
 804b3e5:	89 1c 24             	mov    %ebx,(%esp)
 804b3e8:	e8 13 02 00 00       	call   804b600 <_ZNSt20_List_const_iteratorISsEC1EPKSt15_List_node_base>
 804b3ed:	89 d8                	mov    %ebx,%eax
 804b3ef:	83 c4 14             	add    $0x14,%esp
 804b3f2:	5b                   	pop    %ebx
 804b3f3:	5d                   	pop    %ebp
 804b3f4:	c2 04 00             	ret    $0x4
 804b3f7:	90                   	nop

0804b3f8 <_ZNKSt4listISsSaISsEE3endEv>:
_ZNKSt4listISsSaISsEE3endEv():
/usr/include/c++/4.4/bits/stl_list.h:716
 804b3f8:	55                   	push   %ebp
 804b3f9:	89 e5                	mov    %esp,%ebp
 804b3fb:	53                   	push   %ebx
 804b3fc:	83 ec 14             	sub    $0x14,%esp
 804b3ff:	8b 5d 08             	mov    0x8(%ebp),%ebx
/usr/include/c++/4.4/bits/stl_list.h:717
 804b402:	8b 45 0c             	mov    0xc(%ebp),%eax
 804b405:	89 44 24 04          	mov    %eax,0x4(%esp)
 804b409:	89 1c 24             	mov    %ebx,(%esp)
 804b40c:	e8 ef 01 00 00       	call   804b600 <_ZNSt20_List_const_iteratorISsEC1EPKSt15_List_node_base>
 804b411:	89 d8                	mov    %ebx,%eax
 804b413:	83 c4 14             	add    $0x14,%esp
 804b416:	5b                   	pop    %ebx
 804b417:	5d                   	pop    %ebp
 804b418:	c2 04 00             	ret    $0x4
 804b41b:	90                   	nop

0804b41c <_ZNSt4listISsSaISsEE22_M_initialize_dispatchISt20_List_const_iteratorISsEEEvT_S5_St12__false_type>:
_ZNSt4listISsSaISsEE22_M_initialize_dispatchISt20_List_const_iteratorISsEEEvT_S5_St12__false_type():
/usr/include/c++/4.4/bits/stl_list.h:1357
 804b41c:	55                   	push   %ebp
 804b41d:	89 e5                	mov    %esp,%ebp
 804b41f:	83 ec 18             	sub    $0x18,%esp
/usr/include/c++/4.4/bits/stl_list.h:1360
 804b422:	eb 25                	jmp    804b449 <_ZNSt4listISsSaISsEE22_M_initialize_dispatchISt20_List_const_iteratorISsEEEvT_S5_St12__false_type+0x2d>
/usr/include/c++/4.4/bits/stl_list.h:1361
 804b424:	8d 45 0c             	lea    0xc(%ebp),%eax
 804b427:	89 04 24             	mov    %eax,(%esp)
 804b42a:	e8 07 02 00 00       	call   804b636 <_ZNKSt20_List_const_iteratorISsEdeEv>
 804b42f:	89 44 24 04          	mov    %eax,0x4(%esp)
 804b433:	8b 45 08             	mov    0x8(%ebp),%eax
 804b436:	89 04 24             	mov    %eax,(%esp)
 804b439:	e8 0a fd ff ff       	call   804b148 <_ZNSt4listISsSaISsEE9push_backERKSs>
/usr/include/c++/4.4/bits/stl_list.h:1360
 804b43e:	8d 45 0c             	lea    0xc(%ebp),%eax
 804b441:	89 04 24             	mov    %eax,(%esp)
 804b444:	e8 d9 01 00 00       	call   804b622 <_ZNSt20_List_const_iteratorISsEppEv>
 804b449:	8d 45 10             	lea    0x10(%ebp),%eax
 804b44c:	89 44 24 04          	mov    %eax,0x4(%esp)
 804b450:	8d 45 0c             	lea    0xc(%ebp),%eax
 804b453:	89 04 24             	mov    %eax,(%esp)
 804b456:	e8 b3 01 00 00       	call   804b60e <_ZNKSt20_List_const_iteratorISsEneERKS0_>
 804b45b:	84 c0                	test   %al,%al
 804b45d:	75 c5                	jne    804b424 <_ZNSt4listISsSaISsEE22_M_initialize_dispatchISt20_List_const_iteratorISsEEEvT_S5_St12__false_type+0x8>
/usr/include/c++/4.4/bits/stl_list.h:1362
 804b45f:	c9                   	leave  
 804b460:	c3                   	ret    
 804b461:	90                   	nop

0804b462 <_ZNSt10_List_baseISsSaISsEE10_List_implC1Ev>:
_List_impl():
/usr/include/c++/4.4/bits/stl_list.h:303
 804b462:	55                   	push   %ebp
 804b463:	89 e5                	mov    %esp,%ebp
 804b465:	83 ec 18             	sub    $0x18,%esp
/usr/include/c++/4.4/bits/stl_list.h:304
 804b468:	8b 45 08             	mov    0x8(%ebp),%eax
 804b46b:	89 04 24             	mov    %eax,(%esp)
 804b46e:	e8 d1 01 00 00       	call   804b644 <_ZNSaISt10_List_nodeISsEEC2Ev>
 804b473:	8b 45 08             	mov    0x8(%ebp),%eax
 804b476:	c7 00 00 00 00 00    	movl   $0x0,(%eax)
 804b47c:	8b 45 08             	mov    0x8(%ebp),%eax
 804b47f:	c7 40 04 00 00 00 00 	movl   $0x0,0x4(%eax)
/usr/include/c++/4.4/bits/stl_list.h:305
 804b486:	c9                   	leave  
 804b487:	c3                   	ret    

0804b488 <_ZNSt10_List_baseISsSaISsEE7_M_initEv>:
_ZNSt10_List_baseISsSaISsEE7_M_initEv():
/usr/include/c++/4.4/bits/stl_list.h:366
 804b488:	55                   	push   %ebp
 804b489:	89 e5                	mov    %esp,%ebp
/usr/include/c++/4.4/bits/stl_list.h:368
 804b48b:	8b 55 08             	mov    0x8(%ebp),%edx
 804b48e:	8b 45 08             	mov    0x8(%ebp),%eax
 804b491:	89 10                	mov    %edx,(%eax)
/usr/include/c++/4.4/bits/stl_list.h:369
 804b493:	8b 55 08             	mov    0x8(%ebp),%edx
 804b496:	8b 45 08             	mov    0x8(%ebp),%eax
 804b499:	89 50 04             	mov    %edx,0x4(%eax)
/usr/include/c++/4.4/bits/stl_list.h:370
 804b49c:	5d                   	pop    %ebp
 804b49d:	c3                   	ret    

0804b49e <_ZN9__gnu_cxx13new_allocatorISt10_List_nodeISsEED2Ev>:
~new_allocator():
/usr/include/c++/4.4/ext/new_allocator.h:73
 804b49e:	55                   	push   %ebp
 804b49f:	89 e5                	mov    %esp,%ebp
 804b4a1:	5d                   	pop    %ebp
 804b4a2:	c3                   	ret    
_ZN9__gnu_cxx13new_allocatorISt10_List_nodeISsEED2Ev():
 804b4a3:	90                   	nop

0804b4a4 <_ZNKSt10_List_baseISsSaISsEE19_M_get_Tp_allocatorEv>:
_ZNKSt10_List_baseISsSaISsEE19_M_get_Tp_allocatorEv():
/usr/include/c++/4.4/bits/stl_list.h:334
 804b4a4:	55                   	push   %ebp
 804b4a5:	89 e5                	mov    %esp,%ebp
 804b4a7:	56                   	push   %esi
 804b4a8:	53                   	push   %ebx
 804b4a9:	83 ec 10             	sub    $0x10,%esp
 804b4ac:	8b 5d 08             	mov    0x8(%ebp),%ebx
/usr/include/c++/4.4/bits/stl_list.h:335
 804b4af:	89 de                	mov    %ebx,%esi
 804b4b1:	8b 45 0c             	mov    0xc(%ebp),%eax
 804b4b4:	89 04 24             	mov    %eax,(%esp)
 804b4b7:	e8 a4 fe ff ff       	call   804b360 <_ZNKSt10_List_baseISsSaISsEE21_M_get_Node_allocatorEv>
 804b4bc:	89 44 24 04          	mov    %eax,0x4(%esp)
 804b4c0:	89 34 24             	mov    %esi,(%esp)
 804b4c3:	e8 a0 fe ff ff       	call   804b368 <_ZNSaISsEC1ISt10_List_nodeISsEEERKSaIT_E>
 804b4c8:	89 d8                	mov    %ebx,%eax
 804b4ca:	89 d8                	mov    %ebx,%eax
 804b4cc:	83 c4 10             	add    $0x10,%esp
 804b4cf:	5b                   	pop    %ebx
 804b4d0:	5e                   	pop    %esi
 804b4d1:	5d                   	pop    %ebp
 804b4d2:	c2 04 00             	ret    $0x4
 804b4d5:	90                   	nop

0804b4d6 <_ZN9__gnu_cxx13new_allocatorISsE7destroyEPSs>:
_ZN9__gnu_cxx13new_allocatorISsE7destroyEPSs():
/usr/include/c++/4.4/ext/new_allocator.h:115
 804b4d6:	55                   	push   %ebp
 804b4d7:	89 e5                	mov    %esp,%ebp
 804b4d9:	83 ec 18             	sub    $0x18,%esp
 804b4dc:	8b 45 0c             	mov    0xc(%ebp),%eax
 804b4df:	89 04 24             	mov    %eax,(%esp)
 804b4e2:	e8 dd d6 ff ff       	call   8048bc4 <_ZNSsD1Ev@plt>
 804b4e7:	c9                   	leave  
 804b4e8:	c3                   	ret    
 804b4e9:	90                   	nop

0804b4ea <_ZNSt10_List_baseISsSaISsEE11_M_put_nodeEPSt10_List_nodeISsE>:
_ZNSt10_List_baseISsSaISsEE11_M_put_nodeEPSt10_List_nodeISsE():
/usr/include/c++/4.4/bits/stl_list.h:319
 804b4ea:	55                   	push   %ebp
 804b4eb:	89 e5                	mov    %esp,%ebp
 804b4ed:	83 ec 18             	sub    $0x18,%esp
/usr/include/c++/4.4/bits/stl_list.h:320
 804b4f0:	8b 45 08             	mov    0x8(%ebp),%eax
 804b4f3:	c7 44 24 08 01 00 00 	movl   $0x1,0x8(%esp)
 804b4fa:	00 
 804b4fb:	8b 55 0c             	mov    0xc(%ebp),%edx
 804b4fe:	89 54 24 04          	mov    %edx,0x4(%esp)
 804b502:	89 04 24             	mov    %eax,(%esp)
