
/home/alberto/BCT/workspace_case_studies/find_a_ok/findutils_V1/find/find:     file format elf32-i386


Disassembly of section .init:

08049148 <_init>:
_init():
 8049148:	53                   	push   %ebx
 8049149:	83 ec 08             	sub    $0x8,%esp
 804914c:	e8 00 00 00 00       	call   8049151 <_init+0x9>
 8049151:	5b                   	pop    %ebx
 8049152:	81 c3 a3 5e 01 00    	add    $0x15ea3,%ebx
 8049158:	8b 83 f8 ff ff ff    	mov    -0x8(%ebx),%eax
 804915e:	85 c0                	test   %eax,%eax
 8049160:	74 05                	je     8049167 <_init+0x1f>
 8049162:	e8 69 03 00 00       	call   80494d0 <__gmon_start__@plt>
 8049167:	e8 14 07 00 00       	call   8049880 <frame_dummy>
 804916c:	e8 bf ec 00 00       	call   8057e30 <__do_global_ctors_aux>
 8049171:	83 c4 08             	add    $0x8,%esp
 8049174:	5b                   	pop    %ebx
 8049175:	c3                   	ret    

Disassembly of section .plt:

08049180 <getpwnam@plt-0x10>:
 8049180:	ff 35 f8 ef 05 08    	pushl  0x805eff8
 8049186:	ff 25 fc ef 05 08    	jmp    *0x805effc
 804918c:	00 00                	add    %al,(%eax)
	...

08049190 <getpwnam@plt>:
 8049190:	ff 25 00 f0 05 08    	jmp    *0x805f000
 8049196:	68 00 00 00 00       	push   $0x0
 804919b:	e9 e0 ff ff ff       	jmp    8049180 <_init+0x38>

080491a0 <endgrent@plt>:
 80491a0:	ff 25 04 f0 05 08    	jmp    *0x805f004
 80491a6:	68 08 00 00 00       	push   $0x8
 80491ab:	e9 d0 ff ff ff       	jmp    8049180 <_init+0x38>

080491b0 <strstr@plt>:
 80491b0:	ff 25 08 f0 05 08    	jmp    *0x805f008
 80491b6:	68 10 00 00 00       	push   $0x10
 80491bb:	e9 c0 ff ff ff       	jmp    8049180 <_init+0x38>

080491c0 <strcmp@plt>:
 80491c0:	ff 25 0c f0 05 08    	jmp    *0x805f00c
 80491c6:	68 18 00 00 00       	push   $0x18
 80491cb:	e9 b0 ff ff ff       	jmp    8049180 <_init+0x38>

080491d0 <open64@plt>:
 80491d0:	ff 25 10 f0 05 08    	jmp    *0x805f010
 80491d6:	68 20 00 00 00       	push   $0x20
 80491db:	e9 a0 ff ff ff       	jmp    8049180 <_init+0x38>

080491e0 <getpwuid@plt>:
 80491e0:	ff 25 14 f0 05 08    	jmp    *0x805f014
 80491e6:	68 28 00 00 00       	push   $0x28
 80491eb:	e9 90 ff ff ff       	jmp    8049180 <_init+0x38>

080491f0 <printf@plt>:
 80491f0:	ff 25 18 f0 05 08    	jmp    *0x805f018
 80491f6:	68 30 00 00 00       	push   $0x30
 80491fb:	e9 80 ff ff ff       	jmp    8049180 <_init+0x38>

08049200 <fflush@plt>:
 8049200:	ff 25 1c f0 05 08    	jmp    *0x805f01c
 8049206:	68 38 00 00 00       	push   $0x38
 804920b:	e9 70 ff ff ff       	jmp    8049180 <_init+0x38>

08049210 <_exit@plt>:
 8049210:	ff 25 20 f0 05 08    	jmp    *0x805f020
 8049216:	68 40 00 00 00       	push   $0x40
 804921b:	e9 60 ff ff ff       	jmp    8049180 <_init+0x38>

08049220 <memmove@plt>:
 8049220:	ff 25 24 f0 05 08    	jmp    *0x805f024
 8049226:	68 48 00 00 00       	push   $0x48
 804922b:	e9 50 ff ff ff       	jmp    8049180 <_init+0x38>

08049230 <free@plt>:
 8049230:	ff 25 28 f0 05 08    	jmp    *0x805f028
 8049236:	68 50 00 00 00       	push   $0x50
 804923b:	e9 40 ff ff ff       	jmp    8049180 <_init+0x38>

08049240 <strdup@plt>:
 8049240:	ff 25 2c f0 05 08    	jmp    *0x805f02c
 8049246:	68 58 00 00 00       	push   $0x58
 804924b:	e9 30 ff ff ff       	jmp    8049180 <_init+0x38>

08049250 <memcpy@plt>:
 8049250:	ff 25 30 f0 05 08    	jmp    *0x805f030
 8049256:	68 60 00 00 00       	push   $0x60
 804925b:	e9 20 ff ff ff       	jmp    8049180 <_init+0x38>

08049260 <mbsinit@plt>:
 8049260:	ff 25 34 f0 05 08    	jmp    *0x805f034
 8049266:	68 68 00 00 00       	push   $0x68
 804926b:	e9 10 ff ff ff       	jmp    8049180 <_init+0x38>

08049270 <ferror@plt>:
 8049270:	ff 25 38 f0 05 08    	jmp    *0x805f038
 8049276:	68 70 00 00 00       	push   $0x70
 804927b:	e9 00 ff ff ff       	jmp    8049180 <_init+0x38>

08049280 <__strtoull_internal@plt>:
 8049280:	ff 25 3c f0 05 08    	jmp    *0x805f03c
 8049286:	68 78 00 00 00       	push   $0x78
 804928b:	e9 f0 fe ff ff       	jmp    8049180 <_init+0x38>

08049290 <fclose@plt>:
 8049290:	ff 25 40 f0 05 08    	jmp    *0x805f040
 8049296:	68 80 00 00 00       	push   $0x80
 804929b:	e9 e0 fe ff ff       	jmp    8049180 <_init+0x38>

080492a0 <time@plt>:
 80492a0:	ff 25 44 f0 05 08    	jmp    *0x805f044
 80492a6:	68 88 00 00 00       	push   $0x88
 80492ab:	e9 d0 fe ff ff       	jmp    8049180 <_init+0x38>

080492b0 <signal@plt>:
 80492b0:	ff 25 48 f0 05 08    	jmp    *0x805f048
 80492b6:	68 90 00 00 00       	push   $0x90
 80492bb:	e9 c0 fe ff ff       	jmp    8049180 <_init+0x38>

080492c0 <memcmp@plt>:
 80492c0:	ff 25 4c f0 05 08    	jmp    *0x805f04c
 80492c6:	68 98 00 00 00       	push   $0x98
 80492cb:	e9 b0 fe ff ff       	jmp    8049180 <_init+0x38>

080492d0 <chdir@plt>:
 80492d0:	ff 25 50 f0 05 08    	jmp    *0x805f050
 80492d6:	68 a0 00 00 00       	push   $0xa0
 80492db:	e9 a0 fe ff ff       	jmp    8049180 <_init+0x38>

080492e0 <ctime@plt>:
 80492e0:	ff 25 54 f0 05 08    	jmp    *0x805f054
 80492e6:	68 a8 00 00 00       	push   $0xa8
 80492eb:	e9 90 fe ff ff       	jmp    8049180 <_init+0x38>

080492f0 <dcgettext@plt>:
 80492f0:	ff 25 58 f0 05 08    	jmp    *0x805f058
 80492f6:	68 b0 00 00 00       	push   $0xb0
 80492fb:	e9 80 fe ff ff       	jmp    8049180 <_init+0x38>

08049300 <uname@plt>:
 8049300:	ff 25 5c f0 05 08    	jmp    *0x805f05c
 8049306:	68 b8 00 00 00       	push   $0xb8
 804930b:	e9 70 fe ff ff       	jmp    8049180 <_init+0x38>

08049310 <__stack_chk_fail@plt>:
 8049310:	ff 25 60 f0 05 08    	jmp    *0x805f060
 8049316:	68 c0 00 00 00       	push   $0xc0
 804931b:	e9 60 fe ff ff       	jmp    8049180 <_init+0x38>

08049320 <sysconf@plt>:
 8049320:	ff 25 64 f0 05 08    	jmp    *0x805f064
 8049326:	68 c8 00 00 00       	push   $0xc8
 804932b:	e9 50 fe ff ff       	jmp    8049180 <_init+0x38>

08049330 <_IO_getc@plt>:
 8049330:	ff 25 68 f0 05 08    	jmp    *0x805f068
 8049336:	68 d0 00 00 00       	push   $0xd0
 804933b:	e9 40 fe ff ff       	jmp    8049180 <_init+0x38>

08049340 <textdomain@plt>:
 8049340:	ff 25 6c f0 05 08    	jmp    *0x805f06c
 8049346:	68 d8 00 00 00       	push   $0xd8
 804934b:	e9 30 fe ff ff       	jmp    8049180 <_init+0x38>

08049350 <execvp@plt>:
 8049350:	ff 25 70 f0 05 08    	jmp    *0x805f070
 8049356:	68 e0 00 00 00       	push   $0xe0
 804935b:	e9 20 fe ff ff       	jmp    8049180 <_init+0x38>

08049360 <_IO_putc@plt>:
 8049360:	ff 25 74 f0 05 08    	jmp    *0x805f074
 8049366:	68 e8 00 00 00       	push   $0xe8
 804936b:	e9 10 fe ff ff       	jmp    8049180 <_init+0x38>

08049370 <readlink@plt>:
 8049370:	ff 25 78 f0 05 08    	jmp    *0x805f078
 8049376:	68 f0 00 00 00       	push   $0xf0
 804937b:	e9 00 fe ff ff       	jmp    8049180 <_init+0x38>

08049380 <__fxstatat64@plt>:
 8049380:	ff 25 7c f0 05 08    	jmp    *0x805f07c
 8049386:	68 f8 00 00 00       	push   $0xf8
 804938b:	e9 f0 fd ff ff       	jmp    8049180 <_init+0x38>

08049390 <fnmatch@plt>:
 8049390:	ff 25 80 f0 05 08    	jmp    *0x805f080
 8049396:	68 00 01 00 00       	push   $0x100
 804939b:	e9 e0 fd ff ff       	jmp    8049180 <_init+0x38>

080493a0 <iswprint@plt>:
 80493a0:	ff 25 84 f0 05 08    	jmp    *0x805f084
 80493a6:	68 08 01 00 00       	push   $0x108
 80493ab:	e9 d0 fd ff ff       	jmp    8049180 <_init+0x38>

080493b0 <fopen64@plt>:
 80493b0:	ff 25 88 f0 05 08    	jmp    *0x805f088
 80493b6:	68 10 01 00 00       	push   $0x110
 80493bb:	e9 c0 fd ff ff       	jmp    8049180 <_init+0x38>

080493c0 <fwrite@plt>:
 80493c0:	ff 25 8c f0 05 08    	jmp    *0x805f08c
 80493c6:	68 18 01 00 00       	push   $0x118
 80493cb:	e9 b0 fd ff ff       	jmp    8049180 <_init+0x38>

080493d0 <__fxstat64@plt>:
 80493d0:	ff 25 90 f0 05 08    	jmp    *0x805f090
 80493d6:	68 20 01 00 00       	push   $0x120
 80493db:	e9 a0 fd ff ff       	jmp    8049180 <_init+0x38>

080493e0 <__ctype_get_mb_cur_max@plt>:
 80493e0:	ff 25 94 f0 05 08    	jmp    *0x805f094
 80493e6:	68 28 01 00 00       	push   $0x128
 80493eb:	e9 90 fd ff ff       	jmp    8049180 <_init+0x38>

080493f0 <waitpid@plt>:
 80493f0:	ff 25 98 f0 05 08    	jmp    *0x805f098
 80493f6:	68 30 01 00 00       	push   $0x130
 80493fb:	e9 80 fd ff ff       	jmp    8049180 <_init+0x38>

08049400 <strcpy@plt>:
 8049400:	ff 25 9c f0 05 08    	jmp    *0x805f09c
 8049406:	68 38 01 00 00       	push   $0x138
 804940b:	e9 70 fd ff ff       	jmp    8049180 <_init+0x38>

08049410 <__fpending@plt>:
 8049410:	ff 25 a0 f0 05 08    	jmp    *0x805f0a0
 8049416:	68 40 01 00 00       	push   $0x140
 804941b:	e9 60 fd ff ff       	jmp    8049180 <_init+0x38>

08049420 <getmntent@plt>:
 8049420:	ff 25 a4 f0 05 08    	jmp    *0x805f0a4
 8049426:	68 48 01 00 00       	push   $0x148
 804942b:	e9 50 fd ff ff       	jmp    8049180 <_init+0x38>

08049430 <mbrtowc@plt>:
 8049430:	ff 25 a8 f0 05 08    	jmp    *0x805f0a8
 8049436:	68 50 01 00 00       	push   $0x150
 804943b:	e9 40 fd ff ff       	jmp    8049180 <_init+0x38>

08049440 <__cxa_atexit@plt>:
 8049440:	ff 25 ac f0 05 08    	jmp    *0x805f0ac
 8049446:	68 58 01 00 00       	push   $0x158
 804944b:	e9 30 fd ff ff       	jmp    8049180 <_init+0x38>

08049450 <setmntent@plt>:
 8049450:	ff 25 b0 f0 05 08    	jmp    *0x805f0b0
 8049456:	68 60 01 00 00       	push   $0x160
 804945b:	e9 20 fd ff ff       	jmp    8049180 <_init+0x38>

08049460 <error@plt>:
 8049460:	ff 25 b4 f0 05 08    	jmp    *0x805f0b4
 8049466:	68 68 01 00 00       	push   $0x168
 804946b:	e9 10 fd ff ff       	jmp    8049180 <_init+0x38>

08049470 <getenv@plt>:
 8049470:	ff 25 b8 f0 05 08    	jmp    *0x805f0b8
 8049476:	68 70 01 00 00       	push   $0x170
 804947b:	e9 00 fd ff ff       	jmp    8049180 <_init+0x38>

08049480 <realloc@plt>:
 8049480:	ff 25 bc f0 05 08    	jmp    *0x805f0bc
 8049486:	68 78 01 00 00       	push   $0x178
 804948b:	e9 f0 fc ff ff       	jmp    8049180 <_init+0x38>

08049490 <malloc@plt>:
 8049490:	ff 25 c0 f0 05 08    	jmp    *0x805f0c0
 8049496:	68 80 01 00 00       	push   $0x180
 804949b:	e9 e0 fc ff ff       	jmp    8049180 <_init+0x38>

080494a0 <re_match@plt>:
 80494a0:	ff 25 c4 f0 05 08    	jmp    *0x805f0c4
 80494a6:	68 88 01 00 00       	push   $0x188
 80494ab:	e9 d0 fc ff ff       	jmp    8049180 <_init+0x38>

080494b0 <puts@plt>:
 80494b0:	ff 25 c8 f0 05 08    	jmp    *0x805f0c8
 80494b6:	68 90 01 00 00       	push   $0x190
 80494bb:	e9 c0 fc ff ff       	jmp    8049180 <_init+0x38>

080494c0 <__memcpy_chk@plt>:
 80494c0:	ff 25 cc f0 05 08    	jmp    *0x805f0cc
 80494c6:	68 98 01 00 00       	push   $0x198
 80494cb:	e9 b0 fc ff ff       	jmp    8049180 <_init+0x38>

080494d0 <__gmon_start__@plt>:
 80494d0:	ff 25 d0 f0 05 08    	jmp    *0x805f0d0
 80494d6:	68 a0 01 00 00       	push   $0x1a0
 80494db:	e9 a0 fc ff ff       	jmp    8049180 <_init+0x38>

080494e0 <exit@plt>:
 80494e0:	ff 25 d4 f0 05 08    	jmp    *0x805f0d4
 80494e6:	68 a8 01 00 00       	push   $0x1a8
 80494eb:	e9 90 fc ff ff       	jmp    8049180 <_init+0x38>

080494f0 <gettext@plt>:
 80494f0:	ff 25 d8 f0 05 08    	jmp    *0x805f0d8
 80494f6:	68 b0 01 00 00       	push   $0x1b0
 80494fb:	e9 80 fc ff ff       	jmp    8049180 <_init+0x38>

08049500 <strftime@plt>:
 8049500:	ff 25 dc f0 05 08    	jmp    *0x805f0dc
 8049506:	68 b8 01 00 00       	push   $0x1b8
 804950b:	e9 70 fc ff ff       	jmp    8049180 <_init+0x38>

08049510 <localtime@plt>:
 8049510:	ff 25 e0 f0 05 08    	jmp    *0x805f0e0
 8049516:	68 c0 01 00 00       	push   $0x1c0
 804951b:	e9 60 fc ff ff       	jmp    8049180 <_init+0x38>

08049520 <strtoul@plt>:
 8049520:	ff 25 e4 f0 05 08    	jmp    *0x805f0e4
 8049526:	68 c8 01 00 00       	push   $0x1c8
 804952b:	e9 50 fc ff ff       	jmp    8049180 <_init+0x38>

08049530 <strchr@plt>:
 8049530:	ff 25 e8 f0 05 08    	jmp    *0x805f0e8
 8049536:	68 d0 01 00 00       	push   $0x1d0
 804953b:	e9 40 fc ff ff       	jmp    8049180 <_init+0x38>

08049540 <getcwd@plt>:
 8049540:	ff 25 ec f0 05 08    	jmp    *0x805f0ec
 8049546:	68 d8 01 00 00       	push   $0x1d8
 804954b:	e9 30 fc ff ff       	jmp    8049180 <_init+0x38>

08049550 <strlen@plt>:
 8049550:	ff 25 f0 f0 05 08    	jmp    *0x805f0f0
 8049556:	68 e0 01 00 00       	push   $0x1e0
 804955b:	e9 20 fc ff ff       	jmp    8049180 <_init+0x38>

08049560 <openat64@plt>:
 8049560:	ff 25 f4 f0 05 08    	jmp    *0x805f0f4
 8049566:	68 e8 01 00 00       	push   $0x1e8
 804956b:	e9 10 fc ff ff       	jmp    8049180 <_init+0x38>

08049570 <__libc_start_main@plt>:
 8049570:	ff 25 f8 f0 05 08    	jmp    *0x805f0f8
 8049576:	68 f0 01 00 00       	push   $0x1f0
 804957b:	e9 00 fc ff ff       	jmp    8049180 <_init+0x38>

08049580 <fprintf@plt>:
 8049580:	ff 25 fc f0 05 08    	jmp    *0x805f0fc
 8049586:	68 f8 01 00 00       	push   $0x1f8
 804958b:	e9 f0 fb ff ff       	jmp    8049180 <_init+0x38>

08049590 <memset@plt>:
 8049590:	ff 25 00 f1 05 08    	jmp    *0x805f100
 8049596:	68 00 02 00 00       	push   $0x200
 804959b:	e9 e0 fb ff ff       	jmp    8049180 <_init+0x38>

080495a0 <putchar@plt>:
 80495a0:	ff 25 04 f1 05 08    	jmp    *0x805f104
 80495a6:	68 08 02 00 00       	push   $0x208
 80495ab:	e9 d0 fb ff ff       	jmp    8049180 <_init+0x38>

080495b0 <__errno_location@plt>:
 80495b0:	ff 25 08 f1 05 08    	jmp    *0x805f108
 80495b6:	68 10 02 00 00       	push   $0x210
 80495bb:	e9 c0 fb ff ff       	jmp    8049180 <_init+0x38>

080495c0 <strncpy@plt>:
 80495c0:	ff 25 0c f1 05 08    	jmp    *0x805f10c
 80495c6:	68 18 02 00 00       	push   $0x218
 80495cb:	e9 b0 fb ff ff       	jmp    8049180 <_init+0x38>

080495d0 <endmntent@plt>:
 80495d0:	ff 25 10 f1 05 08    	jmp    *0x805f110
 80495d6:	68 20 02 00 00       	push   $0x220
 80495db:	e9 a0 fb ff ff       	jmp    8049180 <_init+0x38>

080495e0 <rpmatch@plt>:
 80495e0:	ff 25 14 f1 05 08    	jmp    *0x805f114
 80495e6:	68 28 02 00 00       	push   $0x228
 80495eb:	e9 90 fb ff ff       	jmp    8049180 <_init+0x38>

080495f0 <fork@plt>:
 80495f0:	ff 25 18 f1 05 08    	jmp    *0x805f118
 80495f6:	68 30 02 00 00       	push   $0x230
 80495fb:	e9 80 fb ff ff       	jmp    8049180 <_init+0x38>

08049600 <__rawmemchr@plt>:
 8049600:	ff 25 1c f1 05 08    	jmp    *0x805f11c
 8049606:	68 38 02 00 00       	push   $0x238
 804960b:	e9 70 fb ff ff       	jmp    8049180 <_init+0x38>

08049610 <setlocale@plt>:
 8049610:	ff 25 20 f1 05 08    	jmp    *0x805f120
 8049616:	68 40 02 00 00       	push   $0x240
 804961b:	e9 60 fb ff ff       	jmp    8049180 <_init+0x38>

08049620 <strrchr@plt>:
 8049620:	ff 25 24 f1 05 08    	jmp    *0x805f124
 8049626:	68 48 02 00 00       	push   $0x248
 804962b:	e9 50 fb ff ff       	jmp    8049180 <_init+0x38>

08049630 <endpwent@plt>:
 8049630:	ff 25 28 f1 05 08    	jmp    *0x805f128
 8049636:	68 50 02 00 00       	push   $0x250
 804963b:	e9 40 fb ff ff       	jmp    8049180 <_init+0x38>

08049640 <fdopendir@plt>:
 8049640:	ff 25 2c f1 05 08    	jmp    *0x805f12c
 8049646:	68 58 02 00 00       	push   $0x258
 804964b:	e9 30 fb ff ff       	jmp    8049180 <_init+0x38>

08049650 <fchdir@plt>:
 8049650:	ff 25 30 f1 05 08    	jmp    *0x805f130
 8049656:	68 60 02 00 00       	push   $0x260
 804965b:	e9 20 fb ff ff       	jmp    8049180 <_init+0x38>

08049660 <localeconv@plt>:
 8049660:	ff 25 34 f1 05 08    	jmp    *0x805f134
 8049666:	68 68 02 00 00       	push   $0x268
 804966b:	e9 10 fb ff ff       	jmp    8049180 <_init+0x38>

08049670 <remove@plt>:
 8049670:	ff 25 38 f1 05 08    	jmp    *0x805f138
 8049676:	68 70 02 00 00       	push   $0x270
 804967b:	e9 00 fb ff ff       	jmp    8049180 <_init+0x38>

08049680 <atoi@plt>:
 8049680:	ff 25 3c f1 05 08    	jmp    *0x805f13c
 8049686:	68 78 02 00 00       	push   $0x278
 804968b:	e9 f0 fa ff ff       	jmp    8049180 <_init+0x38>

08049690 <readdir64@plt>:
 8049690:	ff 25 40 f1 05 08    	jmp    *0x805f140
 8049696:	68 80 02 00 00       	push   $0x280
 804969b:	e9 e0 fa ff ff       	jmp    8049180 <_init+0x38>

080496a0 <re_compile_pattern@plt>:
 80496a0:	ff 25 44 f1 05 08    	jmp    *0x805f144
 80496a6:	68 88 02 00 00       	push   $0x288
 80496ab:	e9 d0 fa ff ff       	jmp    8049180 <_init+0x38>

080496b0 <__fprintf_chk@plt>:
 80496b0:	ff 25 48 f1 05 08    	jmp    *0x805f148
 80496b6:	68 90 02 00 00       	push   $0x290
 80496bb:	e9 c0 fa ff ff       	jmp    8049180 <_init+0x38>

080496c0 <atof@plt>:
 80496c0:	ff 25 4c f1 05 08    	jmp    *0x805f14c
 80496c6:	68 98 02 00 00       	push   $0x298
 80496cb:	e9 b0 fa ff ff       	jmp    8049180 <_init+0x38>

080496d0 <bindtextdomain@plt>:
 80496d0:	ff 25 50 f1 05 08    	jmp    *0x805f150
 80496d6:	68 a0 02 00 00       	push   $0x2a0
 80496db:	e9 a0 fa ff ff       	jmp    8049180 <_init+0x38>

080496e0 <strncmp@plt>:
 80496e0:	ff 25 54 f1 05 08    	jmp    *0x805f154
 80496e6:	68 a8 02 00 00       	push   $0x2a8
 80496eb:	e9 90 fa ff ff       	jmp    8049180 <_init+0x38>

080496f0 <isatty@plt>:
 80496f0:	ff 25 58 f1 05 08    	jmp    *0x805f158
 80496f6:	68 b0 02 00 00       	push   $0x2b0
 80496fb:	e9 80 fa ff ff       	jmp    8049180 <_init+0x38>

08049700 <abort@plt>:
 8049700:	ff 25 5c f1 05 08    	jmp    *0x805f15c
 8049706:	68 b8 02 00 00       	push   $0x2b8
 804970b:	e9 70 fa ff ff       	jmp    8049180 <_init+0x38>

08049710 <__xstat64@plt>:
 8049710:	ff 25 60 f1 05 08    	jmp    *0x805f160
 8049716:	68 c0 02 00 00       	push   $0x2c0
 804971b:	e9 60 fa ff ff       	jmp    8049180 <_init+0x38>

08049720 <umask@plt>:
 8049720:	ff 25 64 f1 05 08    	jmp    *0x805f164
 8049726:	68 c8 02 00 00       	push   $0x2c8
 804972b:	e9 50 fa ff ff       	jmp    8049180 <_init+0x38>

08049730 <fputs@plt>:
 8049730:	ff 25 68 f1 05 08    	jmp    *0x805f168
 8049736:	68 d0 02 00 00       	push   $0x2d0
 804973b:	e9 40 fa ff ff       	jmp    8049180 <_init+0x38>

08049740 <__lxstat64@plt>:
 8049740:	ff 25 6c f1 05 08    	jmp    *0x805f16c
 8049746:	68 d8 02 00 00       	push   $0x2d8
 804974b:	e9 30 fa ff ff       	jmp    8049180 <_init+0x38>

08049750 <getgrnam@plt>:
 8049750:	ff 25 70 f1 05 08    	jmp    *0x805f170
 8049756:	68 e0 02 00 00       	push   $0x2e0
 804975b:	e9 20 fa ff ff       	jmp    8049180 <_init+0x38>

08049760 <close@plt>:
 8049760:	ff 25 74 f1 05 08    	jmp    *0x805f174
 8049766:	68 e8 02 00 00       	push   $0x2e8
 804976b:	e9 10 fa ff ff       	jmp    8049180 <_init+0x38>

08049770 <closedir@plt>:
 8049770:	ff 25 78 f1 05 08    	jmp    *0x805f178
 8049776:	68 f0 02 00 00       	push   $0x2f0
 804977b:	e9 00 fa ff ff       	jmp    8049180 <_init+0x38>

08049780 <strspn@plt>:
 8049780:	ff 25 7c f1 05 08    	jmp    *0x805f17c
 8049786:	68 f8 02 00 00       	push   $0x2f8
 804978b:	e9 f0 f9 ff ff       	jmp    8049180 <_init+0x38>

08049790 <opendir@plt>:
 8049790:	ff 25 80 f1 05 08    	jmp    *0x805f180
 8049796:	68 00 03 00 00       	push   $0x300
 804979b:	e9 e0 f9 ff ff       	jmp    8049180 <_init+0x38>

080497a0 <getgrgid@plt>:
 80497a0:	ff 25 84 f1 05 08    	jmp    *0x805f184
 80497a6:	68 08 03 00 00       	push   $0x308
 80497ab:	e9 d0 f9 ff ff       	jmp    8049180 <_init+0x38>

080497b0 <__assert_fail@plt>:
 80497b0:	ff 25 88 f1 05 08    	jmp    *0x805f188
 80497b6:	68 10 03 00 00       	push   $0x310
 80497bb:	e9 c0 f9 ff ff       	jmp    8049180 <_init+0x38>

080497c0 <__ctype_b_loc@plt>:
 80497c0:	ff 25 8c f1 05 08    	jmp    *0x805f18c
 80497c6:	68 18 03 00 00       	push   $0x318
 80497cb:	e9 b0 f9 ff ff       	jmp    8049180 <_init+0x38>

080497d0 <calloc@plt>:
 80497d0:	ff 25 90 f1 05 08    	jmp    *0x805f190
 80497d6:	68 20 03 00 00       	push   $0x320
 80497db:	e9 a0 f9 ff ff       	jmp    8049180 <_init+0x38>

080497e0 <__sprintf_chk@plt>:
 80497e0:	ff 25 94 f1 05 08    	jmp    *0x805f194
 80497e6:	68 28 03 00 00       	push   $0x328
 80497eb:	e9 90 f9 ff ff       	jmp    8049180 <_init+0x38>

Disassembly of section .text:

080497f0 <_start>:
_start():
 80497f0:	31 ed                	xor    %ebp,%ebp
 80497f2:	5e                   	pop    %esi
 80497f3:	89 e1                	mov    %esp,%ecx
 80497f5:	83 e4 f0             	and    $0xfffffff0,%esp
 80497f8:	50                   	push   %eax
 80497f9:	54                   	push   %esp
 80497fa:	52                   	push   %edx
 80497fb:	68 80 7d 05 08       	push   $0x8057d80
 8049800:	68 10 7d 05 08       	push   $0x8057d10
 8049805:	51                   	push   %ecx
 8049806:	56                   	push   %esi
 8049807:	68 2c 9c 04 08       	push   $0x8049c2c
 804980c:	e8 5f fd ff ff       	call   8049570 <__libc_start_main@plt>
 8049811:	f4                   	hlt    
 8049812:	90                   	nop
 8049813:	90                   	nop
 8049814:	90                   	nop
 8049815:	90                   	nop
 8049816:	90                   	nop
 8049817:	90                   	nop
 8049818:	90                   	nop
 8049819:	90                   	nop
 804981a:	90                   	nop
 804981b:	90                   	nop
 804981c:	90                   	nop
 804981d:	90                   	nop
 804981e:	90                   	nop
 804981f:	90                   	nop

08049820 <__do_global_dtors_aux>:
__do_global_dtors_aux():
 8049820:	55                   	push   %ebp
 8049821:	89 e5                	mov    %esp,%ebp
 8049823:	53                   	push   %ebx
 8049824:	83 ec 04             	sub    $0x4,%esp
 8049827:	80 3d 08 f2 05 08 00 	cmpb   $0x0,0x805f208
 804982e:	75 3f                	jne    804986f <__do_global_dtors_aux+0x4f>
 8049830:	a1 0c f2 05 08       	mov    0x805f20c,%eax
 8049835:	bb 1c ef 05 08       	mov    $0x805ef1c,%ebx
 804983a:	81 eb 18 ef 05 08    	sub    $0x805ef18,%ebx
 8049840:	c1 fb 02             	sar    $0x2,%ebx
 8049843:	83 eb 01             	sub    $0x1,%ebx
 8049846:	39 d8                	cmp    %ebx,%eax
 8049848:	73 1e                	jae    8049868 <__do_global_dtors_aux+0x48>
 804984a:	8d b6 00 00 00 00    	lea    0x0(%esi),%esi
 8049850:	83 c0 01             	add    $0x1,%eax
 8049853:	a3 0c f2 05 08       	mov    %eax,0x805f20c
 8049858:	ff 14 85 18 ef 05 08 	call   *0x805ef18(,%eax,4)
 804985f:	a1 0c f2 05 08       	mov    0x805f20c,%eax
 8049864:	39 d8                	cmp    %ebx,%eax
 8049866:	72 e8                	jb     8049850 <__do_global_dtors_aux+0x30>
 8049868:	c6 05 08 f2 05 08 01 	movb   $0x1,0x805f208
 804986f:	83 c4 04             	add    $0x4,%esp
 8049872:	5b                   	pop    %ebx
 8049873:	5d                   	pop    %ebp
 8049874:	c3                   	ret    
 8049875:	8d 74 26 00          	lea    0x0(%esi,%eiz,1),%esi
 8049879:	8d bc 27 00 00 00 00 	lea    0x0(%edi,%eiz,1),%edi

08049880 <frame_dummy>:
frame_dummy():
 8049880:	55                   	push   %ebp
 8049881:	89 e5                	mov    %esp,%ebp
 8049883:	83 ec 18             	sub    $0x18,%esp
 8049886:	a1 20 ef 05 08       	mov    0x805ef20,%eax
 804988b:	85 c0                	test   %eax,%eax
 804988d:	74 12                	je     80498a1 <frame_dummy+0x21>
 804988f:	b8 00 00 00 00       	mov    $0x0,%eax
 8049894:	85 c0                	test   %eax,%eax
 8049896:	74 09                	je     80498a1 <frame_dummy+0x21>
 8049898:	c7 04 24 20 ef 05 08 	movl   $0x805ef20,(%esp)
 804989f:	ff d0                	call   *%eax
 80498a1:	c9                   	leave  
 80498a2:	c3                   	ret    
 80498a3:	90                   	nop

080498a4 <following_links>:
following_links():
 80498a4:	55                   	push   %ebp
 80498a5:	89 e5                	mov    %esp,%ebp
 80498a7:	a1 20 f7 05 08       	mov    0x805f720,%eax
 80498ac:	83 f8 01             	cmp    $0x1,%eax
 80498af:	74 07                	je     80498b8 <following_links+0x14>
 80498b1:	83 f8 02             	cmp    $0x2,%eax
 80498b4:	74 09                	je     80498bf <following_links+0x1b>
 80498b6:	eb 16                	jmp    80498ce <following_links+0x2a>
 80498b8:	b8 01 00 00 00       	mov    $0x1,%eax
 80498bd:	eb 14                	jmp    80498d3 <following_links+0x2f>
 80498bf:	a1 60 f6 05 08       	mov    0x805f660,%eax
 80498c4:	85 c0                	test   %eax,%eax
 80498c6:	0f 94 c0             	sete   %al
 80498c9:	0f b6 c0             	movzbl %al,%eax
 80498cc:	eb 05                	jmp    80498d3 <following_links+0x2f>
 80498ce:	b8 00 00 00 00       	mov    $0x0,%eax
 80498d3:	5d                   	pop    %ebp
 80498d4:	c3                   	ret    

080498d5 <fallback_stat>:
fallback_stat():
 80498d5:	55                   	push   %ebp
 80498d6:	89 e5                	mov    %esp,%ebp
 80498d8:	83 ec 18             	sub    $0x18,%esp
 80498db:	e8 d0 fc ff ff       	call   80495b0 <__errno_location@plt>
 80498e0:	8b 00                	mov    (%eax),%eax
 80498e2:	83 f8 02             	cmp    $0x2,%eax
 80498e5:	74 05                	je     80498ec <fallback_stat+0x17>
 80498e7:	83 f8 14             	cmp    $0x14,%eax
 80498ea:	75 14                	jne    8049900 <fallback_stat+0x2b>
 80498ec:	8b 45 0c             	mov    0xc(%ebp),%eax
 80498ef:	89 44 24 04          	mov    %eax,0x4(%esp)
 80498f3:	8b 45 08             	mov    0x8(%ebp),%eax
 80498f6:	89 04 24             	mov    %eax,(%esp)
 80498f9:	e8 02 e5 00 00       	call   8057e00 <lstat64>
 80498fe:	eb 03                	jmp    8049903 <fallback_stat+0x2e>
 8049900:	8b 45 10             	mov    0x10(%ebp),%eax
 8049903:	c9                   	leave  
 8049904:	c3                   	ret    

08049905 <optionh_stat>:
optionh_stat():
 8049905:	55                   	push   %ebp
 8049906:	89 e5                	mov    %esp,%ebp
 8049908:	83 ec 28             	sub    $0x28,%esp
 804990b:	a1 60 f6 05 08       	mov    0x805f660,%eax
 8049910:	85 c0                	test   %eax,%eax
 8049912:	75 3d                	jne    8049951 <optionh_stat+0x4c>
 8049914:	8b 45 0c             	mov    0xc(%ebp),%eax
 8049917:	89 44 24 04          	mov    %eax,0x4(%esp)
 804991b:	8b 45 08             	mov    0x8(%ebp),%eax
 804991e:	89 04 24             	mov    %eax,(%esp)
 8049921:	e8 aa e4 00 00       	call   8057dd0 <stat64>
 8049926:	89 45 f4             	mov    %eax,-0xc(%ebp)
 8049929:	83 7d f4 00          	cmpl   $0x0,-0xc(%ebp)
 804992d:	75 07                	jne    8049936 <optionh_stat+0x31>
 804992f:	b8 00 00 00 00       	mov    $0x0,%eax
 8049934:	eb 2d                	jmp    8049963 <optionh_stat+0x5e>
 8049936:	8b 45 f4             	mov    -0xc(%ebp),%eax
 8049939:	89 44 24 08          	mov    %eax,0x8(%esp)
 804993d:	8b 45 0c             	mov    0xc(%ebp),%eax
 8049940:	89 44 24 04          	mov    %eax,0x4(%esp)
 8049944:	8b 45 08             	mov    0x8(%ebp),%eax
 8049947:	89 04 24             	mov    %eax,(%esp)
 804994a:	e8 86 ff ff ff       	call   80498d5 <fallback_stat>
 804994f:	eb 12                	jmp    8049963 <optionh_stat+0x5e>
 8049951:	8b 45 0c             	mov    0xc(%ebp),%eax
 8049954:	89 44 24 04          	mov    %eax,0x4(%esp)
 8049958:	8b 45 08             	mov    0x8(%ebp),%eax
 804995b:	89 04 24             	mov    %eax,(%esp)
 804995e:	e8 9d e4 00 00       	call   8057e00 <lstat64>
 8049963:	c9                   	leave  
 8049964:	c3                   	ret    

08049965 <optionl_stat>:
optionl_stat():
 8049965:	55                   	push   %ebp
 8049966:	89 e5                	mov    %esp,%ebp
 8049968:	83 ec 28             	sub    $0x28,%esp
 804996b:	8b 45 0c             	mov    0xc(%ebp),%eax
 804996e:	89 44 24 04          	mov    %eax,0x4(%esp)
 8049972:	8b 45 08             	mov    0x8(%ebp),%eax
 8049975:	89 04 24             	mov    %eax,(%esp)
 8049978:	e8 53 e4 00 00       	call   8057dd0 <stat64>
 804997d:	89 45 f4             	mov    %eax,-0xc(%ebp)
 8049980:	83 7d f4 00          	cmpl   $0x0,-0xc(%ebp)
 8049984:	75 07                	jne    804998d <optionl_stat+0x28>
 8049986:	b8 00 00 00 00       	mov    $0x0,%eax
 804998b:	eb 19                	jmp    80499a6 <optionl_stat+0x41>
 804998d:	8b 45 f4             	mov    -0xc(%ebp),%eax
 8049990:	89 44 24 08          	mov    %eax,0x8(%esp)
 8049994:	8b 45 0c             	mov    0xc(%ebp),%eax
 8049997:	89 44 24 04          	mov    %eax,0x4(%esp)
 804999b:	8b 45 08             	mov    0x8(%ebp),%eax
 804999e:	89 04 24             	mov    %eax,(%esp)
 80499a1:	e8 2f ff ff ff       	call   80498d5 <fallback_stat>
 80499a6:	c9                   	leave  
 80499a7:	c3                   	ret    

080499a8 <optionp_stat>:
optionp_stat():
 80499a8:	55                   	push   %ebp
 80499a9:	89 e5                	mov    %esp,%ebp
 80499ab:	83 ec 18             	sub    $0x18,%esp
 80499ae:	8b 45 0c             	mov    0xc(%ebp),%eax
 80499b1:	89 44 24 04          	mov    %eax,0x4(%esp)
 80499b5:	8b 45 08             	mov    0x8(%ebp),%eax
 80499b8:	89 04 24             	mov    %eax,(%esp)
 80499bb:	e8 40 e4 00 00       	call   8057e00 <lstat64>
 80499c0:	c9                   	leave  
 80499c1:	c3                   	ret    

080499c2 <set_follow_state>:
set_follow_state():
 80499c2:	55                   	push   %ebp
 80499c3:	89 e5                	mov    %esp,%ebp
 80499c5:	8b 45 08             	mov    0x8(%ebp),%eax
 80499c8:	83 f8 01             	cmp    $0x1,%eax
 80499cb:	74 0c                	je     80499d9 <set_follow_state+0x17>
 80499cd:	83 f8 01             	cmp    $0x1,%eax
 80499d0:	72 1a                	jb     80499ec <set_follow_state+0x2a>
 80499d2:	83 f8 02             	cmp    $0x2,%eax
 80499d5:	74 21                	je     80499f8 <set_follow_state+0x36>
 80499d7:	eb 30                	jmp    8049a09 <set_follow_state+0x47>
 80499d9:	c7 05 24 f7 05 08 65 	movl   $0x8049965,0x805f724
 80499e0:	99 04 08 
 80499e3:	c6 05 0c f7 05 08 01 	movb   $0x1,0x805f70c
 80499ea:	eb 1d                	jmp    8049a09 <set_follow_state+0x47>
 80499ec:	c7 05 24 f7 05 08 a8 	movl   $0x80499a8,0x805f724
 80499f3:	99 04 08 
 80499f6:	eb 11                	jmp    8049a09 <set_follow_state+0x47>
 80499f8:	c7 05 24 f7 05 08 05 	movl   $0x8049905,0x805f724
 80499ff:	99 04 08 
 8049a02:	c6 05 0c f7 05 08 01 	movb   $0x1,0x805f70c
 8049a09:	8b 45 08             	mov    0x8(%ebp),%eax
 8049a0c:	a3 20 f7 05 08       	mov    %eax,0x805f720
 8049a11:	5d                   	pop    %ebp
 8049a12:	c3                   	ret    

08049a13 <cleanup>:
cleanup():
 8049a13:	55                   	push   %ebp
 8049a14:	89 e5                	mov    %esp,%ebp
 8049a16:	83 ec 18             	sub    $0x18,%esp
 8049a19:	a1 10 f2 05 08       	mov    0x805f210,%eax
 8049a1e:	85 c0                	test   %eax,%eax
 8049a20:	74 1a                	je     8049a3c <cleanup+0x29>
 8049a22:	a1 10 f2 05 08       	mov    0x805f210,%eax
 8049a27:	89 04 24             	mov    %eax,(%esp)
 8049a2a:	e8 fe 1a 00 00       	call   804b52d <complete_pending_execs>
 8049a2f:	a1 10 f2 05 08       	mov    0x805f210,%eax
 8049a34:	89 04 24             	mov    %eax,(%esp)
 8049a37:	e8 76 1a 00 00       	call   804b4b2 <complete_pending_execdirs>
 8049a3c:	c9                   	leave  
 8049a3d:	c3                   	ret    

08049a3e <get_statinfo>:
get_statinfo():
 8049a3e:	55                   	push   %ebp
 8049a3f:	89 e5                	mov    %esp,%ebp
 8049a41:	83 ec 18             	sub    $0x18,%esp
 8049a44:	0f b6 05 64 f6 05 08 	movzbl 0x805f664,%eax
 8049a4b:	83 f0 01             	xor    $0x1,%eax
 8049a4e:	84 c0                	test   %al,%al
 8049a50:	74 6a                	je     8049abc <get_statinfo+0x7e>
 8049a52:	8b 15 24 f7 05 08    	mov    0x805f724,%edx
 8049a58:	8b 45 10             	mov    0x10(%ebp),%eax
 8049a5b:	89 44 24 04          	mov    %eax,0x4(%esp)
 8049a5f:	8b 45 0c             	mov    0xc(%ebp),%eax
 8049a62:	89 04 24             	mov    %eax,(%esp)
 8049a65:	ff d2                	call   *%edx
 8049a67:	85 c0                	test   %eax,%eax
 8049a69:	74 51                	je     8049abc <get_statinfo+0x7e>
 8049a6b:	0f b6 05 0e f7 05 08 	movzbl 0x805f70e,%eax
 8049a72:	83 f0 01             	xor    $0x1,%eax
 8049a75:	84 c0                	test   %al,%al
 8049a77:	75 0c                	jne    8049a85 <get_statinfo+0x47>
 8049a79:	e8 32 fb ff ff       	call   80495b0 <__errno_location@plt>
 8049a7e:	8b 00                	mov    (%eax),%eax
 8049a80:	83 f8 02             	cmp    $0x2,%eax
 8049a83:	74 30                	je     8049ab5 <get_statinfo+0x77>
 8049a85:	e8 26 fb ff ff       	call   80495b0 <__errno_location@plt>
 8049a8a:	8b 00                	mov    (%eax),%eax
 8049a8c:	8b 55 08             	mov    0x8(%ebp),%edx
 8049a8f:	89 54 24 0c          	mov    %edx,0xc(%esp)
 8049a93:	c7 44 24 08 8a 7e 05 	movl   $0x8057e8a,0x8(%esp)
 8049a9a:	08 
 8049a9b:	89 44 24 04          	mov    %eax,0x4(%esp)
 8049a9f:	c7 04 24 00 00 00 00 	movl   $0x0,(%esp)
 8049aa6:	e8 b5 f9 ff ff       	call   8049460 <error@plt>
 8049aab:	c7 05 78 f6 05 08 01 	movl   $0x1,0x805f678
 8049ab2:	00 00 00 
 8049ab5:	b8 ff ff ff ff       	mov    $0xffffffff,%eax
 8049aba:	eb 1e                	jmp    8049ada <get_statinfo+0x9c>
 8049abc:	c6 05 64 f6 05 08 01 	movb   $0x1,0x805f664
 8049ac3:	c6 05 65 f6 05 08 01 	movb   $0x1,0x805f665
 8049aca:	8b 45 10             	mov    0x10(%ebp),%eax
 8049acd:	8b 40 10             	mov    0x10(%eax),%eax
 8049ad0:	a3 68 f6 05 08       	mov    %eax,0x805f668
 8049ad5:	b8 00 00 00 00       	mov    $0x0,%eax
 8049ada:	c9                   	leave  
 8049adb:	c3                   	ret    

08049adc <get_info>:
get_info():
 8049adc:	55                   	push   %ebp
 8049add:	89 e5                	mov    %esp,%ebp
 8049adf:	83 ec 18             	sub    $0x18,%esp
 8049ae2:	8b 45 14             	mov    0x14(%ebp),%eax
 8049ae5:	0f b6 40 12          	movzbl 0x12(%eax),%eax
 8049ae9:	84 c0                	test   %al,%al
 8049aeb:	74 1d                	je     8049b0a <get_info+0x2e>
 8049aed:	a1 6c f6 05 08       	mov    0x805f66c,%eax
 8049af2:	8b 55 10             	mov    0x10(%ebp),%edx
 8049af5:	89 54 24 08          	mov    %edx,0x8(%esp)
 8049af9:	89 44 24 04          	mov    %eax,0x4(%esp)
 8049afd:	8b 45 08             	mov    0x8(%ebp),%eax
 8049b00:	89 04 24             	mov    %eax,(%esp)
 8049b03:	e8 36 ff ff ff       	call   8049a3e <get_statinfo>
 8049b08:	eb 3b                	jmp    8049b45 <get_info+0x69>
 8049b0a:	8b 45 14             	mov    0x14(%ebp),%eax
 8049b0d:	0f b6 40 13          	movzbl 0x13(%eax),%eax
 8049b11:	84 c0                	test   %al,%al
 8049b13:	74 2b                	je     8049b40 <get_info+0x64>
 8049b15:	0f b6 05 65 f6 05 08 	movzbl 0x805f665,%eax
 8049b1c:	83 f0 01             	xor    $0x1,%eax
 8049b1f:	84 c0                	test   %al,%al
 8049b21:	74 1d                	je     8049b40 <get_info+0x64>
 8049b23:	a1 6c f6 05 08       	mov    0x805f66c,%eax
 8049b28:	8b 55 10             	mov    0x10(%ebp),%edx
 8049b2b:	89 54 24 08          	mov    %edx,0x8(%esp)
 8049b2f:	89 44 24 04          	mov    %eax,0x4(%esp)
 8049b33:	8b 45 08             	mov    0x8(%ebp),%eax
 8049b36:	89 04 24             	mov    %eax,(%esp)
 8049b39:	e8 00 ff ff ff       	call   8049a3e <get_statinfo>
 8049b3e:	eb 05                	jmp    8049b45 <get_info+0x69>
 8049b40:	b8 00 00 00 00       	mov    $0x0,%eax
 8049b45:	c9                   	leave  
 8049b46:	c3                   	ret    

08049b47 <check_nofollow>:
check_nofollow():
 8049b47:	55                   	push   %ebp
 8049b48:	89 e5                	mov    %esp,%ebp
 8049b4a:	57                   	push   %edi
 8049b4b:	56                   	push   %esi
 8049b4c:	81 ec b0 01 00 00    	sub    $0x1b0,%esp
 8049b52:	65 a1 14 00 00 00    	mov    %gs:0x14,%eax
 8049b58:	89 45 f4             	mov    %eax,-0xc(%ebp)
 8049b5b:	31 c0                	xor    %eax,%eax
 8049b5d:	8d 85 6e fe ff ff    	lea    -0x192(%ebp),%eax
 8049b63:	89 04 24             	mov    %eax,(%esp)
 8049b66:	e8 95 f7 ff ff       	call   8049300 <uname@plt>
 8049b6b:	85 c0                	test   %eax,%eax
 8049b6d:	0f 85 99 00 00 00    	jne    8049c0c <check_nofollow+0xc5>
 8049b73:	8d 85 6e fe ff ff    	lea    -0x192(%ebp),%eax
 8049b79:	05 82 00 00 00       	add    $0x82,%eax
 8049b7e:	89 04 24             	mov    %eax,(%esp)
 8049b81:	e8 3a fb ff ff       	call   80496c0 <atof@plt>
 8049b86:	d9 9d 68 fe ff ff    	fstps  -0x198(%ebp)
 8049b8c:	8d 85 6e fe ff ff    	lea    -0x192(%ebp),%eax
 8049b92:	ba 8d 7e 05 08       	mov    $0x8057e8d,%edx
 8049b97:	b9 06 00 00 00       	mov    $0x6,%ecx
 8049b9c:	89 d6                	mov    %edx,%esi
 8049b9e:	89 c7                	mov    %eax,%edi
 8049ba0:	f3 a6                	repz cmpsb %es:(%edi),%ds:(%esi)
 8049ba2:	0f 97 c2             	seta   %dl
 8049ba5:	0f 92 c0             	setb   %al
 8049ba8:	89 d1                	mov    %edx,%ecx
 8049baa:	28 c1                	sub    %al,%cl
 8049bac:	89 c8                	mov    %ecx,%eax
 8049bae:	0f be c0             	movsbl %al,%eax
 8049bb1:	85 c0                	test   %eax,%eax
 8049bb3:	75 17                	jne    8049bcc <check_nofollow+0x85>
 8049bb5:	d9 85 68 fe ff ff    	flds   -0x198(%ebp)
 8049bbb:	dd 05 a8 84 05 08    	fldl   0x80584a8
 8049bc1:	d9 c9                	fxch   %st(1)
 8049bc3:	df e9                	fucomip %st(1),%st
 8049bc5:	dd d8                	fstp   %st(0)
 8049bc7:	0f 93 c0             	setae  %al
 8049bca:	eb 45                	jmp    8049c11 <check_nofollow+0xca>
 8049bcc:	8d 85 6e fe ff ff    	lea    -0x192(%ebp),%eax
 8049bd2:	ba 93 7e 05 08       	mov    $0x8057e93,%edx
 8049bd7:	b9 08 00 00 00       	mov    $0x8,%ecx
 8049bdc:	89 d6                	mov    %edx,%esi
 8049bde:	89 c7                	mov    %eax,%edi
 8049be0:	f3 a6                	repz cmpsb %es:(%edi),%ds:(%esi)
 8049be2:	0f 97 c2             	seta   %dl
 8049be5:	0f 92 c0             	setb   %al
 8049be8:	89 d1                	mov    %edx,%ecx
 8049bea:	28 c1                	sub    %al,%cl
 8049bec:	89 c8                	mov    %ecx,%eax
 8049bee:	0f be c0             	movsbl %al,%eax
 8049bf1:	85 c0                	test   %eax,%eax
 8049bf3:	75 17                	jne    8049c0c <check_nofollow+0xc5>
 8049bf5:	d9 85 68 fe ff ff    	flds   -0x198(%ebp)
 8049bfb:	dd 05 b0 84 05 08    	fldl   0x80584b0
 8049c01:	d9 c9                	fxch   %st(1)
 8049c03:	df e9                	fucomip %st(1),%st
 8049c05:	dd d8                	fstp   %st(0)
 8049c07:	0f 93 c0             	setae  %al
 8049c0a:	eb 05                	jmp    8049c11 <check_nofollow+0xca>
 8049c0c:	b8 01 00 00 00       	mov    $0x1,%eax
 8049c11:	8b 75 f4             	mov    -0xc(%ebp),%esi
 8049c14:	65 33 35 14 00 00 00 	xor    %gs:0x14,%esi
 8049c1b:	74 05                	je     8049c22 <check_nofollow+0xdb>
 8049c1d:	e8 ee f6 ff ff       	call   8049310 <__stack_chk_fail@plt>
 8049c22:	81 c4 b0 01 00 00    	add    $0x1b0,%esp
 8049c28:	5e                   	pop    %esi
 8049c29:	5f                   	pop    %edi
 8049c2a:	5d                   	pop    %ebp
 8049c2b:	c3                   	ret    

08049c2c <main>:
main():
 8049c2c:	55                   	push   %ebp
 8049c2d:	89 e5                	mov    %esp,%ebp
 8049c2f:	57                   	push   %edi
 8049c30:	56                   	push   %esi
 8049c31:	53                   	push   %ebx
 8049c32:	83 e4 f0             	and    $0xfffffff0,%esp
 8049c35:	83 ec 40             	sub    $0x40,%esp
 8049c38:	c7 44 24 30 00 00 00 	movl   $0x0,0x30(%esp)
 8049c3f:	00 
 8049c40:	8b 45 0c             	mov    0xc(%ebp),%eax
 8049c43:	8b 00                	mov    (%eax),%eax
 8049c45:	a3 34 f7 05 08       	mov    %eax,0x805f734
 8049c4a:	c7 44 24 04 9b 7e 05 	movl   $0x8057e9b,0x4(%esp)
 8049c51:	08 
 8049c52:	c7 04 24 06 00 00 00 	movl   $0x6,(%esp)
 8049c59:	e8 b2 f9 ff ff       	call   8049610 <setlocale@plt>
 8049c5e:	c7 44 24 04 9c 7e 05 	movl   $0x8057e9c,0x4(%esp)
 8049c65:	08 
 8049c66:	c7 04 24 b4 7e 05 08 	movl   $0x8057eb4,(%esp)
 8049c6d:	e8 5e fa ff ff       	call   80496d0 <bindtextdomain@plt>
 8049c72:	c7 04 24 b4 7e 05 08 	movl   $0x8057eb4,(%esp)
 8049c79:	e8 c2 f6 ff ff       	call   8049340 <textdomain@plt>
 8049c7e:	c7 04 24 50 31 05 08 	movl   $0x8053150,(%esp)
 8049c85:	e8 06 e1 00 00       	call   8057d90 <atexit>
 8049c8a:	c7 04 24 00 00 00 00 	movl   $0x0,(%esp)
 8049c91:	e8 5a fa ff ff       	call   80496f0 <isatty@plt>
 8049c96:	85 c0                	test   %eax,%eax
 8049c98:	74 09                	je     8049ca3 <main+0x77>
 8049c9a:	c6 05 0f f7 05 08 01 	movb   $0x1,0x805f70f
 8049ca1:	eb 07                	jmp    8049caa <main+0x7e>
 8049ca3:	c6 05 0f f7 05 08 00 	movb   $0x0,0x805f70f
 8049caa:	c7 05 e0 f6 05 08 00 	movl   $0x0,0x805f6e0
 8049cb1:	00 00 00 
 8049cb4:	c7 05 2c f7 05 08 00 	movl   $0x0,0x805f72c
 8049cbb:	00 00 00 
 8049cbe:	c6 05 00 f7 05 08 01 	movb   $0x1,0x805f700
 8049cc5:	c7 05 08 f7 05 08 ff 	movl   $0xffffffff,0x805f708
 8049ccc:	ff ff ff 
 8049ccf:	a1 08 f7 05 08       	mov    0x805f708,%eax
 8049cd4:	a3 04 f7 05 08       	mov    %eax,0x805f704
 8049cd9:	c7 04 24 00 00 00 00 	movl   $0x0,(%esp)
 8049ce0:	e8 bb f5 ff ff       	call   80492a0 <time@plt>
 8049ce5:	a3 10 f7 05 08       	mov    %eax,0x805f710
 8049cea:	a1 10 f7 05 08       	mov    0x805f710,%eax
 8049cef:	2d 80 51 01 00       	sub    $0x15180,%eax
 8049cf4:	a3 14 f7 05 08       	mov    %eax,0x805f714
 8049cf9:	c6 05 18 f7 05 08 00 	movb   $0x0,0x805f718
 8049d00:	c6 05 0d f7 05 08 00 	movb   $0x0,0x805f70d
 8049d07:	c6 05 0e f7 05 08 00 	movb   $0x0,0x805f70e
 8049d0e:	c7 05 78 f6 05 08 00 	movl   $0x0,0x805f678
 8049d15:	00 00 00 
 8049d18:	c7 04 24 be 7e 05 08 	movl   $0x8057ebe,(%esp)
 8049d1f:	e8 4c f7 ff ff       	call   8049470 <getenv@plt>
 8049d24:	85 c0                	test   %eax,%eax
 8049d26:	74 0c                	je     8049d34 <main+0x108>
 8049d28:	c7 05 1c f7 05 08 00 	movl   $0x200,0x805f71c
 8049d2f:	02 00 00 
 8049d32:	eb 0a                	jmp    8049d3e <main+0x112>
 8049d34:	c7 05 1c f7 05 08 00 	movl   $0x400,0x805f71c
 8049d3b:	04 00 00 
 8049d3e:	e8 04 fe ff ff       	call   8049b47 <check_nofollow>
 8049d43:	a2 28 f7 05 08       	mov    %al,0x805f728
 8049d48:	c7 04 24 ce 7e 05 08 	movl   $0x8057ece,(%esp)
 8049d4f:	e8 1c f7 ff ff       	call   8049470 <getenv@plt>
 8049d54:	85 c0                	test   %eax,%eax
 8049d56:	74 24                	je     8049d7c <main+0x150>
 8049d58:	c7 04 24 e0 7e 05 08 	movl   $0x8057ee0,(%esp)
 8049d5f:	e8 8c f7 ff ff       	call   80494f0 <gettext@plt>
 8049d64:	89 44 24 08          	mov    %eax,0x8(%esp)
 8049d68:	c7 44 24 04 00 00 00 	movl   $0x0,0x4(%esp)
 8049d6f:	00 
 8049d70:	c7 04 24 01 00 00 00 	movl   $0x1,(%esp)
 8049d77:	e8 e4 f6 ff ff       	call   8049460 <error@plt>
 8049d7c:	c6 05 0c f7 05 08 00 	movb   $0x0,0x805f70c
 8049d83:	c7 04 24 00 00 00 00 	movl   $0x0,(%esp)
 8049d8a:	e8 33 fc ff ff       	call   80499c2 <set_follow_state>
 8049d8f:	0f b6 05 28 f7 05 08 	movzbl 0x805f728,%eax
 8049d96:	83 f0 01             	xor    $0x1,%eax
 8049d99:	84 c0                	test   %al,%al
 8049d9b:	74 05                	je     8049da2 <main+0x176>
 8049d9d:	e8 2b 06 00 00       	call   804a3cd <init_mounted_dev_list>
 8049da2:	c7 44 24 28 01 00 00 	movl   $0x1,0x28(%esp)
 8049da9:	00 
 8049daa:	e9 0e 01 00 00       	jmp    8049ebd <main+0x291>
 8049daf:	8b 44 24 28          	mov    0x28(%esp),%eax
 8049db3:	c1 e0 02             	shl    $0x2,%eax
 8049db6:	03 45 0c             	add    0xc(%ebp),%eax
 8049db9:	8b 00                	mov    (%eax),%eax
 8049dbb:	ba 72 7f 05 08       	mov    $0x8057f72,%edx
 8049dc0:	b9 03 00 00 00       	mov    $0x3,%ecx
 8049dc5:	89 d6                	mov    %edx,%esi
 8049dc7:	89 c7                	mov    %eax,%edi
 8049dc9:	f3 a6                	repz cmpsb %es:(%edi),%ds:(%esi)
 8049dcb:	0f 97 c2             	seta   %dl
 8049dce:	0f 92 c0             	setb   %al
 8049dd1:	89 d1                	mov    %edx,%ecx
 8049dd3:	28 c1                	sub    %al,%cl
 8049dd5:	89 c8                	mov    %ecx,%eax
 8049dd7:	0f be c0             	movsbl %al,%eax
 8049dda:	85 c0                	test   %eax,%eax
 8049ddc:	75 11                	jne    8049def <main+0x1c3>
 8049dde:	c7 04 24 02 00 00 00 	movl   $0x2,(%esp)
 8049de5:	e8 d8 fb ff ff       	call   80499c2 <set_follow_state>
 8049dea:	e9 c3 00 00 00       	jmp    8049eb2 <main+0x286>
 8049def:	8b 44 24 28          	mov    0x28(%esp),%eax
 8049df3:	c1 e0 02             	shl    $0x2,%eax
 8049df6:	03 45 0c             	add    0xc(%ebp),%eax
 8049df9:	8b 00                	mov    (%eax),%eax
 8049dfb:	ba 75 7f 05 08       	mov    $0x8057f75,%edx
 8049e00:	b9 03 00 00 00       	mov    $0x3,%ecx
 8049e05:	89 d6                	mov    %edx,%esi
 8049e07:	89 c7                	mov    %eax,%edi
 8049e09:	f3 a6                	repz cmpsb %es:(%edi),%ds:(%esi)
 8049e0b:	0f 97 c2             	seta   %dl
 8049e0e:	0f 92 c0             	setb   %al
 8049e11:	89 d1                	mov    %edx,%ecx
 8049e13:	28 c1                	sub    %al,%cl
 8049e15:	89 c8                	mov    %ecx,%eax
 8049e17:	0f be c0             	movsbl %al,%eax
 8049e1a:	85 c0                	test   %eax,%eax
 8049e1c:	75 11                	jne    8049e2f <main+0x203>
 8049e1e:	c7 04 24 01 00 00 00 	movl   $0x1,(%esp)
 8049e25:	e8 98 fb ff ff       	call   80499c2 <set_follow_state>
 8049e2a:	e9 83 00 00 00       	jmp    8049eb2 <main+0x286>
 8049e2f:	8b 44 24 28          	mov    0x28(%esp),%eax
 8049e33:	c1 e0 02             	shl    $0x2,%eax
 8049e36:	03 45 0c             	add    0xc(%ebp),%eax
 8049e39:	8b 00                	mov    (%eax),%eax
 8049e3b:	ba 78 7f 05 08       	mov    $0x8057f78,%edx
 8049e40:	b9 03 00 00 00       	mov    $0x3,%ecx
 8049e45:	89 d6                	mov    %edx,%esi
 8049e47:	89 c7                	mov    %eax,%edi
 8049e49:	f3 a6                	repz cmpsb %es:(%edi),%ds:(%esi)
 8049e4b:	0f 97 c2             	seta   %dl
 8049e4e:	0f 92 c0             	setb   %al
 8049e51:	89 d1                	mov    %edx,%ecx
 8049e53:	28 c1                	sub    %al,%cl
 8049e55:	89 c8                	mov    %ecx,%eax
 8049e57:	0f be c0             	movsbl %al,%eax
 8049e5a:	85 c0                	test   %eax,%eax
 8049e5c:	75 0e                	jne    8049e6c <main+0x240>
 8049e5e:	c7 04 24 00 00 00 00 	movl   $0x0,(%esp)
 8049e65:	e8 58 fb ff ff       	call   80499c2 <set_follow_state>
 8049e6a:	eb 46                	jmp    8049eb2 <main+0x286>
 8049e6c:	8b 44 24 28          	mov    0x28(%esp),%eax
 8049e70:	c1 e0 02             	shl    $0x2,%eax
 8049e73:	03 45 0c             	add    0xc(%ebp),%eax
 8049e76:	8b 00                	mov    (%eax),%eax
 8049e78:	ba 7b 7f 05 08       	mov    $0x8057f7b,%edx
 8049e7d:	b9 03 00 00 00       	mov    $0x3,%ecx
 8049e82:	89 d6                	mov    %edx,%esi
 8049e84:	89 c7                	mov    %eax,%edi
 8049e86:	f3 a6                	repz cmpsb %es:(%edi),%ds:(%esi)
 8049e88:	0f 97 c2             	seta   %dl
 8049e8b:	0f 92 c0             	setb   %al
 8049e8e:	89 d1                	mov    %edx,%ecx
 8049e90:	28 c1                	sub    %al,%cl
 8049e92:	89 c8                	mov    %ecx,%eax
 8049e94:	0f be c0             	movsbl %al,%eax
 8049e97:	85 c0                	test   %eax,%eax
 8049e99:	75 0d                	jne    8049ea8 <main+0x27c>
 8049e9b:	8b 44 24 28          	mov    0x28(%esp),%eax
 8049e9f:	83 c0 01             	add    $0x1,%eax
 8049ea2:	89 44 24 30          	mov    %eax,0x30(%esp)
 8049ea6:	eb 2a                	jmp    8049ed2 <main+0x2a6>
 8049ea8:	8b 44 24 28          	mov    0x28(%esp),%eax
 8049eac:	89 44 24 30          	mov    %eax,0x30(%esp)
 8049eb0:	eb 20                	jmp    8049ed2 <main+0x2a6>
 8049eb2:	8b 44 24 28          	mov    0x28(%esp),%eax
 8049eb6:	83 c0 01             	add    $0x1,%eax
 8049eb9:	89 44 24 28          	mov    %eax,0x28(%esp)
 8049ebd:	8b 44 24 28          	mov    0x28(%esp),%eax
 8049ec1:	89 44 24 30          	mov    %eax,0x30(%esp)
 8049ec5:	8b 45 08             	mov    0x8(%ebp),%eax
 8049ec8:	39 44 24 30          	cmp    %eax,0x30(%esp)
 8049ecc:	0f 8c dd fe ff ff    	jl     8049daf <main+0x183>
 8049ed2:	8b 44 24 30          	mov    0x30(%esp),%eax
 8049ed6:	89 44 24 28          	mov    %eax,0x28(%esp)
 8049eda:	eb 0b                	jmp    8049ee7 <main+0x2bb>
 8049edc:	8b 44 24 28          	mov    0x28(%esp),%eax
 8049ee0:	83 c0 01             	add    $0x1,%eax
 8049ee3:	89 44 24 28          	mov    %eax,0x28(%esp)
 8049ee7:	8b 54 24 28          	mov    0x28(%esp),%edx
 8049eeb:	8b 45 08             	mov    0x8(%ebp),%eax
 8049eee:	39 c2                	cmp    %eax,%edx
 8049ef0:	7d 26                	jge    8049f18 <main+0x2ec>
 8049ef2:	8b 44 24 28          	mov    0x28(%esp),%eax
 8049ef6:	c1 e0 02             	shl    $0x2,%eax
 8049ef9:	03 45 0c             	add    0xc(%ebp),%eax
 8049efc:	8b 00                	mov    (%eax),%eax
 8049efe:	0f b6 00             	movzbl (%eax),%eax
 8049f01:	0f be c0             	movsbl %al,%eax
 8049f04:	89 44 24 04          	mov    %eax,0x4(%esp)
 8049f08:	c7 04 24 7e 7f 05 08 	movl   $0x8057f7e,(%esp)
 8049f0f:	e8 1c f6 ff ff       	call   8049530 <strchr@plt>
 8049f14:	85 c0                	test   %eax,%eax
 8049f16:	74 c4                	je     8049edc <main+0x2b0>
 8049f18:	8d 75 08             	lea    0x8(%ebp),%esi
 8049f1b:	89 74 24 04          	mov    %esi,0x4(%esp)
 8049f1f:	8b 45 0c             	mov    0xc(%ebp),%eax
 8049f22:	89 04 24             	mov    %eax,(%esp)
 8049f25:	e8 7f 32 00 00       	call   804d1a9 <parse_open>
 8049f2a:	e9 2d 01 00 00       	jmp    804a05c <main+0x430>
 8049f2f:	8b 44 24 28          	mov    0x28(%esp),%eax
 8049f33:	c1 e0 02             	shl    $0x2,%eax
 8049f36:	03 45 0c             	add    0xc(%ebp),%eax
 8049f39:	8b 00                	mov    (%eax),%eax
 8049f3b:	0f b6 00             	movzbl (%eax),%eax
 8049f3e:	0f be c0             	movsbl %al,%eax
 8049f41:	89 44 24 04          	mov    %eax,0x4(%esp)
 8049f45:	c7 04 24 7e 7f 05 08 	movl   $0x8057f7e,(%esp)
 8049f4c:	e8 df f5 ff ff       	call   8049530 <strchr@plt>
 8049f51:	85 c0                	test   %eax,%eax
 8049f53:	75 14                	jne    8049f69 <main+0x33d>
 8049f55:	c7 04 24 84 7f 05 08 	movl   $0x8057f84,(%esp)
 8049f5c:	e8 8f f5 ff ff       	call   80494f0 <gettext@plt>
 8049f61:	89 04 24             	mov    %eax,(%esp)
 8049f64:	e8 bc 79 00 00       	call   8051925 <usage>
 8049f69:	8b 44 24 28          	mov    0x28(%esp),%eax
 8049f6d:	c1 e0 02             	shl    $0x2,%eax
 8049f70:	03 45 0c             	add    0xc(%ebp),%eax
 8049f73:	8b 00                	mov    (%eax),%eax
 8049f75:	89 44 24 34          	mov    %eax,0x34(%esp)
 8049f79:	8b 44 24 34          	mov    0x34(%esp),%eax
 8049f7d:	89 04 24             	mov    %eax,(%esp)
 8049f80:	e8 6b 1f 00 00       	call   804bef0 <find_parser>
 8049f85:	89 44 24 38          	mov    %eax,0x38(%esp)
 8049f89:	83 7c 24 38 00       	cmpl   $0x0,0x38(%esp)
 8049f8e:	75 2c                	jne    8049fbc <main+0x390>
 8049f90:	c7 04 24 a2 7f 05 08 	movl   $0x8057fa2,(%esp)
 8049f97:	e8 54 f5 ff ff       	call   80494f0 <gettext@plt>
 8049f9c:	8b 54 24 34          	mov    0x34(%esp),%edx
 8049fa0:	89 54 24 0c          	mov    %edx,0xc(%esp)
 8049fa4:	89 44 24 08          	mov    %eax,0x8(%esp)
 8049fa8:	c7 44 24 04 00 00 00 	movl   $0x0,0x4(%esp)
 8049faf:	00 
 8049fb0:	c7 04 24 01 00 00 00 	movl   $0x1,(%esp)
 8049fb7:	e8 a4 f4 ff ff       	call   8049460 <error@plt>
 8049fbc:	8b 44 24 28          	mov    0x28(%esp),%eax
 8049fc0:	83 c0 01             	add    $0x1,%eax
 8049fc3:	89 44 24 28          	mov    %eax,0x28(%esp)
 8049fc7:	8d 44 24 28          	lea    0x28(%esp),%eax
 8049fcb:	89 44 24 04          	mov    %eax,0x4(%esp)
 8049fcf:	8b 45 0c             	mov    0xc(%ebp),%eax
 8049fd2:	89 04 24             	mov    %eax,(%esp)
 8049fd5:	8b 44 24 38          	mov    0x38(%esp),%eax
 8049fd9:	ff d0                	call   *%eax
 8049fdb:	83 f0 01             	xor    $0x1,%eax
 8049fde:	84 c0                	test   %al,%al
 8049fe0:	74 7a                	je     804a05c <main+0x430>
 8049fe2:	8b 44 24 28          	mov    0x28(%esp),%eax
 8049fe6:	c1 e0 02             	shl    $0x2,%eax
 8049fe9:	03 45 0c             	add    0xc(%ebp),%eax
 8049fec:	8b 00                	mov    (%eax),%eax
 8049fee:	85 c0                	test   %eax,%eax
 8049ff0:	75 2e                	jne    804a020 <main+0x3f4>
 8049ff2:	c7 04 24 b9 7f 05 08 	movl   $0x8057fb9,(%esp)
 8049ff9:	e8 f2 f4 ff ff       	call   80494f0 <gettext@plt>
 8049ffe:	8b 54 24 34          	mov    0x34(%esp),%edx
 804a002:	89 54 24 0c          	mov    %edx,0xc(%esp)
 804a006:	89 44 24 08          	mov    %eax,0x8(%esp)
 804a00a:	c7 44 24 04 00 00 00 	movl   $0x0,0x4(%esp)
 804a011:	00 
 804a012:	c7 04 24 01 00 00 00 	movl   $0x1,(%esp)
 804a019:	e8 42 f4 ff ff       	call   8049460 <error@plt>
 804a01e:	eb 3c                	jmp    804a05c <main+0x430>
 804a020:	8b 44 24 28          	mov    0x28(%esp),%eax
 804a024:	c1 e0 02             	shl    $0x2,%eax
 804a027:	03 45 0c             	add    0xc(%ebp),%eax
 804a02a:	8b 18                	mov    (%eax),%ebx
 804a02c:	c7 04 24 d2 7f 05 08 	movl   $0x8057fd2,(%esp)
 804a033:	e8 b8 f4 ff ff       	call   80494f0 <gettext@plt>
 804a038:	8b 54 24 34          	mov    0x34(%esp),%edx
 804a03c:	89 54 24 10          	mov    %edx,0x10(%esp)
 804a040:	89 5c 24 0c          	mov    %ebx,0xc(%esp)
 804a044:	89 44 24 08          	mov    %eax,0x8(%esp)
 804a048:	c7 44 24 04 00 00 00 	movl   $0x0,0x4(%esp)
 804a04f:	00 
 804a050:	c7 04 24 01 00 00 00 	movl   $0x1,(%esp)
 804a057:	e8 04 f4 ff ff       	call   8049460 <error@plt>
 804a05c:	8b 54 24 28          	mov    0x28(%esp),%edx
 804a060:	8b 45 08             	mov    0x8(%ebp),%eax
 804a063:	39 c2                	cmp    %eax,%edx
 804a065:	0f 8c c4 fe ff ff    	jl     8049f2f <main+0x303>
 804a06b:	a1 e0 f6 05 08       	mov    0x805f6e0,%eax
 804a070:	8b 40 64             	mov    0x64(%eax),%eax
 804a073:	85 c0                	test   %eax,%eax
 804a075:	75 40                	jne    804a0b7 <main+0x48b>
 804a077:	a1 e0 f6 05 08       	mov    0x805f6e0,%eax
 804a07c:	89 44 24 2c          	mov    %eax,0x2c(%esp)
 804a080:	a1 e0 f6 05 08       	mov    0x805f6e0,%eax
 804a085:	8b 40 64             	mov    0x64(%eax),%eax
 804a088:	a3 2c f7 05 08       	mov    %eax,0x805f72c
 804a08d:	a1 2c f7 05 08       	mov    0x805f72c,%eax
 804a092:	a3 e0 f6 05 08       	mov    %eax,0x805f6e0
 804a097:	8b 44 24 2c          	mov    0x2c(%esp),%eax
 804a09b:	89 04 24             	mov    %eax,(%esp)
 804a09e:	e8 8d f1 ff ff       	call   8049230 <free@plt>
 804a0a3:	8d 7d 08             	lea    0x8(%ebp),%edi
 804a0a6:	89 7c 24 04          	mov    %edi,0x4(%esp)
 804a0aa:	8b 45 0c             	mov    0xc(%ebp),%eax
 804a0ad:	89 04 24             	mov    %eax,(%esp)
 804a0b0:	e8 83 33 00 00       	call   804d438 <parse_print>
 804a0b5:	eb 5f                	jmp    804a116 <main+0x4ea>
 804a0b7:	a1 e0 f6 05 08       	mov    0x805f6e0,%eax
 804a0bc:	8b 40 64             	mov    0x64(%eax),%eax
 804a0bf:	89 04 24             	mov    %eax,(%esp)
 804a0c2:	e8 2e 1a 00 00       	call   804baf5 <default_prints>
 804a0c7:	83 f0 01             	xor    $0x1,%eax
 804a0ca:	84 c0                	test   %al,%al
 804a0cc:	74 24                	je     804a0f2 <main+0x4c6>
 804a0ce:	a1 e0 f6 05 08       	mov    0x805f6e0,%eax
 804a0d3:	89 44 24 2c          	mov    %eax,0x2c(%esp)
 804a0d7:	a1 e0 f6 05 08       	mov    0x805f6e0,%eax
 804a0dc:	8b 40 64             	mov    0x64(%eax),%eax
 804a0df:	a3 e0 f6 05 08       	mov    %eax,0x805f6e0
 804a0e4:	8b 44 24 2c          	mov    0x2c(%esp),%eax
 804a0e8:	89 04 24             	mov    %eax,(%esp)
 804a0eb:	e8 40 f1 ff ff       	call   8049230 <free@plt>
 804a0f0:	eb 24                	jmp    804a116 <main+0x4ea>
 804a0f2:	8d 45 08             	lea    0x8(%ebp),%eax
 804a0f5:	89 44 24 04          	mov    %eax,0x4(%esp)
 804a0f9:	8b 45 0c             	mov    0xc(%ebp),%eax
 804a0fc:	89 04 24             	mov    %eax,(%esp)
 804a0ff:	e8 f8 20 00 00       	call   804c1fc <parse_close>
 804a104:	8d 4d 08             	lea    0x8(%ebp),%ecx
 804a107:	89 4c 24 04          	mov    %ecx,0x4(%esp)
 804a10b:	8b 45 0c             	mov    0xc(%ebp),%eax
 804a10e:	89 04 24             	mov    %eax,(%esp)
 804a111:	e8 22 33 00 00       	call   804d438 <parse_print>
 804a116:	a1 e0 f6 05 08       	mov    0x805f6e0,%eax
 804a11b:	89 44 24 2c          	mov    %eax,0x2c(%esp)
 804a11f:	c7 44 24 04 00 00 00 	movl   $0x0,0x4(%esp)
 804a126:	00 
 804a127:	8d 44 24 2c          	lea    0x2c(%esp),%eax
 804a12b:	89 04 24             	mov    %eax,(%esp)
 804a12e:	e8 e9 6d 00 00       	call   8050f1c <get_expr>
 804a133:	a3 10 f2 05 08       	mov    %eax,0x805f210
 804a138:	8b 44 24 2c          	mov    0x2c(%esp),%eax
 804a13c:	85 c0                	test   %eax,%eax
 804a13e:	74 24                	je     804a164 <main+0x538>
 804a140:	c7 04 24 f0 7f 05 08 	movl   $0x8057ff0,(%esp)
 804a147:	e8 a4 f3 ff ff       	call   80494f0 <gettext@plt>
 804a14c:	89 44 24 08          	mov    %eax,0x8(%esp)
 804a150:	c7 44 24 04 00 00 00 	movl   $0x0,0x4(%esp)
 804a157:	00 
 804a158:	c7 04 24 01 00 00 00 	movl   $0x1,(%esp)
 804a15f:	e8 fc f2 ff ff       	call   8049460 <error@plt>
 804a164:	c7 04 24 10 f2 05 08 	movl   $0x805f210,(%esp)
 804a16b:	e8 df 70 00 00       	call   805124f <opt_expr>
 804a170:	a1 10 f2 05 08       	mov    0x805f210,%eax
 804a175:	89 04 24             	mov    %eax,(%esp)
 804a178:	e8 b6 74 00 00       	call   8051633 <mark_stat>
 804a17d:	a1 10 f2 05 08       	mov    0x805f210,%eax
 804a182:	89 04 24             	mov    %eax,(%esp)
 804a185:	e8 55 75 00 00       	call   80516df <mark_type>
 804a18a:	c7 44 24 04 00 00 00 	movl   $0x0,0x4(%esp)
 804a191:	00 
 804a192:	c7 04 24 88 7e 05 08 	movl   $0x8057e88,(%esp)
 804a199:	e8 32 f0 ff ff       	call   80491d0 <open64@plt>
 804a19e:	a3 30 f7 05 08       	mov    %eax,0x805f730
 804a1a3:	a1 30 f7 05 08       	mov    0x805f730,%eax
 804a1a8:	85 c0                	test   %eax,%eax
 804a1aa:	78 28                	js     804a1d4 <main+0x5a8>
 804a1ac:	a1 30 f7 05 08       	mov    0x805f730,%eax
 804a1b1:	89 04 24             	mov    %eax,(%esp)
 804a1b4:	e8 97 f4 ff ff       	call   8049650 <fchdir@plt>
 804a1b9:	85 c0                	test   %eax,%eax
 804a1bb:	74 17                	je     804a1d4 <main+0x5a8>
 804a1bd:	a1 30 f7 05 08       	mov    0x805f730,%eax
 804a1c2:	89 04 24             	mov    %eax,(%esp)
 804a1c5:	e8 96 f5 ff ff       	call   8049760 <close@plt>
 804a1ca:	c7 05 30 f7 05 08 ff 	movl   $0xffffffff,0x805f730
 804a1d1:	ff ff ff 
 804a1d4:	a1 30 f7 05 08       	mov    0x805f730,%eax
 804a1d9:	85 c0                	test   %eax,%eax
 804a1db:	79 3c                	jns    804a219 <main+0x5ed>
 804a1dd:	e8 7e bf 00 00       	call   8056160 <xgetcwd>
 804a1e2:	a3 a0 f1 05 08       	mov    %eax,0x805f1a0
 804a1e7:	a1 a0 f1 05 08       	mov    0x805f1a0,%eax
 804a1ec:	85 c0                	test   %eax,%eax
 804a1ee:	75 29                	jne    804a219 <main+0x5ed>
 804a1f0:	c7 04 24 0b 80 05 08 	movl   $0x805800b,(%esp)
 804a1f7:	e8 f4 f2 ff ff       	call   80494f0 <gettext@plt>
 804a1fc:	89 c3                	mov    %eax,%ebx
 804a1fe:	e8 ad f3 ff ff       	call   80495b0 <__errno_location@plt>
 804a203:	8b 00                	mov    (%eax),%eax
 804a205:	89 5c 24 08          	mov    %ebx,0x8(%esp)
 804a209:	89 44 24 04          	mov    %eax,0x4(%esp)
 804a20d:	c7 04 24 01 00 00 00 	movl   $0x1,(%esp)
 804a214:	e8 47 f2 ff ff       	call   8049460 <error@plt>
 804a219:	a1 24 f7 05 08       	mov    0x805f724,%eax
 804a21e:	c7 44 24 04 80 f6 05 	movl   $0x805f680,0x4(%esp)
 804a225:	08 
 804a226:	c7 04 24 88 7e 05 08 	movl   $0x8057e88,(%esp)
 804a22d:	ff d0                	call   *%eax
 804a22f:	85 c0                	test   %eax,%eax
 804a231:	74 29                	je     804a25c <main+0x630>
 804a233:	c7 04 24 0b 80 05 08 	movl   $0x805800b,(%esp)
 804a23a:	e8 b1 f2 ff ff       	call   80494f0 <gettext@plt>
 804a23f:	89 c3                	mov    %eax,%ebx
 804a241:	e8 6a f3 ff ff       	call   80495b0 <__errno_location@plt>
 804a246:	8b 00                	mov    (%eax),%eax
 804a248:	89 5c 24 08          	mov    %ebx,0x8(%esp)
 804a24c:	89 44 24 04          	mov    %eax,0x4(%esp)
 804a250:	c7 04 24 01 00 00 00 	movl   $0x1,(%esp)
 804a257:	e8 04 f2 ff ff       	call   8049460 <error@plt>
 804a25c:	8b 44 24 30          	mov    0x30(%esp),%eax
 804a260:	89 44 24 28          	mov    %eax,0x28(%esp)
 804a264:	eb 27                	jmp    804a28d <main+0x661>
 804a266:	8b 44 24 28          	mov    0x28(%esp),%eax
 804a26a:	c1 e0 02             	shl    $0x2,%eax
 804a26d:	03 45 0c             	add    0xc(%ebp),%eax
 804a270:	8b 00                	mov    (%eax),%eax
 804a272:	c7 44 24 04 00 00 00 	movl   $0x0,0x4(%esp)
 804a279:	00 
 804a27a:	89 04 24             	mov    %eax,(%esp)
 804a27d:	e8 b5 0b 00 00       	call   804ae37 <process_top_path>
 804a282:	8b 44 24 28          	mov    0x28(%esp),%eax
 804a286:	83 c0 01             	add    $0x1,%eax
 804a289:	89 44 24 28          	mov    %eax,0x28(%esp)
 804a28d:	8b 54 24 28          	mov    0x28(%esp),%edx
 804a291:	8b 45 08             	mov    0x8(%ebp),%eax
 804a294:	39 c2                	cmp    %eax,%edx
 804a296:	7d 26                	jge    804a2be <main+0x692>
 804a298:	8b 44 24 28          	mov    0x28(%esp),%eax
 804a29c:	c1 e0 02             	shl    $0x2,%eax
 804a29f:	03 45 0c             	add    0xc(%ebp),%eax
 804a2a2:	8b 00                	mov    (%eax),%eax
 804a2a4:	0f b6 00             	movzbl (%eax),%eax
 804a2a7:	0f be c0             	movsbl %al,%eax
 804a2aa:	89 44 24 04          	mov    %eax,0x4(%esp)
 804a2ae:	c7 04 24 7e 7f 05 08 	movl   $0x8057f7e,(%esp)
 804a2b5:	e8 76 f2 ff ff       	call   8049530 <strchr@plt>
 804a2ba:	85 c0                	test   %eax,%eax
 804a2bc:	74 a8                	je     804a266 <main+0x63a>
 804a2be:	8b 44 24 28          	mov    0x28(%esp),%eax
 804a2c2:	3b 44 24 30          	cmp    0x30(%esp),%eax
 804a2c6:	75 1b                	jne    804a2e3 <main+0x6b7>
 804a2c8:	66 c7 44 24 3e 2e 00 	movw   $0x2e,0x3e(%esp)
 804a2cf:	c7 44 24 04 00 00 00 	movl   $0x0,0x4(%esp)
 804a2d6:	00 
 804a2d7:	8d 44 24 3e          	lea    0x3e(%esp),%eax
 804a2db:	89 04 24             	mov    %eax,(%esp)
 804a2de:	e8 54 0b 00 00       	call   804ae37 <process_top_path>
 804a2e3:	e8 2b f7 ff ff       	call   8049a13 <cleanup>
 804a2e8:	a1 78 f6 05 08       	mov    0x805f678,%eax
 804a2ed:	8d 65 f4             	lea    -0xc(%ebp),%esp
 804a2f0:	5b                   	pop    %ebx
 804a2f1:	5e                   	pop    %esi
 804a2f2:	5f                   	pop    %edi
 804a2f3:	5d                   	pop    %ebp
 804a2f4:	c3                   	ret    

0804a2f5 <specific_dirname>:
specific_dirname():
 804a2f5:	55                   	push   %ebp
 804a2f6:	89 e5                	mov    %esp,%ebp
 804a2f8:	57                   	push   %edi
 804a2f9:	56                   	push   %esi
 804a2fa:	81 ec 30 04 00 00    	sub    $0x430,%esp
 804a300:	8b 45 08             	mov    0x8(%ebp),%eax
 804a303:	89 85 e4 fb ff ff    	mov    %eax,-0x41c(%ebp)
 804a309:	65 a1 14 00 00 00    	mov    %gs:0x14,%eax
 804a30f:	89 45 f4             	mov    %eax,-0xc(%ebp)
 804a312:	31 c0                	xor    %eax,%eax
 804a314:	8b 85 e4 fb ff ff    	mov    -0x41c(%ebp),%eax
 804a31a:	ba 88 7e 05 08       	mov    $0x8057e88,%edx
 804a31f:	b9 02 00 00 00       	mov    $0x2,%ecx
 804a324:	89 d6                	mov    %edx,%esi
 804a326:	89 c7                	mov    %eax,%edi
 804a328:	f3 a6                	repz cmpsb %es:(%edi),%ds:(%esi)
 804a32a:	0f 97 c2             	seta   %dl
 804a32d:	0f 92 c0             	setb   %al
 804a330:	89 d1                	mov    %edx,%ecx
 804a332:	28 c1                	sub    %al,%cl
 804a334:	89 c8                	mov    %ecx,%eax
 804a336:	0f be c0             	movsbl %al,%eax
 804a339:	85 c0                	test   %eax,%eax
 804a33b:	75 3a                	jne    804a377 <specific_dirname+0x82>
 804a33d:	c7 44 24 04 00 04 00 	movl   $0x400,0x4(%esp)
 804a344:	00 
 804a345:	8d 85 f4 fb ff ff    	lea    -0x40c(%ebp),%eax
 804a34b:	89 04 24             	mov    %eax,(%esp)
 804a34e:	e8 ed f1 ff ff       	call   8049540 <getcwd@plt>
 804a353:	85 c0                	test   %eax,%eax
 804a355:	74 10                	je     804a367 <specific_dirname+0x72>
 804a357:	8d 85 f4 fb ff ff    	lea    -0x40c(%ebp),%eax
 804a35d:	89 04 24             	mov    %eax,(%esp)
 804a360:	e8 db ee ff ff       	call   8049240 <strdup@plt>
 804a365:	eb 4b                	jmp    804a3b2 <specific_dirname+0xbd>
 804a367:	8b 85 e4 fb ff ff    	mov    -0x41c(%ebp),%eax
 804a36d:	89 04 24             	mov    %eax,(%esp)
 804a370:	e8 cb ee ff ff       	call   8049240 <strdup@plt>
 804a375:	eb 3b                	jmp    804a3b2 <specific_dirname+0xbd>
 804a377:	c7 44 24 04 00 00 00 	movl   $0x0,0x4(%esp)
 804a37e:	00 
 804a37f:	8b 85 e4 fb ff ff    	mov    -0x41c(%ebp),%eax
 804a385:	89 04 24             	mov    %eax,(%esp)
 804a388:	e8 f3 88 00 00       	call   8052c80 <canonicalize_filename_mode>
 804a38d:	89 85 f0 fb ff ff    	mov    %eax,-0x410(%ebp)
 804a393:	83 bd f0 fb ff ff 00 	cmpl   $0x0,-0x410(%ebp)
 804a39a:	75 10                	jne    804a3ac <specific_dirname+0xb7>
 804a39c:	8b 85 e4 fb ff ff    	mov    -0x41c(%ebp),%eax
 804a3a2:	89 04 24             	mov    %eax,(%esp)
 804a3a5:	e8 96 ee ff ff       	call   8049240 <strdup@plt>
 804a3aa:	eb 06                	jmp    804a3b2 <specific_dirname+0xbd>
 804a3ac:	8b 85 f0 fb ff ff    	mov    -0x410(%ebp),%eax
 804a3b2:	8b 75 f4             	mov    -0xc(%ebp),%esi
 804a3b5:	65 33 35 14 00 00 00 	xor    %gs:0x14,%esi
 804a3bc:	74 05                	je     804a3c3 <specific_dirname+0xce>
 804a3be:	e8 4d ef ff ff       	call   8049310 <__stack_chk_fail@plt>
 804a3c3:	81 c4 30 04 00 00    	add    $0x430,%esp
 804a3c9:	5e                   	pop    %esi
 804a3ca:	5f                   	pop    %edi
 804a3cb:	5d                   	pop    %ebp
 804a3cc:	c3                   	ret    

0804a3cd <init_mounted_dev_list>:
init_mounted_dev_list():
 804a3cd:	55                   	push   %ebp
 804a3ce:	89 e5                	mov    %esp,%ebp
 804a3d0:	83 ec 18             	sub    $0x18,%esp
 804a3d3:	a1 14 f2 05 08       	mov    0x805f214,%eax
 804a3d8:	85 c0                	test   %eax,%eax
 804a3da:	74 24                	je     804a400 <init_mounted_dev_list+0x33>
 804a3dc:	c7 44 24 0c 8f 84 05 	movl   $0x805848f,0xc(%esp)
 804a3e3:	08 
 804a3e4:	c7 44 24 08 9a 02 00 	movl   $0x29a,0x8(%esp)
 804a3eb:	00 
 804a3ec:	c7 44 24 04 28 80 05 	movl   $0x8058028,0x4(%esp)
 804a3f3:	08 
 804a3f4:	c7 04 24 30 80 05 08 	movl   $0x8058030,(%esp)
 804a3fb:	e8 b0 f3 ff ff       	call   80497b0 <__assert_fail@plt>
 804a400:	a1 18 f2 05 08       	mov    0x805f218,%eax
 804a405:	85 c0                	test   %eax,%eax
 804a407:	74 24                	je     804a42d <init_mounted_dev_list+0x60>
 804a409:	c7 44 24 0c 8f 84 05 	movl   $0x805848f,0xc(%esp)
 804a410:	08 
 804a411:	c7 44 24 08 9b 02 00 	movl   $0x29b,0x8(%esp)
 804a418:	00 
 804a419:	c7 44 24 04 28 80 05 	movl   $0x8058028,0x4(%esp)
 804a420:	08 
 804a421:	c7 04 24 4f 80 05 08 	movl   $0x805804f,(%esp)
 804a428:	e8 83 f3 ff ff       	call   80497b0 <__assert_fail@plt>
 804a42d:	c7 04 24 18 f2 05 08 	movl   $0x805f218,(%esp)
 804a434:	e8 0e 1a 00 00       	call   804be47 <get_mounted_devices>
 804a439:	a3 14 f2 05 08       	mov    %eax,0x805f214
 804a43e:	c9                   	leave  
 804a43f:	c3                   	ret    

0804a440 <refresh_mounted_dev_list>:
refresh_mounted_dev_list():
 804a440:	55                   	push   %ebp
 804a441:	89 e5                	mov    %esp,%ebp
 804a443:	83 ec 18             	sub    $0x18,%esp
 804a446:	a1 14 f2 05 08       	mov    0x805f214,%eax
 804a44b:	85 c0                	test   %eax,%eax
 804a44d:	74 17                	je     804a466 <refresh_mounted_dev_list+0x26>
 804a44f:	a1 14 f2 05 08       	mov    0x805f214,%eax
 804a454:	89 04 24             	mov    %eax,(%esp)
 804a457:	e8 d4 ed ff ff       	call   8049230 <free@plt>
 804a45c:	c7 05 14 f2 05 08 00 	movl   $0x0,0x805f214
 804a463:	00 00 00 
 804a466:	c7 05 18 f2 05 08 00 	movl   $0x0,0x805f218
 804a46d:	00 00 00 
 804a470:	e8 58 ff ff ff       	call   804a3cd <init_mounted_dev_list>
 804a475:	c9                   	leave  
 804a476:	c3                   	ret    

0804a477 <dev_present>:
dev_present():
 804a477:	55                   	push   %ebp
 804a478:	89 e5                	mov    %esp,%ebp
 804a47a:	53                   	push   %ebx
 804a47b:	83 ec 0c             	sub    $0xc,%esp
 804a47e:	8b 4d 08             	mov    0x8(%ebp),%ecx
 804a481:	89 4d f0             	mov    %ecx,-0x10(%ebp)
 804a484:	8b 4d 0c             	mov    0xc(%ebp),%ecx
 804a487:	89 4d f4             	mov    %ecx,-0xc(%ebp)
 804a48a:	83 7d 10 00          	cmpl   $0x0,0x10(%ebp)
 804a48e:	74 3b                	je     804a4cb <dev_present+0x54>
 804a490:	eb 2a                	jmp    804a4bc <dev_present+0x45>
 804a492:	8b 4d 10             	mov    0x10(%ebp),%ecx
 804a495:	8b 59 04             	mov    0x4(%ecx),%ebx
 804a498:	8b 09                	mov    (%ecx),%ecx
 804a49a:	89 c8                	mov    %ecx,%eax
 804a49c:	33 45 f0             	xor    -0x10(%ebp),%eax
 804a49f:	89 da                	mov    %ebx,%edx
 804a4a1:	33 55 f4             	xor    -0xc(%ebp),%edx
 804a4a4:	89 c1                	mov    %eax,%ecx
 804a4a6:	09 d1                	or     %edx,%ecx
 804a4a8:	85 c9                	test   %ecx,%ecx
 804a4aa:	0f 94 c1             	sete   %cl
 804a4ad:	83 45 10 08          	addl   $0x8,0x10(%ebp)
 804a4b1:	84 c9                	test   %cl,%cl
 804a4b3:	74 07                	je     804a4bc <dev_present+0x45>
 804a4b5:	b8 01 00 00 00       	mov    $0x1,%eax
 804a4ba:	eb 14                	jmp    804a4d0 <dev_present+0x59>
 804a4bc:	83 7d 14 00          	cmpl   $0x0,0x14(%ebp)
 804a4c0:	0f 95 c1             	setne  %cl
 804a4c3:	83 6d 14 01          	subl   $0x1,0x14(%ebp)
 804a4c7:	84 c9                	test   %cl,%cl
 804a4c9:	75 c7                	jne    804a492 <dev_present+0x1b>
 804a4cb:	b8 00 00 00 00       	mov    $0x0,%eax
 804a4d0:	83 c4 0c             	add    $0xc,%esp
 804a4d3:	5b                   	pop    %ebx
 804a4d4:	5d                   	pop    %ebp
 804a4d5:	c3                   	ret    

0804a4d6 <get_mount_state>:
get_mount_state():
 804a4d6:	55                   	push   %ebp
 804a4d7:	89 e5                	mov    %esp,%ebp
 804a4d9:	83 ec 38             	sub    $0x38,%esp
 804a4dc:	8b 45 08             	mov    0x8(%ebp),%eax
 804a4df:	89 45 e0             	mov    %eax,-0x20(%ebp)
 804a4e2:	8b 45 0c             	mov    0xc(%ebp),%eax
 804a4e5:	89 45 e4             	mov    %eax,-0x1c(%ebp)
 804a4e8:	8b 15 18 f2 05 08    	mov    0x805f218,%edx
 804a4ee:	a1 14 f2 05 08       	mov    0x805f214,%eax
 804a4f3:	89 54 24 0c          	mov    %edx,0xc(%esp)
 804a4f7:	89 44 24 08          	mov    %eax,0x8(%esp)
 804a4fb:	8b 45 e0             	mov    -0x20(%ebp),%eax
 804a4fe:	8b 55 e4             	mov    -0x1c(%ebp),%edx
 804a501:	89 04 24             	mov    %eax,(%esp)
 804a504:	89 54 24 04          	mov    %edx,0x4(%esp)
 804a508:	e8 6a ff ff ff       	call   804a477 <dev_present>
 804a50d:	89 45 f0             	mov    %eax,-0x10(%ebp)
 804a510:	e8 2b ff ff ff       	call   804a440 <refresh_mounted_dev_list>
 804a515:	8b 15 18 f2 05 08    	mov    0x805f218,%edx
 804a51b:	a1 14 f2 05 08       	mov    0x805f214,%eax
 804a520:	89 54 24 0c          	mov    %edx,0xc(%esp)
 804a524:	89 44 24 08          	mov    %eax,0x8(%esp)
 804a528:	8b 45 e0             	mov    -0x20(%ebp),%eax
 804a52b:	8b 55 e4             	mov    -0x1c(%ebp),%edx
 804a52e:	89 04 24             	mov    %eax,(%esp)
 804a531:	89 54 24 04          	mov    %edx,0x4(%esp)
 804a535:	e8 3d ff ff ff       	call   804a477 <dev_present>
 804a53a:	89 45 f4             	mov    %eax,-0xc(%ebp)
 804a53d:	8b 45 f0             	mov    -0x10(%ebp),%eax
 804a540:	3b 45 f4             	cmp    -0xc(%ebp),%eax
 804a543:	75 07                	jne    804a54c <get_mount_state+0x76>
 804a545:	b8 02 00 00 00       	mov    $0x2,%eax
 804a54a:	eb 12                	jmp    804a55e <get_mount_state+0x88>
 804a54c:	83 7d f4 00          	cmpl   $0x0,-0xc(%ebp)
 804a550:	74 07                	je     804a559 <get_mount_state+0x83>
 804a552:	b8 00 00 00 00       	mov    $0x0,%eax
 804a557:	eb 05                	jmp    804a55e <get_mount_state+0x88>
 804a559:	b8 01 00 00 00       	mov    $0x1,%eax
 804a55e:	c9                   	leave  
 804a55f:	c3                   	ret    

0804a560 <fs_likely_to_be_automounted>:
fs_likely_to_be_automounted():
 804a560:	55                   	push   %ebp
 804a561:	89 e5                	mov    %esp,%ebp
 804a563:	57                   	push   %edi
 804a564:	56                   	push   %esi
 804a565:	8b 45 08             	mov    0x8(%ebp),%eax
 804a568:	89 c2                	mov    %eax,%edx
 804a56a:	b8 68 80 05 08       	mov    $0x8058068,%eax
 804a56f:	b9 04 00 00 00       	mov    $0x4,%ecx
 804a574:	89 d6                	mov    %edx,%esi
 804a576:	89 c7                	mov    %eax,%edi
 804a578:	f3 a6                	repz cmpsb %es:(%edi),%ds:(%esi)
 804a57a:	0f 97 c2             	seta   %dl
 804a57d:	0f 92 c0             	setb   %al
 804a580:	89 d1                	mov    %edx,%ecx
 804a582:	28 c1                	sub    %al,%cl
 804a584:	89 c8                	mov    %ecx,%eax
 804a586:	0f be c0             	movsbl %al,%eax
 804a589:	85 c0                	test   %eax,%eax
 804a58b:	74 50                	je     804a5dd <fs_likely_to_be_automounted+0x7d>
 804a58d:	8b 45 08             	mov    0x8(%ebp),%eax
 804a590:	89 c2                	mov    %eax,%edx
 804a592:	b8 6c 80 05 08       	mov    $0x805806c,%eax
 804a597:	b9 07 00 00 00       	mov    $0x7,%ecx
 804a59c:	89 d6                	mov    %edx,%esi
 804a59e:	89 c7                	mov    %eax,%edi
 804a5a0:	f3 a6                	repz cmpsb %es:(%edi),%ds:(%esi)
 804a5a2:	0f 97 c2             	seta   %dl
 804a5a5:	0f 92 c0             	setb   %al
 804a5a8:	89 d1                	mov    %edx,%ecx
 804a5aa:	28 c1                	sub    %al,%cl
 804a5ac:	89 c8                	mov    %ecx,%eax
 804a5ae:	0f be c0             	movsbl %al,%eax
 804a5b1:	85 c0                	test   %eax,%eax
 804a5b3:	74 28                	je     804a5dd <fs_likely_to_be_automounted+0x7d>
 804a5b5:	8b 45 08             	mov    0x8(%ebp),%eax
 804a5b8:	89 c2                	mov    %eax,%edx
 804a5ba:	b8 73 80 05 08       	mov    $0x8058073,%eax
 804a5bf:	b9 06 00 00 00       	mov    $0x6,%ecx
 804a5c4:	89 d6                	mov    %edx,%esi
 804a5c6:	89 c7                	mov    %eax,%edi
 804a5c8:	f3 a6                	repz cmpsb %es:(%edi),%ds:(%esi)
 804a5ca:	0f 97 c2             	seta   %dl
 804a5cd:	0f 92 c0             	setb   %al
 804a5d0:	89 d1                	mov    %edx,%ecx
 804a5d2:	28 c1                	sub    %al,%cl
 804a5d4:	89 c8                	mov    %ecx,%eax
 804a5d6:	0f be c0             	movsbl %al,%eax
 804a5d9:	85 c0                	test   %eax,%eax
 804a5db:	75 07                	jne    804a5e4 <fs_likely_to_be_automounted+0x84>
 804a5dd:	b8 01 00 00 00       	mov    $0x1,%eax
 804a5e2:	eb 05                	jmp    804a5e9 <fs_likely_to_be_automounted+0x89>
 804a5e4:	b8 00 00 00 00       	mov    $0x0,%eax
 804a5e9:	5e                   	pop    %esi
 804a5ea:	5f                   	pop    %edi
 804a5eb:	5d                   	pop    %ebp
 804a5ec:	c3                   	ret    

0804a5ed <wd_sanity_check>:
wd_sanity_check():
 804a5ed:	55                   	push   %ebp
 804a5ee:	89 e5                	mov    %esp,%ebp
 804a5f0:	57                   	push   %edi
 804a5f1:	56                   	push   %esi
 804a5f2:	53                   	push   %ebx
 804a5f3:	83 ec 5c             	sub    $0x5c,%esp
 804a5f6:	8b 45 14             	mov    0x14(%ebp),%eax
 804a5f9:	89 45 d0             	mov    %eax,-0x30(%ebp)
 804a5fc:	8b 45 18             	mov    0x18(%ebp),%eax
 804a5ff:	89 45 d4             	mov    %eax,-0x2c(%ebp)
 804a602:	8b 45 1c             	mov    0x1c(%ebp),%eax
 804a605:	89 45 c8             	mov    %eax,-0x38(%ebp)
 804a608:	8b 45 20             	mov    0x20(%ebp),%eax
 804a60b:	89 45 cc             	mov    %eax,-0x34(%ebp)
 804a60e:	c7 45 d8 00 00 00 00 	movl   $0x0,-0x28(%ebp)
 804a615:	c7 45 dc 00 00 00 00 	movl   $0x0,-0x24(%ebp)
 804a61c:	8b 45 38             	mov    0x38(%ebp),%eax
 804a61f:	c6 00 00             	movb   $0x0,(%eax)
 804a622:	8b 15 24 f7 05 08    	mov    0x805f724,%edx
 804a628:	8b 45 24             	mov    0x24(%ebp),%eax
 804a62b:	89 44 24 04          	mov    %eax,0x4(%esp)
 804a62f:	c7 04 24 88 7e 05 08 	movl   $0x8057e88,(%esp)
 804a636:	ff d2                	call   *%edx
 804a638:	85 c0                	test   %eax,%eax
 804a63a:	74 26                	je     804a662 <wd_sanity_check+0x75>
 804a63c:	e8 6f ef ff ff       	call   80495b0 <__errno_location@plt>
 804a641:	8b 00                	mov    (%eax),%eax
 804a643:	8b 55 08             	mov    0x8(%ebp),%edx
 804a646:	89 54 24 0c          	mov    %edx,0xc(%esp)
 804a64a:	c7 44 24 08 8a 7e 05 	movl   $0x8057e8a,0x8(%esp)
 804a651:	08 
 804a652:	89 44 24 04          	mov    %eax,0x4(%esp)
 804a656:	c7 04 24 01 00 00 00 	movl   $0x1,(%esp)
 804a65d:	e8 fe ed ff ff       	call   8049460 <error@plt>
 804a662:	8b 45 24             	mov    0x24(%ebp),%eax
 804a665:	8b 50 04             	mov    0x4(%eax),%edx
 804a668:	8b 00                	mov    (%eax),%eax
 804a66a:	89 d1                	mov    %edx,%ecx
 804a66c:	33 4d d4             	xor    -0x2c(%ebp),%ecx
 804a66f:	33 45 d0             	xor    -0x30(%ebp),%eax
 804a672:	09 c8                	or     %ecx,%eax
 804a674:	85 c0                	test   %eax,%eax
 804a676:	0f 84 7d 01 00 00    	je     804a7f9 <wd_sanity_check+0x20c>
 804a67c:	8b 45 38             	mov    0x38(%ebp),%eax
 804a67f:	c6 00 01             	movb   $0x1,(%eax)
 804a682:	8b 45 10             	mov    0x10(%ebp),%eax
 804a685:	89 04 24             	mov    %eax,(%esp)
 804a688:	e8 68 fc ff ff       	call   804a2f5 <specific_dirname>
 804a68d:	89 45 d8             	mov    %eax,-0x28(%ebp)
 804a690:	8b 45 24             	mov    0x24(%ebp),%eax
 804a693:	89 04 24             	mov    %eax,(%esp)
 804a696:	e8 f4 14 00 00       	call   804bb8f <filesystem_type>
 804a69b:	89 45 e0             	mov    %eax,-0x20(%ebp)
 804a69e:	8b 45 e0             	mov    -0x20(%ebp),%eax
 804a6a1:	89 04 24             	mov    %eax,(%esp)
 804a6a4:	e8 b7 fe ff ff       	call   804a560 <fs_likely_to_be_automounted>
 804a6a9:	89 45 dc             	mov    %eax,-0x24(%ebp)
 804a6ac:	83 7d 30 01          	cmpl   $0x1,0x30(%ebp)
 804a6b0:	0f 85 a1 00 00 00    	jne    804a757 <wd_sanity_check+0x16a>
 804a6b6:	8b 45 24             	mov    0x24(%ebp),%eax
 804a6b9:	8b 50 04             	mov    0x4(%eax),%edx
 804a6bc:	8b 00                	mov    (%eax),%eax
 804a6be:	89 04 24             	mov    %eax,(%esp)
 804a6c1:	89 54 24 04          	mov    %edx,0x4(%esp)
 804a6c5:	e8 0c fe ff ff       	call   804a4d6 <get_mount_state>
 804a6ca:	89 45 e4             	mov    %eax,-0x1c(%ebp)
 804a6cd:	8b 45 e4             	mov    -0x1c(%ebp),%eax
 804a6d0:	83 f8 01             	cmp    $0x1,%eax
 804a6d3:	74 0a                	je     804a6df <wd_sanity_check+0xf2>
 804a6d5:	83 f8 01             	cmp    $0x1,%eax
 804a6d8:	72 3f                	jb     804a719 <wd_sanity_check+0x12c>
 804a6da:	83 f8 02             	cmp    $0x2,%eax
 804a6dd:	eb 78                	jmp    804a757 <wd_sanity_check+0x16a>
 804a6df:	c7 45 34 01 00 00 00 	movl   $0x1,0x34(%ebp)
 804a6e6:	83 7d dc 00          	cmpl   $0x0,-0x24(%ebp)
 804a6ea:	75 67                	jne    804a753 <wd_sanity_check+0x166>
 804a6ec:	c7 04 24 7c 80 05 08 	movl   $0x805807c,(%esp)
 804a6f3:	e8 f8 ed ff ff       	call   80494f0 <gettext@plt>
 804a6f8:	8b 55 d8             	mov    -0x28(%ebp),%edx
 804a6fb:	89 54 24 0c          	mov    %edx,0xc(%esp)
 804a6ff:	89 44 24 08          	mov    %eax,0x8(%esp)
 804a703:	c7 44 24 04 00 00 00 	movl   $0x0,0x4(%esp)
 804a70a:	00 
 804a70b:	c7 04 24 00 00 00 00 	movl   $0x0,(%esp)
 804a712:	e8 49 ed ff ff       	call   8049460 <error@plt>
 804a717:	eb 3a                	jmp    804a753 <wd_sanity_check+0x166>
 804a719:	c7 45 34 01 00 00 00 	movl   $0x1,0x34(%ebp)
 804a720:	83 7d dc 00          	cmpl   $0x0,-0x24(%ebp)
 804a724:	75 30                	jne    804a756 <wd_sanity_check+0x169>
 804a726:	c7 04 24 b0 80 05 08 	movl   $0x80580b0,(%esp)
 804a72d:	e8 be ed ff ff       	call   80494f0 <gettext@plt>
 804a732:	8b 55 d8             	mov    -0x28(%ebp),%edx
 804a735:	89 54 24 0c          	mov    %edx,0xc(%esp)
 804a739:	89 44 24 08          	mov    %eax,0x8(%esp)
 804a73d:	c7 44 24 04 00 00 00 	movl   $0x0,0x4(%esp)
 804a744:	00 
 804a745:	c7 04 24 00 00 00 00 	movl   $0x0,(%esp)
 804a74c:	e8 0f ed ff ff       	call   8049460 <error@plt>
 804a751:	eb 03                	jmp    804a756 <wd_sanity_check+0x169>
 804a753:	90                   	nop
 804a754:	eb 01                	jmp    804a757 <wd_sanity_check+0x16a>
 804a756:	90                   	nop
 804a757:	83 7d 34 00          	cmpl   $0x0,0x34(%ebp)
 804a75b:	0f 85 83 00 00 00    	jne    804a7e4 <wd_sanity_check+0x1f7>
 804a761:	8b 45 24             	mov    0x24(%ebp),%eax
 804a764:	89 04 24             	mov    %eax,(%esp)
 804a767:	e8 23 14 00 00       	call   804bb8f <filesystem_type>
 804a76c:	89 45 e0             	mov    %eax,-0x20(%ebp)
 804a76f:	8b 45 24             	mov    0x24(%ebp),%eax
 804a772:	8b 50 04             	mov    0x4(%eax),%edx
 804a775:	8b 00                	mov    (%eax),%eax
 804a777:	89 c7                	mov    %eax,%edi
 804a779:	8b 75 d0             	mov    -0x30(%ebp),%esi
 804a77c:	83 7d 28 00          	cmpl   $0x0,0x28(%ebp)
 804a780:	74 07                	je     804a789 <wd_sanity_check+0x19c>
 804a782:	bb e2 80 05 08       	mov    $0x80580e2,%ebx
 804a787:	eb 05                	jmp    804a78e <wd_sanity_check+0x1a1>
 804a789:	bb 9b 7e 05 08       	mov    $0x8057e9b,%ebx
 804a78e:	c7 04 24 e8 80 05 08 	movl   $0x80580e8,(%esp)
 804a795:	e8 56 ed ff ff       	call   80494f0 <gettext@plt>
 804a79a:	8b 55 2c             	mov    0x2c(%ebp),%edx
 804a79d:	89 54 24 24          	mov    %edx,0x24(%esp)
 804a7a1:	8b 55 e0             	mov    -0x20(%ebp),%edx
 804a7a4:	89 54 24 20          	mov    %edx,0x20(%esp)
 804a7a8:	89 7c 24 1c          	mov    %edi,0x1c(%esp)
 804a7ac:	89 74 24 18          	mov    %esi,0x18(%esp)
 804a7b0:	8b 55 0c             	mov    0xc(%ebp),%edx
 804a7b3:	89 54 24 14          	mov    %edx,0x14(%esp)
 804a7b7:	89 5c 24 10          	mov    %ebx,0x10(%esp)
 804a7bb:	8b 55 d8             	mov    -0x28(%ebp),%edx
 804a7be:	89 54 24 0c          	mov    %edx,0xc(%esp)
 804a7c2:	89 44 24 08          	mov    %eax,0x8(%esp)
 804a7c6:	c7 44 24 04 00 00 00 	movl   $0x0,0x4(%esp)
 804a7cd:	00 
 804a7ce:	c7 04 24 01 00 00 00 	movl   $0x1,(%esp)
 804a7d5:	e8 86 ec ff ff       	call   8049460 <error@plt>
 804a7da:	b8 00 00 00 00       	mov    $0x0,%eax
 804a7df:	e9 db 00 00 00       	jmp    804a8bf <wd_sanity_check+0x2d2>
 804a7e4:	8b 45 d8             	mov    -0x28(%ebp),%eax
 804a7e7:	89 04 24             	mov    %eax,(%esp)
 804a7ea:	e8 41 ea ff ff       	call   8049230 <free@plt>
 804a7ef:	b8 01 00 00 00       	mov    $0x1,%eax
 804a7f4:	e9 c6 00 00 00       	jmp    804a8bf <wd_sanity_check+0x2d2>
 804a7f9:	8b 45 24             	mov    0x24(%ebp),%eax
 804a7fc:	8b 50 5c             	mov    0x5c(%eax),%edx
 804a7ff:	8b 40 58             	mov    0x58(%eax),%eax
 804a802:	89 d1                	mov    %edx,%ecx
 804a804:	33 4d cc             	xor    -0x34(%ebp),%ecx
 804a807:	33 45 c8             	xor    -0x38(%ebp),%eax
 804a80a:	09 c8                	or     %ecx,%eax
 804a80c:	85 c0                	test   %eax,%eax
 804a80e:	0f 84 a6 00 00 00    	je     804a8ba <wd_sanity_check+0x2cd>
 804a814:	8b 45 38             	mov    0x38(%ebp),%eax
 804a817:	c6 00 01             	movb   $0x1,(%eax)
 804a81a:	8b 45 10             	mov    0x10(%ebp),%eax
 804a81d:	89 04 24             	mov    %eax,(%esp)
 804a820:	e8 d0 fa ff ff       	call   804a2f5 <specific_dirname>
 804a825:	89 45 d8             	mov    %eax,-0x28(%ebp)
 804a828:	8b 45 24             	mov    0x24(%ebp),%eax
 804a82b:	89 04 24             	mov    %eax,(%esp)
 804a82e:	e8 5c 13 00 00       	call   804bb8f <filesystem_type>
 804a833:	89 45 e0             	mov    %eax,-0x20(%ebp)
 804a836:	8b 45 24             	mov    0x24(%ebp),%eax
 804a839:	8b 50 5c             	mov    0x5c(%eax),%edx
 804a83c:	8b 40 58             	mov    0x58(%eax),%eax
 804a83f:	89 c7                	mov    %eax,%edi
 804a841:	8b 75 c8             	mov    -0x38(%ebp),%esi
 804a844:	83 7d 28 00          	cmpl   $0x0,0x28(%ebp)
 804a848:	74 07                	je     804a851 <wd_sanity_check+0x264>
 804a84a:	bb e2 80 05 08       	mov    $0x80580e2,%ebx
 804a84f:	eb 05                	jmp    804a856 <wd_sanity_check+0x269>
 804a851:	bb 9b 7e 05 08       	mov    $0x8057e9b,%ebx
 804a856:	c7 04 24 5c 81 05 08 	movl   $0x805815c,(%esp)
 804a85d:	e8 8e ec ff ff       	call   80494f0 <gettext@plt>
 804a862:	83 7d 34 00          	cmpl   $0x0,0x34(%ebp)
 804a866:	0f 94 c2             	sete   %dl
 804a869:	0f b6 d2             	movzbl %dl,%edx
 804a86c:	8b 4d 2c             	mov    0x2c(%ebp),%ecx
 804a86f:	89 4c 24 24          	mov    %ecx,0x24(%esp)
 804a873:	8b 4d e0             	mov    -0x20(%ebp),%ecx
 804a876:	89 4c 24 20          	mov    %ecx,0x20(%esp)
 804a87a:	89 7c 24 1c          	mov    %edi,0x1c(%esp)
 804a87e:	89 74 24 18          	mov    %esi,0x18(%esp)
 804a882:	8b 4d 0c             	mov    0xc(%ebp),%ecx
 804a885:	89 4c 24 14          	mov    %ecx,0x14(%esp)
 804a889:	89 5c 24 10          	mov    %ebx,0x10(%esp)
 804a88d:	8b 4d d8             	mov    -0x28(%ebp),%ecx
 804a890:	89 4c 24 0c          	mov    %ecx,0xc(%esp)
 804a894:	89 44 24 08          	mov    %eax,0x8(%esp)
 804a898:	c7 44 24 04 00 00 00 	movl   $0x0,0x4(%esp)
 804a89f:	00 
 804a8a0:	89 14 24             	mov    %edx,(%esp)
 804a8a3:	e8 b8 eb ff ff       	call   8049460 <error@plt>
 804a8a8:	8b 45 d8             	mov    -0x28(%ebp),%eax
 804a8ab:	89 04 24             	mov    %eax,(%esp)
 804a8ae:	e8 7d e9 ff ff       	call   8049230 <free@plt>
 804a8b3:	b8 00 00 00 00       	mov    $0x0,%eax
 804a8b8:	eb 05                	jmp    804a8bf <wd_sanity_check+0x2d2>
 804a8ba:	b8 01 00 00 00       	mov    $0x1,%eax
 804a8bf:	83 c4 5c             	add    $0x5c,%esp
 804a8c2:	5b                   	pop    %ebx
 804a8c3:	5e                   	pop    %esi
 804a8c4:	5f                   	pop    %edi
 804a8c5:	5d                   	pop    %ebp
 804a8c6:	c3                   	ret    

0804a8c7 <safely_chdir_lstat>:
safely_chdir_lstat():
 804a8c7:	55                   	push   %ebp
 804a8c8:	89 e5                	mov    %esp,%ebp
 804a8ca:	57                   	push   %edi
 804a8cb:	56                   	push   %esi
 804a8cc:	53                   	push   %ebx
 804a8cd:	81 ec cc 00 00 00    	sub    $0xcc,%esp
 804a8d3:	c7 45 e0 ff ff ff ff 	movl   $0xffffffff,-0x20(%ebp)
 804a8da:	c7 45 dc 00 00 00 00 	movl   $0x0,-0x24(%ebp)
 804a8e1:	c6 45 e7 00          	movb   $0x0,-0x19(%ebp)
 804a8e5:	a1 10 f2 05 08       	mov    0x805f210,%eax
 804a8ea:	89 04 24             	mov    %eax,(%esp)
 804a8ed:	e8 c0 0b 00 00       	call   804b4b2 <complete_pending_execdirs>
 804a8f2:	e8 b9 ec ff ff       	call   80495b0 <__errno_location@plt>
 804a8f7:	c7 00 00 00 00 00    	movl   $0x0,(%eax)
 804a8fd:	8b 00                	mov    (%eax),%eax
 804a8ff:	89 45 d8             	mov    %eax,-0x28(%ebp)
 804a902:	c7 04 24 00 00 00 00 	movl   $0x0,(%esp)
 804a909:	e8 92 e9 ff ff       	call   80492a0 <time@plt>
 804a90e:	c7 04 24 88 7e 05 08 	movl   $0x8057e88,(%esp)
 804a915:	e8 76 ee ff ff       	call   8049790 <opendir@plt>
 804a91a:	c7 04 24 00 00 00 00 	movl   $0x0,(%esp)
 804a921:	e8 7a e9 ff ff       	call   80492a0 <time@plt>
 804a926:	c7 44 24 04 00 00 00 	movl   $0x0,0x4(%esp)
 804a92d:	00 
 804a92e:	c7 04 24 88 7e 05 08 	movl   $0x8057e88,(%esp)
 804a935:	e8 96 e8 ff ff       	call   80491d0 <open64@plt>
 804a93a:	89 45 e0             	mov    %eax,-0x20(%ebp)
 804a93d:	83 7d e0 00          	cmpl   $0x0,-0x20(%ebp)
 804a941:	0f 88 ff 01 00 00    	js     804ab46 <safely_chdir_lstat+0x27f>
 804a947:	8b 15 24 f7 05 08    	mov    0x805f724,%edx
 804a94d:	8b 45 10             	mov    0x10(%ebp),%eax
 804a950:	89 44 24 04          	mov    %eax,0x4(%esp)
 804a954:	8b 45 08             	mov    0x8(%ebp),%eax
 804a957:	89 04 24             	mov    %eax,(%esp)
 804a95a:	ff d2                	call   *%edx
 804a95c:	85 c0                	test   %eax,%eax
 804a95e:	0f 85 a7 01 00 00    	jne    804ab0b <safely_chdir_lstat+0x244>
 804a964:	e8 3b ef ff ff       	call   80498a4 <following_links>
 804a969:	85 c0                	test   %eax,%eax
 804a96b:	75 5f                	jne    804a9cc <safely_chdir_lstat+0x105>
 804a96d:	8b 45 10             	mov    0x10(%ebp),%eax
 804a970:	8b 40 10             	mov    0x10(%eax),%eax
 804a973:	25 00 f0 00 00       	and    $0xf000,%eax
 804a978:	3d 00 a0 00 00       	cmp    $0xa000,%eax
 804a97d:	75 4d                	jne    804a9cc <safely_chdir_lstat+0x105>
 804a97f:	83 7d 14 01          	cmpl   $0x1,0x14(%ebp)
 804a983:	75 30                	jne    804a9b5 <safely_chdir_lstat+0xee>
 804a985:	8b 45 10             	mov    0x10(%ebp),%eax
 804a988:	89 44 24 04          	mov    %eax,0x4(%esp)
 804a98c:	8b 45 08             	mov    0x8(%ebp),%eax
 804a98f:	89 04 24             	mov    %eax,(%esp)
 804a992:	e8 39 d4 00 00       	call   8057dd0 <stat64>
 804a997:	85 c0                	test   %eax,%eax
 804a999:	74 31                	je     804a9cc <safely_chdir_lstat+0x105>
 804a99b:	c7 45 d4 06 00 00 00 	movl   $0x6,-0x2c(%ebp)
 804a9a2:	c6 45 e7 01          	movb   $0x1,-0x19(%ebp)
 804a9a6:	e8 05 ec ff ff       	call   80495b0 <__errno_location@plt>
 804a9ab:	8b 00                	mov    (%eax),%eax
 804a9ad:	89 45 d8             	mov    %eax,-0x28(%ebp)
 804a9b0:	e9 9f 01 00 00       	jmp    804ab54 <safely_chdir_lstat+0x28d>
 804a9b5:	c7 45 d4 01 00 00 00 	movl   $0x1,-0x2c(%ebp)
 804a9bc:	c6 45 e7 01          	movb   $0x1,-0x19(%ebp)
 804a9c0:	c7 45 d8 00 00 00 00 	movl   $0x0,-0x28(%ebp)
 804a9c7:	e9 88 01 00 00       	jmp    804ab54 <safely_chdir_lstat+0x28d>
 804a9cc:	8b 45 10             	mov    0x10(%ebp),%eax
 804a9cf:	8b 40 10             	mov    0x10(%eax),%eax
 804a9d2:	25 00 f0 00 00       	and    $0xf000,%eax
 804a9d7:	3d 00 40 00 00       	cmp    $0x4000,%eax
 804a9dc:	74 17                	je     804a9f5 <safely_chdir_lstat+0x12e>
 804a9de:	c7 45 d4 02 00 00 00 	movl   $0x2,-0x2c(%ebp)
 804a9e5:	c6 45 e7 01          	movb   $0x1,-0x19(%ebp)
 804a9e9:	c7 45 d8 00 00 00 00 	movl   $0x0,-0x28(%ebp)
 804a9f0:	e9 5f 01 00 00       	jmp    804ab54 <safely_chdir_lstat+0x28d>
 804a9f5:	8b 45 08             	mov    0x8(%ebp),%eax
 804a9f8:	89 04 24             	mov    %eax,(%esp)
 804a9fb:	e8 d0 e8 ff ff       	call   80492d0 <chdir@plt>
 804aa00:	85 c0                	test   %eax,%eax
 804aa02:	0f 85 88 00 00 00    	jne    804aa90 <safely_chdir_lstat+0x1c9>
 804aa08:	c6 45 e6 00          	movb   $0x0,-0x1a(%ebp)
 804aa0c:	8b 45 10             	mov    0x10(%ebp),%eax
 804aa0f:	8b 48 58             	mov    0x58(%eax),%ecx
 804aa12:	8b 58 5c             	mov    0x5c(%eax),%ebx
 804aa15:	8b 45 10             	mov    0x10(%ebp),%eax
 804aa18:	8b 50 04             	mov    0x4(%eax),%edx
 804aa1b:	8b 00                	mov    (%eax),%eax
 804aa1d:	8b 35 34 f7 05 08    	mov    0x805f734,%esi
 804aa23:	8d 7d e6             	lea    -0x1a(%ebp),%edi
 804aa26:	89 7c 24 30          	mov    %edi,0x30(%esp)
 804aa2a:	c7 44 24 2c 00 00 00 	movl   $0x0,0x2c(%esp)
 804aa31:	00 
 804aa32:	8b 7d 0c             	mov    0xc(%ebp),%edi
 804aa35:	89 7c 24 28          	mov    %edi,0x28(%esp)
 804aa39:	c7 44 24 24 f5 03 00 	movl   $0x3f5,0x24(%esp)
 804aa40:	00 
 804aa41:	c7 44 24 20 00 00 00 	movl   $0x0,0x20(%esp)
 804aa48:	00 
 804aa49:	8d bd 74 ff ff ff    	lea    -0x8c(%ebp),%edi
 804aa4f:	89 7c 24 1c          	mov    %edi,0x1c(%esp)
 804aa53:	89 4c 24 14          	mov    %ecx,0x14(%esp)
 804aa57:	89 5c 24 18          	mov    %ebx,0x18(%esp)
 804aa5b:	89 44 24 0c          	mov    %eax,0xc(%esp)
 804aa5f:	89 54 24 10          	mov    %edx,0x10(%esp)
 804aa63:	c7 44 24 08 88 7e 05 	movl   $0x8057e88,0x8(%esp)
 804aa6a:	08 
 804aa6b:	89 74 24 04          	mov    %esi,0x4(%esp)
 804aa6f:	c7 04 24 88 7e 05 08 	movl   $0x8057e88,(%esp)
 804aa76:	e8 72 fb ff ff       	call   804a5ed <wd_sanity_check>
 804aa7b:	8b 45 e0             	mov    -0x20(%ebp),%eax
 804aa7e:	89 04 24             	mov    %eax,(%esp)
 804aa81:	e8 da ec ff ff       	call   8049760 <close@plt>
 804aa86:	b8 00 00 00 00       	mov    $0x0,%eax
 804aa8b:	e9 2b 01 00 00       	jmp    804abbb <safely_chdir_lstat+0x2f4>
 804aa90:	e8 1b eb ff ff       	call   80495b0 <__errno_location@plt>
 804aa95:	8b 00                	mov    (%eax),%eax
 804aa97:	89 45 d8             	mov    %eax,-0x28(%ebp)
 804aa9a:	83 7d d8 02          	cmpl   $0x2,-0x28(%ebp)
 804aa9e:	75 36                	jne    804aad6 <safely_chdir_lstat+0x20f>
 804aaa0:	c7 45 d4 06 00 00 00 	movl   $0x6,-0x2c(%ebp)
 804aaa7:	c6 45 e7 01          	movb   $0x1,-0x19(%ebp)
 804aaab:	0f b6 05 0e f7 05 08 	movzbl 0x805f70e,%eax
 804aab2:	84 c0                	test   %al,%al
 804aab4:	74 10                	je     804aac6 <safely_chdir_lstat+0x1ff>
 804aab6:	e8 f5 ea ff ff       	call   80495b0 <__errno_location@plt>
 804aabb:	c7 00 00 00 00 00    	movl   $0x0,(%eax)
 804aac1:	e9 8e 00 00 00       	jmp    804ab54 <safely_chdir_lstat+0x28d>
 804aac6:	8b 45 08             	mov    0x8(%ebp),%eax
 804aac9:	89 04 24             	mov    %eax,(%esp)
 804aacc:	e8 24 f8 ff ff       	call   804a2f5 <specific_dirname>
 804aad1:	89 45 dc             	mov    %eax,-0x24(%ebp)
 804aad4:	eb 7e                	jmp    804ab54 <safely_chdir_lstat+0x28d>
 804aad6:	83 7d d8 14          	cmpl   $0x14,-0x28(%ebp)
 804aada:	75 14                	jne    804aaf0 <safely_chdir_lstat+0x229>
 804aadc:	c7 45 d8 00 00 00 00 	movl   $0x0,-0x28(%ebp)
 804aae3:	c7 45 d4 02 00 00 00 	movl   $0x2,-0x2c(%ebp)
 804aaea:	c6 45 e7 01          	movb   $0x1,-0x19(%ebp)
 804aaee:	eb 64                	jmp    804ab54 <safely_chdir_lstat+0x28d>
 804aaf0:	c7 45 d4 05 00 00 00 	movl   $0x5,-0x2c(%ebp)
 804aaf7:	c6 45 e7 01          	movb   $0x1,-0x19(%ebp)
 804aafb:	8b 45 08             	mov    0x8(%ebp),%eax
 804aafe:	89 04 24             	mov    %eax,(%esp)
 804ab01:	e8 ef f7 ff ff       	call   804a2f5 <specific_dirname>
 804ab06:	89 45 dc             	mov    %eax,-0x24(%ebp)
 804ab09:	eb 49                	jmp    804ab54 <safely_chdir_lstat+0x28d>
 804ab0b:	e8 a0 ea ff ff       	call   80495b0 <__errno_location@plt>
 804ab10:	8b 00                	mov    (%eax),%eax
 804ab12:	89 45 d8             	mov    %eax,-0x28(%ebp)
 804ab15:	c7 45 d4 03 00 00 00 	movl   $0x3,-0x2c(%ebp)
 804ab1c:	c6 45 e7 01          	movb   $0x1,-0x19(%ebp)
 804ab20:	8b 45 08             	mov    0x8(%ebp),%eax
 804ab23:	89 04 24             	mov    %eax,(%esp)
 804ab26:	e8 ca f7 ff ff       	call   804a2f5 <specific_dirname>
 804ab2b:	89 45 dc             	mov    %eax,-0x24(%ebp)
 804ab2e:	83 7d d8 02          	cmpl   $0x2,-0x28(%ebp)
 804ab32:	74 09                	je     804ab3d <safely_chdir_lstat+0x276>
 804ab34:	a1 60 f6 05 08       	mov    0x805f660,%eax
 804ab39:	85 c0                	test   %eax,%eax
 804ab3b:	75 16                	jne    804ab53 <safely_chdir_lstat+0x28c>
 804ab3d:	c7 45 d8 00 00 00 00 	movl   $0x0,-0x28(%ebp)
 804ab44:	eb 0d                	jmp    804ab53 <safely_chdir_lstat+0x28c>
 804ab46:	c7 45 d4 04 00 00 00 	movl   $0x4,-0x2c(%ebp)
 804ab4d:	c6 45 e7 01          	movb   $0x1,-0x19(%ebp)
 804ab51:	eb 01                	jmp    804ab54 <safely_chdir_lstat+0x28d>
 804ab53:	90                   	nop
 804ab54:	83 7d d8 00          	cmpl   $0x0,-0x28(%ebp)
 804ab58:	74 0a                	je     804ab64 <safely_chdir_lstat+0x29d>
 804ab5a:	e8 51 ea ff ff       	call   80495b0 <__errno_location@plt>
 804ab5f:	8b 55 d8             	mov    -0x28(%ebp),%edx
 804ab62:	89 10                	mov    %edx,(%eax)
 804ab64:	8b 45 dc             	mov    -0x24(%ebp),%eax
 804ab67:	89 04 24             	mov    %eax,(%esp)
 804ab6a:	e8 c1 e6 ff ff       	call   8049230 <free@plt>
 804ab6f:	c7 45 dc 00 00 00 00 	movl   $0x0,-0x24(%ebp)
 804ab76:	83 7d e0 00          	cmpl   $0x0,-0x20(%ebp)
 804ab7a:	78 12                	js     804ab8e <safely_chdir_lstat+0x2c7>
 804ab7c:	8b 45 e0             	mov    -0x20(%ebp),%eax
 804ab7f:	89 04 24             	mov    %eax,(%esp)
 804ab82:	e8 d9 eb ff ff       	call   8049760 <close@plt>
 804ab87:	c7 45 e0 ff ff ff ff 	movl   $0xffffffff,-0x20(%ebp)
 804ab8e:	80 7d e7 00          	cmpb   $0x0,-0x19(%ebp)
 804ab92:	75 24                	jne    804abb8 <safely_chdir_lstat+0x2f1>
 804ab94:	c7 44 24 0c 7c 84 05 	movl   $0x805847c,0xc(%esp)
 804ab9b:	08 
 804ab9c:	c7 44 24 08 44 04 00 	movl   $0x444,0x8(%esp)
 804aba3:	00 
 804aba4:	c7 44 24 04 28 80 05 	movl   $0x8058028,0x4(%esp)
 804abab:	08 
 804abac:	c7 04 24 ce 81 05 08 	movl   $0x80581ce,(%esp)
 804abb3:	e8 f8 eb ff ff       	call   80497b0 <__assert_fail@plt>
 804abb8:	8b 45 d4             	mov    -0x2c(%ebp),%eax
 804abbb:	81 c4 cc 00 00 00    	add    $0xcc,%esp
 804abc1:	5b                   	pop    %ebx
 804abc2:	5e                   	pop    %esi
 804abc3:	5f                   	pop    %edi
 804abc4:	5d                   	pop    %ebp
 804abc5:	c3                   	ret    

0804abc6 <safely_chdir_nofollow>:
safely_chdir_nofollow():
 804abc6:	55                   	push   %ebp
 804abc7:	89 e5                	mov    %esp,%ebp
 804abc9:	83 ec 28             	sub    $0x28,%esp
 804abcc:	e8 d3 ec ff ff       	call   80498a4 <following_links>
 804abd1:	85 c0                	test   %eax,%eax
 804abd3:	74 07                	je     804abdc <safely_chdir_nofollow+0x16>
 804abd5:	b8 00 00 00 00       	mov    $0x0,%eax
 804abda:	eb 05                	jmp    804abe1 <safely_chdir_nofollow+0x1b>
 804abdc:	b8 00 00 02 00       	mov    $0x20000,%eax
 804abe1:	89 45 f4             	mov    %eax,-0xc(%ebp)
 804abe4:	b8 d8 81 05 08       	mov    $0x80581d8,%eax
 804abe9:	8b 55 f4             	mov    -0xc(%ebp),%edx
 804abec:	89 54 24 0c          	mov    %edx,0xc(%esp)
 804abf0:	c7 44 24 08 00 00 02 	movl   $0x20000,0x8(%esp)
 804abf7:	00 
 804abf8:	c7 44 24 04 a4 98 04 	movl   $0x80498a4,0x4(%esp)
 804abff:	08 
 804ac00:	89 04 24             	mov    %eax,(%esp)
 804ac03:	e8 e8 e5 ff ff       	call   80491f0 <printf@plt>
 804ac08:	c7 04 24 00 00 00 00 	movl   $0x0,(%esp)
 804ac0f:	e8 ec e5 ff ff       	call   8049200 <fflush@plt>
 804ac14:	8b 45 f4             	mov    -0xc(%ebp),%eax
 804ac17:	89 44 24 04          	mov    %eax,0x4(%esp)
 804ac1b:	8b 45 08             	mov    0x8(%ebp),%eax
 804ac1e:	89 04 24             	mov    %eax,(%esp)
 804ac21:	e8 aa e5 ff ff       	call   80491d0 <open64@plt>
 804ac26:	89 45 f0             	mov    %eax,-0x10(%ebp)
 804ac29:	83 7d f0 00          	cmpl   $0x0,-0x10(%ebp)
 804ac2d:	79 1e                	jns    804ac4d <safely_chdir_nofollow+0x87>
 804ac2f:	8b 45 f4             	mov    -0xc(%ebp),%eax
 804ac32:	83 c8 01             	or     $0x1,%eax
 804ac35:	89 44 24 04          	mov    %eax,0x4(%esp)
 804ac39:	8b 45 08             	mov    0x8(%ebp),%eax
 804ac3c:	89 04 24             	mov    %eax,(%esp)
 804ac3f:	e8 8c e5 ff ff       	call   80491d0 <open64@plt>
 804ac44:	89 45 f0             	mov    %eax,-0x10(%ebp)
 804ac47:	83 7d f0 00          	cmpl   $0x0,-0x10(%ebp)
 804ac4b:	78 2e                	js     804ac7b <safely_chdir_nofollow+0xb5>
 804ac4d:	8b 45 f0             	mov    -0x10(%ebp),%eax
 804ac50:	89 04 24             	mov    %eax,(%esp)
 804ac53:	e8 f8 e9 ff ff       	call   8049650 <fchdir@plt>
 804ac58:	85 c0                	test   %eax,%eax
 804ac5a:	75 12                	jne    804ac6e <safely_chdir_nofollow+0xa8>
 804ac5c:	8b 45 f0             	mov    -0x10(%ebp),%eax
 804ac5f:	89 04 24             	mov    %eax,(%esp)
 804ac62:	e8 f9 ea ff ff       	call   8049760 <close@plt>
 804ac67:	b8 00 00 00 00       	mov    $0x0,%eax
 804ac6c:	eb 3c                	jmp    804acaa <safely_chdir_nofollow+0xe4>
 804ac6e:	8b 45 f0             	mov    -0x10(%ebp),%eax
 804ac71:	89 04 24             	mov    %eax,(%esp)
 804ac74:	e8 e7 ea ff ff       	call   8049760 <close@plt>
 804ac79:	eb 01                	jmp    804ac7c <safely_chdir_nofollow+0xb6>
 804ac7b:	90                   	nop
 804ac7c:	a1 14 f2 05 08       	mov    0x805f214,%eax
 804ac81:	85 c0                	test   %eax,%eax
 804ac83:	75 05                	jne    804ac8a <safely_chdir_nofollow+0xc4>
 804ac85:	e8 43 f7 ff ff       	call   804a3cd <init_mounted_dev_list>
 804ac8a:	8b 45 14             	mov    0x14(%ebp),%eax
 804ac8d:	89 44 24 0c          	mov    %eax,0xc(%esp)
 804ac91:	8b 45 10             	mov    0x10(%ebp),%eax
 804ac94:	89 44 24 08          	mov    %eax,0x8(%esp)
 804ac98:	8b 45 0c             	mov    0xc(%ebp),%eax
 804ac9b:	89 44 24 04          	mov    %eax,0x4(%esp)
 804ac9f:	8b 45 08             	mov    0x8(%ebp),%eax
 804aca2:	89 04 24             	mov    %eax,(%esp)
 804aca5:	e8 1d fc ff ff       	call   804a8c7 <safely_chdir_lstat>
 804acaa:	c9                   	leave  
 804acab:	c3                   	ret    

0804acac <safely_chdir>:
safely_chdir():
 804acac:	55                   	push   %ebp
 804acad:	89 e5                	mov    %esp,%ebp
 804acaf:	83 ec 18             	sub    $0x18,%esp
 804acb2:	0f b6 05 28 f7 05 08 	movzbl 0x805f728,%eax
 804acb9:	84 c0                	test   %al,%al
 804acbb:	74 22                	je     804acdf <safely_chdir+0x33>
 804acbd:	8b 45 14             	mov    0x14(%ebp),%eax
 804acc0:	89 44 24 0c          	mov    %eax,0xc(%esp)
 804acc4:	8b 45 10             	mov    0x10(%ebp),%eax
 804acc7:	89 44 24 08          	mov    %eax,0x8(%esp)
 804accb:	8b 45 0c             	mov    0xc(%ebp),%eax
 804acce:	89 44 24 04          	mov    %eax,0x4(%esp)
 804acd2:	8b 45 08             	mov    0x8(%ebp),%eax
 804acd5:	89 04 24             	mov    %eax,(%esp)
 804acd8:	e8 e9 fe ff ff       	call   804abc6 <safely_chdir_nofollow>
 804acdd:	eb 20                	jmp    804acff <safely_chdir+0x53>
 804acdf:	8b 45 14             	mov    0x14(%ebp),%eax
 804ace2:	89 44 24 0c          	mov    %eax,0xc(%esp)
 804ace6:	8b 45 10             	mov    0x10(%ebp),%eax
 804ace9:	89 44 24 08          	mov    %eax,0x8(%esp)
 804aced:	8b 45 0c             	mov    0xc(%ebp),%eax
 804acf0:	89 44 24 04          	mov    %eax,0x4(%esp)
 804acf4:	8b 45 08             	mov    0x8(%ebp),%eax
 804acf7:	89 04 24             	mov    %eax,(%esp)
 804acfa:	e8 c8 fb ff ff       	call   804a8c7 <safely_chdir_lstat>
 804acff:	c9                   	leave  
 804ad00:	c3                   	ret    

0804ad01 <chdir_back>:
chdir_back():
 804ad01:	55                   	push   %ebp
 804ad02:	89 e5                	mov    %esp,%ebp
 804ad04:	57                   	push   %edi
 804ad05:	56                   	push   %esi
 804ad06:	53                   	push   %ebx
 804ad07:	81 ec cc 00 00 00    	sub    $0xcc,%esp
 804ad0d:	a1 30 f7 05 08       	mov    0x805f730,%eax
 804ad12:	85 c0                	test   %eax,%eax
 804ad14:	0f 89 d8 00 00 00    	jns    804adf2 <chdir_back+0xf1>
 804ad1a:	a1 14 f2 05 08       	mov    0x805f214,%eax
 804ad1f:	85 c0                	test   %eax,%eax
 804ad21:	75 05                	jne    804ad28 <chdir_back+0x27>
 804ad23:	e8 a5 f6 ff ff       	call   804a3cd <init_mounted_dev_list>
 804ad28:	a1 a0 f1 05 08       	mov    0x805f1a0,%eax
 804ad2d:	89 04 24             	mov    %eax,(%esp)
 804ad30:	e8 9b e5 ff ff       	call   80492d0 <chdir@plt>
 804ad35:	85 c0                	test   %eax,%eax
 804ad37:	74 29                	je     804ad62 <chdir_back+0x61>
 804ad39:	8b 1d a0 f1 05 08    	mov    0x805f1a0,%ebx
 804ad3f:	e8 6c e8 ff ff       	call   80495b0 <__errno_location@plt>
 804ad44:	8b 00                	mov    (%eax),%eax
 804ad46:	89 5c 24 0c          	mov    %ebx,0xc(%esp)
 804ad4a:	c7 44 24 08 8a 7e 05 	movl   $0x8057e8a,0x8(%esp)
 804ad51:	08 
 804ad52:	89 44 24 04          	mov    %eax,0x4(%esp)
 804ad56:	c7 04 24 01 00 00 00 	movl   $0x1,(%esp)
 804ad5d:	e8 fe e6 ff ff       	call   8049460 <error@plt>
 804ad62:	8b 1d d8 f6 05 08    	mov    0x805f6d8,%ebx
 804ad68:	8b 35 dc f6 05 08    	mov    0x805f6dc,%esi
 804ad6e:	8b 15 80 f6 05 08    	mov    0x805f680,%edx
 804ad74:	8b 0d 84 f6 05 08    	mov    0x805f684,%ecx
 804ad7a:	a1 a0 f1 05 08       	mov    0x805f1a0,%eax
 804ad7f:	89 85 74 ff ff ff    	mov    %eax,-0x8c(%ebp)
 804ad85:	a1 34 f7 05 08       	mov    0x805f734,%eax
 804ad8a:	89 85 70 ff ff ff    	mov    %eax,-0x90(%ebp)
 804ad90:	8b 3d a0 f1 05 08    	mov    0x805f1a0,%edi
 804ad96:	8d 45 e7             	lea    -0x19(%ebp),%eax
 804ad99:	89 44 24 30          	mov    %eax,0x30(%esp)
 804ad9d:	c7 44 24 2c 00 00 00 	movl   $0x0,0x2c(%esp)
 804ada4:	00 
 804ada5:	c7 44 24 28 00 00 00 	movl   $0x0,0x28(%esp)
 804adac:	00 
 804adad:	c7 44 24 24 9d 04 00 	movl   $0x49d,0x24(%esp)
 804adb4:	00 
 804adb5:	c7 44 24 20 00 00 00 	movl   $0x0,0x20(%esp)
 804adbc:	00 
 804adbd:	8d 45 84             	lea    -0x7c(%ebp),%eax
 804adc0:	89 44 24 1c          	mov    %eax,0x1c(%esp)
 804adc4:	89 5c 24 14          	mov    %ebx,0x14(%esp)
 804adc8:	89 74 24 18          	mov    %esi,0x18(%esp)
 804adcc:	89 54 24 0c          	mov    %edx,0xc(%esp)
 804add0:	89 4c 24 10          	mov    %ecx,0x10(%esp)
 804add4:	8b 85 74 ff ff ff    	mov    -0x8c(%ebp),%eax
 804adda:	89 44 24 08          	mov    %eax,0x8(%esp)
 804adde:	8b 85 70 ff ff ff    	mov    -0x90(%ebp),%eax
 804ade4:	89 44 24 04          	mov    %eax,0x4(%esp)
 804ade8:	89 3c 24             	mov    %edi,(%esp)
 804adeb:	e8 fd f7 ff ff       	call   804a5ed <wd_sanity_check>
 804adf0:	eb 3a                	jmp    804ae2c <chdir_back+0x12b>
 804adf2:	a1 30 f7 05 08       	mov    0x805f730,%eax
 804adf7:	89 04 24             	mov    %eax,(%esp)
 804adfa:	e8 51 e8 ff ff       	call   8049650 <fchdir@plt>
 804adff:	85 c0                	test   %eax,%eax
 804ae01:	74 29                	je     804ae2c <chdir_back+0x12b>
 804ae03:	8b 1d a0 f1 05 08    	mov    0x805f1a0,%ebx
 804ae09:	e8 a2 e7 ff ff       	call   80495b0 <__errno_location@plt>
 804ae0e:	8b 00                	mov    (%eax),%eax
 804ae10:	89 5c 24 0c          	mov    %ebx,0xc(%esp)
 804ae14:	c7 44 24 08 8a 7e 05 	movl   $0x8057e8a,0x8(%esp)
 804ae1b:	08 
 804ae1c:	89 44 24 04          	mov    %eax,0x4(%esp)
 804ae20:	c7 04 24 01 00 00 00 	movl   $0x1,(%esp)
 804ae27:	e8 34 e6 ff ff       	call   8049460 <error@plt>
 804ae2c:	81 c4 cc 00 00 00    	add    $0xcc,%esp
 804ae32:	5b                   	pop    %ebx
 804ae33:	5e                   	pop    %esi
 804ae34:	5f                   	pop    %edi
 804ae35:	5d                   	pop    %ebp
 804ae36:	c3                   	ret    

0804ae37 <process_top_path>:
process_top_path():
 804ae37:	55                   	push   %ebp
 804ae38:	89 e5                	mov    %esp,%ebp
 804ae3a:	57                   	push   %edi
 804ae3b:	81 ec b4 00 00 00    	sub    $0xb4,%esp
 804ae41:	8b 45 08             	mov    0x8(%ebp),%eax
 804ae44:	89 04 24             	mov    %eax,(%esp)
 804ae47:	e8 74 85 00 00       	call   80533c0 <dir_name>
 804ae4c:	89 45 ec             	mov    %eax,-0x14(%ebp)
 804ae4f:	8b 45 08             	mov    0x8(%ebp),%eax
 804ae52:	89 04 24             	mov    %eax,(%esp)
 804ae55:	e8 e6 85 00 00       	call   8053440 <base_name>
 804ae5a:	89 45 e4             	mov    %eax,-0x1c(%ebp)
 804ae5d:	c7 05 60 f6 05 08 00 	movl   $0x0,0x805f660
 804ae64:	00 00 00 
 804ae67:	8b 45 08             	mov    0x8(%ebp),%eax
 804ae6a:	c7 85 74 ff ff ff ff 	movl   $0xffffffff,-0x8c(%ebp)
 804ae71:	ff ff ff 
 804ae74:	89 c2                	mov    %eax,%edx
 804ae76:	b8 00 00 00 00       	mov    $0x0,%eax
 804ae7b:	8b 8d 74 ff ff ff    	mov    -0x8c(%ebp),%ecx
 804ae81:	89 d7                	mov    %edx,%edi
 804ae83:	f2 ae                	repnz scas %es:(%edi),%al
 804ae85:	89 c8                	mov    %ecx,%eax
 804ae87:	f7 d0                	not    %eax
 804ae89:	83 e8 01             	sub    $0x1,%eax
 804ae8c:	a3 70 f6 05 08       	mov    %eax,0x805f670
 804ae91:	8b 45 ec             	mov    -0x14(%ebp),%eax
 804ae94:	89 44 24 04          	mov    %eax,0x4(%esp)
 804ae98:	8b 45 08             	mov    0x8(%ebp),%eax
 804ae9b:	89 04 24             	mov    %eax,(%esp)
 804ae9e:	e8 1d e3 ff ff       	call   80491c0 <strcmp@plt>
 804aea3:	85 c0                	test   %eax,%eax
 804aea5:	75 12                	jne    804aeb9 <process_top_path+0x82>
 804aea7:	c7 45 e0 00 00 00 00 	movl   $0x0,-0x20(%ebp)
 804aeae:	8b 45 08             	mov    0x8(%ebp),%eax
 804aeb1:	89 45 e4             	mov    %eax,-0x1c(%ebp)
 804aeb4:	e9 cd 00 00 00       	jmp    804af86 <process_top_path+0x14f>
 804aeb9:	c7 45 e0 01 00 00 00 	movl   $0x1,-0x20(%ebp)
 804aec0:	c7 44 24 04 0c 82 05 	movl   $0x805820c,0x4(%esp)
 804aec7:	08 
 804aec8:	8b 45 e4             	mov    -0x1c(%ebp),%eax
 804aecb:	89 04 24             	mov    %eax,(%esp)
 804aece:	e8 ed e2 ff ff       	call   80491c0 <strcmp@plt>
 804aed3:	85 c0                	test   %eax,%eax
 804aed5:	75 09                	jne    804aee0 <process_top_path+0xa9>
 804aed7:	c7 45 e8 00 00 00 00 	movl   $0x0,-0x18(%ebp)
 804aede:	eb 07                	jmp    804aee7 <process_top_path+0xb0>
 804aee0:	c7 45 e8 01 00 00 00 	movl   $0x1,-0x18(%ebp)
 804aee7:	c7 44 24 0c 01 00 00 	movl   $0x1,0xc(%esp)
 804aeee:	00 
 804aeef:	8d 45 80             	lea    -0x80(%ebp),%eax
 804aef2:	89 44 24 08          	mov    %eax,0x8(%esp)
 804aef6:	8b 45 e8             	mov    -0x18(%ebp),%eax
 804aef9:	89 44 24 04          	mov    %eax,0x4(%esp)
 804aefd:	8b 45 ec             	mov    -0x14(%ebp),%eax
 804af00:	89 04 24             	mov    %eax,(%esp)
 804af03:	e8 a4 fd ff ff       	call   804acac <safely_chdir>
 804af08:	89 45 f0             	mov    %eax,-0x10(%ebp)
 804af0b:	83 7d f0 00          	cmpl   $0x0,-0x10(%ebp)
 804af0f:	74 75                	je     804af86 <process_top_path+0x14f>
 804af11:	83 7d f0 04          	cmpl   $0x4,-0x10(%ebp)
 804af15:	74 05                	je     804af1c <process_top_path+0xe5>
 804af17:	8b 45 ec             	mov    -0x14(%ebp),%eax
 804af1a:	eb 05                	jmp    804af21 <process_top_path+0xea>
 804af1c:	b8 88 7e 05 08       	mov    $0x8057e88,%eax
 804af21:	89 45 f4             	mov    %eax,-0xc(%ebp)
 804af24:	e8 87 e6 ff ff       	call   80495b0 <__errno_location@plt>
 804af29:	8b 00                	mov    (%eax),%eax
 804af2b:	85 c0                	test   %eax,%eax
 804af2d:	74 28                	je     804af57 <process_top_path+0x120>
 804af2f:	e8 7c e6 ff ff       	call   80495b0 <__errno_location@plt>
 804af34:	8b 00                	mov    (%eax),%eax
 804af36:	8b 55 f4             	mov    -0xc(%ebp),%edx
 804af39:	89 54 24 0c          	mov    %edx,0xc(%esp)
 804af3d:	c7 44 24 08 8a 7e 05 	movl   $0x8057e8a,0x8(%esp)
 804af44:	08 
 804af45:	89 44 24 04          	mov    %eax,0x4(%esp)
 804af49:	c7 04 24 00 00 00 00 	movl   $0x0,(%esp)
 804af50:	e8 0b e5 ff ff       	call   8049460 <error@plt>
 804af55:	eb 23                	jmp    804af7a <process_top_path+0x143>
 804af57:	8b 45 ec             	mov    -0x14(%ebp),%eax
 804af5a:	89 44 24 0c          	mov    %eax,0xc(%esp)
 804af5e:	c7 44 24 08 10 82 05 	movl   $0x8058210,0x8(%esp)
 804af65:	08 
 804af66:	c7 44 24 04 00 00 00 	movl   $0x0,0x4(%esp)
 804af6d:	00 
 804af6e:	c7 04 24 00 00 00 00 	movl   $0x0,(%esp)
 804af75:	e8 e6 e4 ff ff       	call   8049460 <error@plt>
 804af7a:	c7 05 78 f6 05 08 01 	movl   $0x1,0x805f678
 804af81:	00 00 00 
 804af84:	eb 53                	jmp    804afd9 <process_top_path+0x1a2>
 804af86:	8b 45 ec             	mov    -0x14(%ebp),%eax
 804af89:	89 04 24             	mov    %eax,(%esp)
 804af8c:	e8 9f e2 ff ff       	call   8049230 <free@plt>
 804af91:	c7 45 ec 00 00 00 00 	movl   $0x0,-0x14(%ebp)
 804af98:	8b 45 0c             	mov    0xc(%ebp),%eax
 804af9b:	89 44 24 10          	mov    %eax,0x10(%esp)
 804af9f:	c7 44 24 0c 88 7e 05 	movl   $0x8057e88,0xc(%esp)
 804afa6:	08 
 804afa7:	c7 44 24 08 00 00 00 	movl   $0x0,0x8(%esp)
 804afae:	00 
 804afaf:	8b 45 e4             	mov    -0x1c(%ebp),%eax
 804afb2:	89 44 24 04          	mov    %eax,0x4(%esp)
 804afb6:	8b 45 08             	mov    0x8(%ebp),%eax
 804afb9:	89 04 24             	mov    %eax,(%esp)
 804afbc:	e8 f5 00 00 00       	call   804b0b6 <process_path>
 804afc1:	a1 10 f2 05 08       	mov    0x805f210,%eax
 804afc6:	89 04 24             	mov    %eax,(%esp)
 804afc9:	e8 e4 04 00 00       	call   804b4b2 <complete_pending_execdirs>
 804afce:	83 7d e0 00          	cmpl   $0x0,-0x20(%ebp)
 804afd2:	74 05                	je     804afd9 <process_top_path+0x1a2>
 804afd4:	e8 28 fd ff ff       	call   804ad01 <chdir_back>
 804afd9:	81 c4 b4 00 00 00    	add    $0xb4,%esp
 804afdf:	5f                   	pop    %edi
 804afe0:	5d                   	pop    %ebp
 804afe1:	c3                   	ret    

0804afe2 <issue_loop_warning>:
issue_loop_warning():
 804afe2:	55                   	push   %ebp
 804afe3:	89 e5                	mov    %esp,%ebp
 804afe5:	53                   	push   %ebx
 804afe6:	81 ec 94 00 00 00    	sub    $0x94,%esp
 804afec:	8d 45 94             	lea    -0x6c(%ebp),%eax
 804afef:	89 44 24 04          	mov    %eax,0x4(%esp)
 804aff3:	8b 45 08             	mov    0x8(%ebp),%eax
 804aff6:	89 04 24             	mov    %eax,(%esp)
 804aff9:	e8 02 ce 00 00       	call   8057e00 <lstat64>
 804affe:	85 c0                	test   %eax,%eax
 804b000:	74 07                	je     804b009 <issue_loop_warning+0x27>
 804b002:	c7 45 a4 00 80 00 00 	movl   $0x8000,-0x5c(%ebp)
 804b009:	8b 45 a4             	mov    -0x5c(%ebp),%eax
 804b00c:	25 00 f0 00 00       	and    $0xf000,%eax
 804b011:	3d 00 a0 00 00       	cmp    $0xa000,%eax
 804b016:	75 2d                	jne    804b045 <issue_loop_warning+0x63>
 804b018:	c7 04 24 3c 82 05 08 	movl   $0x805823c,(%esp)
 804b01f:	e8 cc e4 ff ff       	call   80494f0 <gettext@plt>
 804b024:	8b 55 0c             	mov    0xc(%ebp),%edx
 804b027:	89 54 24 0c          	mov    %edx,0xc(%esp)
 804b02b:	89 44 24 08          	mov    %eax,0x8(%esp)
 804b02f:	c7 44 24 04 00 00 00 	movl   $0x0,0x4(%esp)
 804b036:	00 
 804b037:	c7 04 24 00 00 00 00 	movl   $0x0,(%esp)
 804b03e:	e8 1d e4 ff ff       	call   8049460 <error@plt>
 804b043:	eb 68                	jmp    804b0ad <issue_loop_warning+0xcb>
 804b045:	a1 a4 f1 05 08       	mov    0x805f1a4,%eax
 804b04a:	2b 45 10             	sub    0x10(%ebp),%eax
 804b04d:	83 c0 01             	add    $0x1,%eax
 804b050:	89 45 f4             	mov    %eax,-0xc(%ebp)
 804b053:	83 7d f4 01          	cmpl   $0x1,-0xc(%ebp)
 804b057:	75 10                	jne    804b069 <issue_loop_warning+0x87>
 804b059:	c7 04 24 b8 82 05 08 	movl   $0x80582b8,(%esp)
 804b060:	e8 8b e4 ff ff       	call   80494f0 <gettext@plt>
 804b065:	89 c3                	mov    %eax,%ebx
 804b067:	eb 0e                	jmp    804b077 <issue_loop_warning+0x95>
 804b069:	c7 04 24 e4 82 05 08 	movl   $0x80582e4,(%esp)
 804b070:	e8 7b e4 ff ff       	call   80494f0 <gettext@plt>
 804b075:	89 c3                	mov    %eax,%ebx
 804b077:	c7 04 24 10 83 05 08 	movl   $0x8058310,(%esp)
 804b07e:	e8 6d e4 ff ff       	call   80494f0 <gettext@plt>
 804b083:	89 5c 24 14          	mov    %ebx,0x14(%esp)
 804b087:	8b 55 f4             	mov    -0xc(%ebp),%edx
 804b08a:	89 54 24 10          	mov    %edx,0x10(%esp)
 804b08e:	8b 55 0c             	mov    0xc(%ebp),%edx
 804b091:	89 54 24 0c          	mov    %edx,0xc(%esp)
 804b095:	89 44 24 08          	mov    %eax,0x8(%esp)
 804b099:	c7 44 24 04 00 00 00 	movl   $0x0,0x4(%esp)
 804b0a0:	00 
 804b0a1:	c7 04 24 00 00 00 00 	movl   $0x0,(%esp)
 804b0a8:	e8 b3 e3 ff ff       	call   8049460 <error@plt>
 804b0ad:	81 c4 94 00 00 00    	add    $0x94,%esp
 804b0b3:	5b                   	pop    %ebx
 804b0b4:	5d                   	pop    %ebp
 804b0b5:	c3                   	ret    

0804b0b6 <process_path>:
process_path():
 804b0b6:	55                   	push   %ebp
 804b0b7:	89 e5                	mov    %esp,%ebp
 804b0b9:	57                   	push   %edi
 804b0ba:	56                   	push   %esi
 804b0bb:	53                   	push   %ebx
 804b0bc:	81 ec ac 00 00 00    	sub    $0xac,%esp
 804b0c2:	8b 45 10             	mov    0x10(%ebp),%eax
 804b0c5:	88 85 74 ff ff ff    	mov    %al,-0x8c(%ebp)
 804b0cb:	c7 45 94 00 00 00 00 	movl   $0x0,-0x6c(%ebp)
 804b0d2:	8b 45 0c             	mov    0xc(%ebp),%eax
 804b0d5:	a3 6c f6 05 08       	mov    %eax,0x805f66c
 804b0da:	c7 05 68 f6 05 08 00 	movl   $0x0,0x805f668
 804b0e1:	00 00 00 
 804b0e4:	c6 05 64 f6 05 08 00 	movb   $0x0,0x805f664
 804b0eb:	c6 05 65 f6 05 08 00 	movb   $0x0,0x805f665
 804b0f2:	83 7d 18 00          	cmpl   $0x0,0x18(%ebp)
 804b0f6:	74 71                	je     804b169 <process_path+0xb3>
 804b0f8:	8b 45 18             	mov    0x18(%ebp),%eax
 804b0fb:	25 00 f0 00 00       	and    $0xf000,%eax
 804b100:	3d 00 a0 00 00       	cmp    $0xa000,%eax
 804b105:	75 49                	jne    804b150 <process_path+0x9a>
 804b107:	e8 98 e7 ff ff       	call   80498a4 <following_links>
 804b10c:	85 c0                	test   %eax,%eax
 804b10e:	74 40                	je     804b150 <process_path+0x9a>
 804b110:	8d 45 84             	lea    -0x7c(%ebp),%eax
 804b113:	89 44 24 08          	mov    %eax,0x8(%esp)
 804b117:	8b 45 0c             	mov    0xc(%ebp),%eax
 804b11a:	89 44 24 04          	mov    %eax,0x4(%esp)
 804b11e:	8b 45 08             	mov    0x8(%ebp),%eax
 804b121:	89 04 24             	mov    %eax,(%esp)
 804b124:	e8 15 e9 ff ff       	call   8049a3e <get_statinfo>
 804b129:	85 c0                	test   %eax,%eax
 804b12b:	74 0a                	je     804b137 <process_path+0x81>
 804b12d:	b8 00 00 00 00       	mov    $0x0,%eax
 804b132:	e9 70 03 00 00       	jmp    804b4a7 <process_path+0x3f1>
 804b137:	8b 45 94             	mov    -0x6c(%ebp),%eax
 804b13a:	a3 68 f6 05 08       	mov    %eax,0x805f668
 804b13f:	a1 68 f6 05 08       	mov    0x805f668,%eax
 804b144:	89 45 18             	mov    %eax,0x18(%ebp)
 804b147:	c6 05 65 f6 05 08 01 	movb   $0x1,0x805f665
 804b14e:	eb 72                	jmp    804b1c2 <process_path+0x10c>
 804b150:	c6 05 65 f6 05 08 01 	movb   $0x1,0x805f665
 804b157:	8b 45 18             	mov    0x18(%ebp),%eax
 804b15a:	a3 68 f6 05 08       	mov    %eax,0x805f668
 804b15f:	a1 68 f6 05 08       	mov    0x805f668,%eax
 804b164:	89 45 94             	mov    %eax,-0x6c(%ebp)
 804b167:	eb 59                	jmp    804b1c2 <process_path+0x10c>
 804b169:	80 bd 74 ff ff ff 00 	cmpb   $0x0,-0x8c(%ebp)
 804b170:	74 1a                	je     804b18c <process_path+0xd6>
 804b172:	c6 05 64 f6 05 08 00 	movb   $0x0,0x805f664
 804b179:	c6 05 65 f6 05 08 00 	movb   $0x0,0x805f665
 804b180:	c7 05 68 f6 05 08 00 	movl   $0x0,0x805f668
 804b187:	00 00 00 
 804b18a:	eb 36                	jmp    804b1c2 <process_path+0x10c>
 804b18c:	8d 45 84             	lea    -0x7c(%ebp),%eax
 804b18f:	89 44 24 08          	mov    %eax,0x8(%esp)
 804b193:	8b 45 0c             	mov    0xc(%ebp),%eax
 804b196:	89 44 24 04          	mov    %eax,0x4(%esp)
 804b19a:	8b 45 08             	mov    0x8(%ebp),%eax
 804b19d:	89 04 24             	mov    %eax,(%esp)
 804b1a0:	e8 99 e8 ff ff       	call   8049a3e <get_statinfo>
 804b1a5:	85 c0                	test   %eax,%eax
 804b1a7:	74 0a                	je     804b1b3 <process_path+0xfd>
 804b1a9:	b8 00 00 00 00       	mov    $0x0,%eax
 804b1ae:	e9 f4 02 00 00       	jmp    804b4a7 <process_path+0x3f1>
 804b1b3:	8b 45 94             	mov    -0x6c(%ebp),%eax
 804b1b6:	a3 68 f6 05 08       	mov    %eax,0x805f668
 804b1bb:	c6 05 65 f6 05 08 01 	movb   $0x1,0x805f665
 804b1c2:	a1 68 f6 05 08       	mov    0x805f668,%eax
 804b1c7:	25 00 f0 00 00       	and    $0xf000,%eax
 804b1cc:	3d 00 40 00 00       	cmp    $0x4000,%eax
 804b1d1:	74 38                	je     804b20b <process_path+0x155>
 804b1d3:	8b 15 60 f6 05 08    	mov    0x805f660,%edx
 804b1d9:	a1 08 f7 05 08       	mov    0x805f708,%eax
 804b1de:	39 c2                	cmp    %eax,%edx
 804b1e0:	7c 1f                	jl     804b201 <process_path+0x14b>
 804b1e2:	a1 10 f2 05 08       	mov    0x805f210,%eax
 804b1e7:	8b 10                	mov    (%eax),%edx
 804b1e9:	a1 10 f2 05 08       	mov    0x805f210,%eax
 804b1ee:	89 44 24 08          	mov    %eax,0x8(%esp)
 804b1f2:	8d 45 84             	lea    -0x7c(%ebp),%eax
 804b1f5:	89 44 24 04          	mov    %eax,0x4(%esp)
 804b1f9:	8b 45 08             	mov    0x8(%ebp),%eax
 804b1fc:	89 04 24             	mov    %eax,(%esp)
 804b1ff:	ff d2                	call   *%edx
 804b201:	b8 00 00 00 00       	mov    $0x0,%eax
 804b206:	e9 9c 02 00 00       	jmp    804b4a7 <process_path+0x3f1>
 804b20b:	8d 45 84             	lea    -0x7c(%ebp),%eax
 804b20e:	89 44 24 08          	mov    %eax,0x8(%esp)
 804b212:	8b 45 0c             	mov    0xc(%ebp),%eax
 804b215:	89 44 24 04          	mov    %eax,0x4(%esp)
 804b219:	8b 45 08             	mov    0x8(%ebp),%eax
 804b21c:	89 04 24             	mov    %eax,(%esp)
 804b21f:	e8 1a e8 ff ff       	call   8049a3e <get_statinfo>
 804b224:	85 c0                	test   %eax,%eax
 804b226:	74 0a                	je     804b232 <process_path+0x17c>
 804b228:	b8 00 00 00 00       	mov    $0x0,%eax
 804b22d:	e9 75 02 00 00       	jmp    804b4a7 <process_path+0x3f1>
 804b232:	c6 05 64 f6 05 08 01 	movb   $0x1,0x805f664
 804b239:	8b 45 94             	mov    -0x6c(%ebp),%eax
 804b23c:	a3 68 f6 05 08       	mov    %eax,0x805f668
 804b241:	a1 68 f6 05 08       	mov    0x805f668,%eax
 804b246:	89 45 18             	mov    %eax,0x18(%ebp)
 804b249:	a1 04 f7 05 08       	mov    0x805f704,%eax
 804b24e:	85 c0                	test   %eax,%eax
 804b250:	78 16                	js     804b268 <process_path+0x1b2>
 804b252:	8b 15 60 f6 05 08    	mov    0x805f660,%edx
 804b258:	a1 04 f7 05 08       	mov    0x805f704,%eax
 804b25d:	39 c2                	cmp    %eax,%edx
 804b25f:	7c 07                	jl     804b268 <process_path+0x1b2>
 804b261:	b8 01 00 00 00       	mov    $0x1,%eax
 804b266:	eb 05                	jmp    804b26d <process_path+0x1b7>
 804b268:	b8 00 00 00 00       	mov    $0x0,%eax
 804b26d:	a2 74 f6 05 08       	mov    %al,0x805f674
 804b272:	c7 45 e4 00 00 00 00 	movl   $0x0,-0x1c(%ebp)
 804b279:	eb 6f                	jmp    804b2ea <process_path+0x234>
 804b27b:	8b 5d dc             	mov    -0x24(%ebp),%ebx
 804b27e:	8b 75 e0             	mov    -0x20(%ebp),%esi
 804b281:	8b 15 1c f2 05 08    	mov    0x805f21c,%edx
 804b287:	8b 45 e4             	mov    -0x1c(%ebp),%eax
 804b28a:	c1 e0 04             	shl    $0x4,%eax
 804b28d:	01 d0                	add    %edx,%eax
 804b28f:	8b 50 04             	mov    0x4(%eax),%edx
 804b292:	8b 00                	mov    (%eax),%eax
 804b294:	89 f1                	mov    %esi,%ecx
 804b296:	31 d1                	xor    %edx,%ecx
 804b298:	31 d8                	xor    %ebx,%eax
 804b29a:	09 c8                	or     %ecx,%eax
 804b29c:	85 c0                	test   %eax,%eax
 804b29e:	75 46                	jne    804b2e6 <process_path+0x230>
 804b2a0:	8b 5d 84             	mov    -0x7c(%ebp),%ebx
 804b2a3:	8b 75 88             	mov    -0x78(%ebp),%esi
 804b2a6:	8b 15 1c f2 05 08    	mov    0x805f21c,%edx
 804b2ac:	8b 45 e4             	mov    -0x1c(%ebp),%eax
 804b2af:	c1 e0 04             	shl    $0x4,%eax
 804b2b2:	01 d0                	add    %edx,%eax
 804b2b4:	8b 50 0c             	mov    0xc(%eax),%edx
 804b2b7:	8b 40 08             	mov    0x8(%eax),%eax
 804b2ba:	89 f1                	mov    %esi,%ecx
 804b2bc:	31 d1                	xor    %edx,%ecx
 804b2be:	31 d8                	xor    %ebx,%eax
 804b2c0:	09 c8                	or     %ecx,%eax
 804b2c2:	85 c0                	test   %eax,%eax
 804b2c4:	75 20                	jne    804b2e6 <process_path+0x230>
 804b2c6:	c6 05 74 f6 05 08 01 	movb   $0x1,0x805f674
 804b2cd:	8b 45 e4             	mov    -0x1c(%ebp),%eax
 804b2d0:	89 44 24 08          	mov    %eax,0x8(%esp)
 804b2d4:	8b 45 08             	mov    0x8(%ebp),%eax
 804b2d7:	89 44 24 04          	mov    %eax,0x4(%esp)
 804b2db:	8b 45 0c             	mov    0xc(%ebp),%eax
 804b2de:	89 04 24             	mov    %eax,(%esp)
 804b2e1:	e8 fc fc ff ff       	call   804afe2 <issue_loop_warning>
 804b2e6:	83 45 e4 01          	addl   $0x1,-0x1c(%ebp)
 804b2ea:	a1 a4 f1 05 08       	mov    0x805f1a4,%eax
 804b2ef:	39 45 e4             	cmp    %eax,-0x1c(%ebp)
 804b2f2:	7e 87                	jle    804b27b <process_path+0x1c5>
 804b2f4:	a1 a4 f1 05 08       	mov    0x805f1a4,%eax
 804b2f9:	83 c0 01             	add    $0x1,%eax
 804b2fc:	a3 a4 f1 05 08       	mov    %eax,0x805f1a4
 804b301:	8b 15 a4 f1 05 08    	mov    0x805f1a4,%edx
 804b307:	a1 20 f2 05 08       	mov    0x805f220,%eax
 804b30c:	39 c2                	cmp    %eax,%edx
 804b30e:	7c 2d                	jl     804b33d <process_path+0x287>
 804b310:	a1 20 f2 05 08       	mov    0x805f220,%eax
 804b315:	83 c0 20             	add    $0x20,%eax
 804b318:	a3 20 f2 05 08       	mov    %eax,0x805f220
 804b31d:	a1 20 f2 05 08       	mov    0x805f220,%eax
 804b322:	89 c2                	mov    %eax,%edx
 804b324:	c1 e2 04             	shl    $0x4,%edx
 804b327:	a1 1c f2 05 08       	mov    0x805f21c,%eax
 804b32c:	89 54 24 04          	mov    %edx,0x4(%esp)
 804b330:	89 04 24             	mov    %eax,(%esp)
 804b333:	e8 08 ac 00 00       	call   8055f40 <xrealloc>
 804b338:	a3 1c f2 05 08       	mov    %eax,0x805f21c
 804b33d:	a1 1c f2 05 08       	mov    0x805f21c,%eax
 804b342:	8b 15 a4 f1 05 08    	mov    0x805f1a4,%edx
 804b348:	c1 e2 04             	shl    $0x4,%edx
 804b34b:	8d 0c 10             	lea    (%eax,%edx,1),%ecx
 804b34e:	8b 45 dc             	mov    -0x24(%ebp),%eax
 804b351:	8b 55 e0             	mov    -0x20(%ebp),%edx
 804b354:	89 01                	mov    %eax,(%ecx)
 804b356:	89 51 04             	mov    %edx,0x4(%ecx)
 804b359:	a1 1c f2 05 08       	mov    0x805f21c,%eax
 804b35e:	8b 15 a4 f1 05 08    	mov    0x805f1a4,%edx
 804b364:	c1 e2 04             	shl    $0x4,%edx
 804b367:	8d 0c 10             	lea    (%eax,%edx,1),%ecx
 804b36a:	8b 45 84             	mov    -0x7c(%ebp),%eax
 804b36d:	8b 55 88             	mov    -0x78(%ebp),%edx
 804b370:	89 41 08             	mov    %eax,0x8(%ecx)
 804b373:	89 51 0c             	mov    %edx,0xc(%ecx)
 804b376:	0f b6 05 0d f7 05 08 	movzbl 0x805f70d,%eax
 804b37d:	84 c0                	test   %al,%al
 804b37f:	74 40                	je     804b3c1 <process_path+0x30b>
 804b381:	a1 60 f6 05 08       	mov    0x805f660,%eax
 804b386:	85 c0                	test   %eax,%eax
 804b388:	75 13                	jne    804b39d <process_path+0x2e7>
 804b38a:	8b 45 84             	mov    -0x7c(%ebp),%eax
 804b38d:	8b 55 88             	mov    -0x78(%ebp),%edx
 804b390:	a3 28 f2 05 08       	mov    %eax,0x805f228
 804b395:	89 15 2c f2 05 08    	mov    %edx,0x805f22c
 804b39b:	eb 24                	jmp    804b3c1 <process_path+0x30b>
 804b39d:	8b 4d 84             	mov    -0x7c(%ebp),%ecx
 804b3a0:	8b 5d 88             	mov    -0x78(%ebp),%ebx
 804b3a3:	a1 28 f2 05 08       	mov    0x805f228,%eax
 804b3a8:	8b 15 2c f2 05 08    	mov    0x805f22c,%edx
 804b3ae:	89 de                	mov    %ebx,%esi
 804b3b0:	31 d6                	xor    %edx,%esi
 804b3b2:	31 c8                	xor    %ecx,%eax
 804b3b4:	09 f0                	or     %esi,%eax
 804b3b6:	85 c0                	test   %eax,%eax
 804b3b8:	74 07                	je     804b3c1 <process_path+0x30b>
 804b3ba:	c6 05 74 f6 05 08 01 	movb   $0x1,0x805f674
 804b3c1:	0f b6 05 00 f7 05 08 	movzbl 0x805f700,%eax
 804b3c8:	84 c0                	test   %al,%al
 804b3ca:	74 2e                	je     804b3fa <process_path+0x344>
 804b3cc:	8b 15 60 f6 05 08    	mov    0x805f660,%edx
 804b3d2:	a1 08 f7 05 08       	mov    0x805f708,%eax
 804b3d7:	39 c2                	cmp    %eax,%edx
 804b3d9:	7c 1f                	jl     804b3fa <process_path+0x344>
 804b3db:	a1 10 f2 05 08       	mov    0x805f210,%eax
 804b3e0:	8b 10                	mov    (%eax),%edx
 804b3e2:	a1 10 f2 05 08       	mov    0x805f210,%eax
 804b3e7:	89 44 24 08          	mov    %eax,0x8(%esp)
 804b3eb:	8d 45 84             	lea    -0x7c(%ebp),%eax
 804b3ee:	89 44 24 04          	mov    %eax,0x4(%esp)
 804b3f2:	8b 45 08             	mov    0x8(%ebp),%eax
 804b3f5:	89 04 24             	mov    %eax,(%esp)
 804b3f8:	ff d2                	call   *%edx
 804b3fa:	0f b6 05 74 f6 05 08 	movzbl 0x805f674,%eax
 804b401:	83 f0 01             	xor    $0x1,%eax
 804b404:	84 c0                	test   %al,%al
 804b406:	74 49                	je     804b451 <process_path+0x39b>
 804b408:	8b 45 08             	mov    0x8(%ebp),%eax
 804b40b:	c7 85 70 ff ff ff ff 	movl   $0xffffffff,-0x90(%ebp)
 804b412:	ff ff ff 
 804b415:	89 c2                	mov    %eax,%edx
 804b417:	b8 00 00 00 00       	mov    $0x0,%eax
 804b41c:	8b 8d 70 ff ff ff    	mov    -0x90(%ebp),%ecx
 804b422:	89 d7                	mov    %edx,%edi
 804b424:	f2 ae                	repnz scas %es:(%edi),%al
 804b426:	89 c8                	mov    %ecx,%eax
 804b428:	f7 d0                	not    %eax
 804b42a:	83 e8 01             	sub    $0x1,%eax
 804b42d:	8b 55 14             	mov    0x14(%ebp),%edx
 804b430:	89 54 24 10          	mov    %edx,0x10(%esp)
 804b434:	8d 55 84             	lea    -0x7c(%ebp),%edx
 804b437:	89 54 24 0c          	mov    %edx,0xc(%esp)
 804b43b:	89 44 24 08          	mov    %eax,0x8(%esp)
 804b43f:	8b 45 0c             	mov    0xc(%ebp),%eax
 804b442:	89 44 24 04          	mov    %eax,0x4(%esp)
 804b446:	8b 45 08             	mov    0x8(%ebp),%eax
 804b449:	89 04 24             	mov    %eax,(%esp)
 804b44c:	e8 4b 01 00 00       	call   804b59c <process_dir>
 804b451:	0f b6 05 00 f7 05 08 	movzbl 0x805f700,%eax
 804b458:	83 f0 01             	xor    $0x1,%eax
 804b45b:	84 c0                	test   %al,%al
 804b45d:	74 36                	je     804b495 <process_path+0x3df>
 804b45f:	8b 15 60 f6 05 08    	mov    0x805f660,%edx
 804b465:	a1 08 f7 05 08       	mov    0x805f708,%eax
 804b46a:	39 c2                	cmp    %eax,%edx
 804b46c:	7c 27                	jl     804b495 <process_path+0x3df>
 804b46e:	8b 45 0c             	mov    0xc(%ebp),%eax
 804b471:	a3 6c f6 05 08       	mov    %eax,0x805f66c
 804b476:	a1 10 f2 05 08       	mov    0x805f210,%eax
 804b47b:	8b 10                	mov    (%eax),%edx
 804b47d:	a1 10 f2 05 08       	mov    0x805f210,%eax
 804b482:	89 44 24 08          	mov    %eax,0x8(%esp)
 804b486:	8d 45 84             	lea    -0x7c(%ebp),%eax
 804b489:	89 44 24 04          	mov    %eax,0x4(%esp)
 804b48d:	8b 45 08             	mov    0x8(%ebp),%eax
 804b490:	89 04 24             	mov    %eax,(%esp)
 804b493:	ff d2                	call   *%edx
 804b495:	a1 a4 f1 05 08       	mov    0x805f1a4,%eax
 804b49a:	83 e8 01             	sub    $0x1,%eax
 804b49d:	a3 a4 f1 05 08       	mov    %eax,0x805f1a4
 804b4a2:	b8 01 00 00 00       	mov    $0x1,%eax
 804b4a7:	81 c4 ac 00 00 00    	add    $0xac,%esp
 804b4ad:	5b                   	pop    %ebx
 804b4ae:	5e                   	pop    %esi
 804b4af:	5f                   	pop    %edi
 804b4b0:	5d                   	pop    %ebp
 804b4b1:	c3                   	ret    

0804b4b2 <complete_pending_execdirs>:
complete_pending_execdirs():
 804b4b2:	55                   	push   %ebp
 804b4b3:	89 e5                	mov    %esp,%ebp
 804b4b5:	83 ec 28             	sub    $0x28,%esp
 804b4b8:	83 7d 08 00          	cmpl   $0x0,0x8(%ebp)
 804b4bc:	74 6c                	je     804b52a <complete_pending_execdirs+0x78>
 804b4be:	8b 45 08             	mov    0x8(%ebp),%eax
 804b4c1:	8b 40 68             	mov    0x68(%eax),%eax
 804b4c4:	89 04 24             	mov    %eax,(%esp)
 804b4c7:	e8 e6 ff ff ff       	call   804b4b2 <complete_pending_execdirs>
 804b4cc:	8b 45 08             	mov    0x8(%ebp),%eax
 804b4cf:	8b 00                	mov    (%eax),%eax
 804b4d1:	3d 2b f1 04 08       	cmp    $0x804f12b,%eax
 804b4d6:	74 0c                	je     804b4e4 <complete_pending_execdirs+0x32>
 804b4d8:	8b 45 08             	mov    0x8(%ebp),%eax
 804b4db:	8b 00                	mov    (%eax),%eax
 804b4dd:	3d 1c 04 05 08       	cmp    $0x805041c,%eax
 804b4e2:	75 36                	jne    804b51a <complete_pending_execdirs+0x68>
 804b4e4:	8b 45 08             	mov    0x8(%ebp),%eax
 804b4e7:	0f b6 40 14          	movzbl 0x14(%eax),%eax
 804b4eb:	84 c0                	test   %al,%al
 804b4ed:	74 2b                	je     804b51a <complete_pending_execdirs+0x68>
 804b4ef:	8b 45 08             	mov    0x8(%ebp),%eax
 804b4f2:	83 c0 14             	add    $0x14,%eax
 804b4f5:	89 45 f4             	mov    %eax,-0xc(%ebp)
 804b4f8:	8b 45 f4             	mov    -0xc(%ebp),%eax
 804b4fb:	8b 40 40             	mov    0x40(%eax),%eax
 804b4fe:	85 c0                	test   %eax,%eax
 804b500:	74 18                	je     804b51a <complete_pending_execdirs+0x68>
 804b502:	8b 45 f4             	mov    -0xc(%ebp),%eax
 804b505:	8d 50 24             	lea    0x24(%eax),%edx
 804b508:	8b 45 f4             	mov    -0xc(%ebp),%eax
 804b50b:	83 c0 04             	add    $0x4,%eax
 804b50e:	89 54 24 04          	mov    %edx,0x4(%esp)
 804b512:	89 04 24             	mov    %eax,(%esp)
 804b515:	e8 de 55 00 00       	call   8050af8 <launch>
 804b51a:	8b 45 08             	mov    0x8(%ebp),%eax
 804b51d:	8b 40 6c             	mov    0x6c(%eax),%eax
 804b520:	89 04 24             	mov    %eax,(%esp)
 804b523:	e8 8a ff ff ff       	call   804b4b2 <complete_pending_execdirs>
 804b528:	eb 01                	jmp    804b52b <complete_pending_execdirs+0x79>
 804b52a:	90                   	nop
 804b52b:	c9                   	leave  
 804b52c:	c3                   	ret    

0804b52d <complete_pending_execs>:
complete_pending_execs():
 804b52d:	55                   	push   %ebp
 804b52e:	89 e5                	mov    %esp,%ebp
 804b530:	83 ec 28             	sub    $0x28,%esp
 804b533:	83 7d 08 00          	cmpl   $0x0,0x8(%ebp)
 804b537:	74 60                	je     804b599 <complete_pending_execs+0x6c>
 804b539:	8b 45 08             	mov    0x8(%ebp),%eax
 804b53c:	8b 40 68             	mov    0x68(%eax),%eax
 804b53f:	89 04 24             	mov    %eax,(%esp)
 804b542:	e8 e6 ff ff ff       	call   804b52d <complete_pending_execs>
 804b547:	8b 45 08             	mov    0x8(%ebp),%eax
 804b54a:	8b 00                	mov    (%eax),%eax
 804b54c:	3d fa f0 04 08       	cmp    $0x804f0fa,%eax
 804b551:	75 36                	jne    804b589 <complete_pending_execs+0x5c>
 804b553:	8b 45 08             	mov    0x8(%ebp),%eax
 804b556:	0f b6 40 14          	movzbl 0x14(%eax),%eax
 804b55a:	84 c0                	test   %al,%al
 804b55c:	74 2b                	je     804b589 <complete_pending_execs+0x5c>
 804b55e:	8b 45 08             	mov    0x8(%ebp),%eax
 804b561:	83 c0 14             	add    $0x14,%eax
 804b564:	89 45 f4             	mov    %eax,-0xc(%ebp)
 804b567:	8b 45 f4             	mov    -0xc(%ebp),%eax
 804b56a:	8b 40 40             	mov    0x40(%eax),%eax
 804b56d:	85 c0                	test   %eax,%eax
 804b56f:	74 18                	je     804b589 <complete_pending_execs+0x5c>
 804b571:	8b 45 f4             	mov    -0xc(%ebp),%eax
 804b574:	8d 50 24             	lea    0x24(%eax),%edx
 804b577:	8b 45 f4             	mov    -0xc(%ebp),%eax
 804b57a:	83 c0 04             	add    $0x4,%eax
 804b57d:	89 54 24 04          	mov    %edx,0x4(%esp)
 804b581:	89 04 24             	mov    %eax,(%esp)
 804b584:	e8 6f 55 00 00       	call   8050af8 <launch>
 804b589:	8b 45 08             	mov    0x8(%ebp),%eax
 804b58c:	8b 40 6c             	mov    0x6c(%eax),%eax
 804b58f:	89 04 24             	mov    %eax,(%esp)
 804b592:	e8 96 ff ff ff       	call   804b52d <complete_pending_execs>
 804b597:	eb 01                	jmp    804b59a <complete_pending_execs+0x6d>
 804b599:	90                   	nop
 804b59a:	c9                   	leave  
 804b59b:	c3                   	ret    

0804b59c <process_dir>:
process_dir():
 804b59c:	55                   	push   %ebp
 804b59d:	89 e5                	mov    %esp,%ebp
 804b59f:	57                   	push   %edi
 804b5a0:	56                   	push   %esi
 804b5a1:	53                   	push   %ebx
 804b5a2:	81 ec dc 00 00 00    	sub    $0xdc,%esp
 804b5a8:	8b 45 14             	mov    0x14(%ebp),%eax
 804b5ab:	8b 40 14             	mov    0x14(%eax),%eax
 804b5ae:	83 e8 02             	sub    $0x2,%eax
 804b5b1:	89 45 bc             	mov    %eax,-0x44(%ebp)
 804b5b4:	e8 f7 df ff ff       	call   80495b0 <__errno_location@plt>
 804b5b9:	c7 00 00 00 00 00    	movl   $0x0,(%eax)
 804b5bf:	8d 45 b8             	lea    -0x48(%ebp),%eax
 804b5c2:	89 44 24 04          	mov    %eax,0x4(%esp)
 804b5c6:	8b 45 0c             	mov    0xc(%ebp),%eax
 804b5c9:	89 04 24             	mov    %eax,(%esp)
 804b5cc:	e8 9f 74 00 00       	call   8052a70 <savedirinfo>
 804b5d1:	89 45 d0             	mov    %eax,-0x30(%ebp)
 804b5d4:	83 7d d0 00          	cmpl   $0x0,-0x30(%ebp)
 804b5d8:	75 64                	jne    804b63e <process_dir+0xa2>
 804b5da:	e8 d1 df ff ff       	call   80495b0 <__errno_location@plt>
 804b5df:	8b 00                	mov    (%eax),%eax
 804b5e1:	85 c0                	test   %eax,%eax
 804b5e3:	75 24                	jne    804b609 <process_dir+0x6d>
 804b5e5:	c7 44 24 0c 70 84 05 	movl   $0x8058470,0xc(%esp)
 804b5ec:	08 
 804b5ed:	c7 44 24 08 2e 06 00 	movl   $0x62e,0x8(%esp)
 804b5f4:	00 
 804b5f5:	c7 44 24 04 28 80 05 	movl   $0x8058028,0x4(%esp)
 804b5fc:	08 
 804b5fd:	c7 04 24 73 83 05 08 	movl   $0x8058373,(%esp)
 804b604:	e8 a7 e1 ff ff       	call   80497b0 <__assert_fail@plt>
 804b609:	e8 a2 df ff ff       	call   80495b0 <__errno_location@plt>
 804b60e:	8b 00                	mov    (%eax),%eax
 804b610:	8b 55 08             	mov    0x8(%ebp),%edx
 804b613:	89 54 24 0c          	mov    %edx,0xc(%esp)
 804b617:	c7 44 24 08 8a 7e 05 	movl   $0x8057e8a,0x8(%esp)
 804b61e:	08 
 804b61f:	89 44 24 04          	mov    %eax,0x4(%esp)
 804b623:	c7 04 24 00 00 00 00 	movl   $0x0,(%esp)
 804b62a:	e8 31 de ff ff       	call   8049460 <error@plt>
 804b62f:	c7 05 78 f6 05 08 01 	movl   $0x1,0x805f678
 804b636:	00 00 00 
 804b639:	e9 ac 04 00 00       	jmp    804baea <process_dir+0x54e>
 804b63e:	8b 45 10             	mov    0x10(%ebp),%eax
 804b641:	83 e8 01             	sub    $0x1,%eax
 804b644:	03 45 08             	add    0x8(%ebp),%eax
 804b647:	0f b6 00             	movzbl (%eax),%eax
 804b64a:	3c 2f                	cmp    $0x2f,%al
 804b64c:	75 0a                	jne    804b658 <process_dir+0xbc>
 804b64e:	8b 45 10             	mov    0x10(%ebp),%eax
 804b651:	83 c0 01             	add    $0x1,%eax
 804b654:	89 c3                	mov    %eax,%ebx
 804b656:	eb 08                	jmp    804b660 <process_dir+0xc4>
 804b658:	8b 45 10             	mov    0x10(%ebp),%eax
 804b65b:	83 c0 02             	add    $0x2,%eax
 804b65e:	89 c3                	mov    %eax,%ebx
 804b660:	c7 45 c8 00 00 00 00 	movl   $0x0,-0x38(%ebp)
 804b667:	c7 45 c4 00 00 00 00 	movl   $0x0,-0x3c(%ebp)
 804b66e:	a1 10 f2 05 08       	mov    0x805f210,%eax
 804b673:	89 04 24             	mov    %eax,(%esp)
 804b676:	e8 37 fe ff ff       	call   804b4b2 <complete_pending_execdirs>
 804b67b:	c7 44 24 04 88 7e 05 	movl   $0x8057e88,0x4(%esp)
 804b682:	08 
 804b683:	8b 45 0c             	mov    0xc(%ebp),%eax
 804b686:	89 04 24             	mov    %eax,(%esp)
 804b689:	e8 32 db ff ff       	call   80491c0 <strcmp@plt>
 804b68e:	85 c0                	test   %eax,%eax
 804b690:	0f 84 04 01 00 00    	je     804b79a <process_dir+0x1fe>
 804b696:	c7 44 24 0c 00 00 00 	movl   $0x0,0xc(%esp)
 804b69d:	00 
 804b69e:	8d 85 48 ff ff ff    	lea    -0xb8(%ebp),%eax
 804b6a4:	89 44 24 08          	mov    %eax,0x8(%esp)
 804b6a8:	c7 44 24 04 01 00 00 	movl   $0x1,0x4(%esp)
 804b6af:	00 
 804b6b0:	8b 45 0c             	mov    0xc(%ebp),%eax
 804b6b3:	89 04 24             	mov    %eax,(%esp)
 804b6b6:	e8 f1 f5 ff ff       	call   804acac <safely_chdir>
 804b6bb:	89 45 d4             	mov    %eax,-0x2c(%ebp)
 804b6be:	83 7d d4 06          	cmpl   $0x6,-0x2c(%ebp)
 804b6c2:	0f 87 d2 00 00 00    	ja     804b79a <process_dir+0x1fe>
 804b6c8:	8b 45 d4             	mov    -0x2c(%ebp),%eax
 804b6cb:	ba 01 00 00 00       	mov    $0x1,%edx
 804b6d0:	89 d6                	mov    %edx,%esi
 804b6d2:	89 c1                	mov    %eax,%ecx
 804b6d4:	d3 e6                	shl    %cl,%esi
 804b6d6:	89 f0                	mov    %esi,%eax
 804b6d8:	89 c2                	mov    %eax,%edx
 804b6da:	83 e2 6e             	and    $0x6e,%edx
 804b6dd:	85 d2                	test   %edx,%edx
 804b6df:	0f 85 80 00 00 00    	jne    804b765 <process_dir+0x1c9>
 804b6e5:	89 c2                	mov    %eax,%edx
 804b6e7:	83 e2 10             	and    $0x10,%edx
 804b6ea:	85 d2                	test   %edx,%edx
 804b6ec:	75 4c                	jne    804b73a <process_dir+0x19e>
 804b6ee:	83 e0 01             	and    $0x1,%eax
 804b6f1:	85 c0                	test   %eax,%eax
 804b6f3:	0f 84 a1 00 00 00    	je     804b79a <process_dir+0x1fe>
 804b6f9:	a1 1c f2 05 08       	mov    0x805f21c,%eax
 804b6fe:	8b 15 a4 f1 05 08    	mov    0x805f1a4,%edx
 804b704:	c1 e2 04             	shl    $0x4,%edx
 804b707:	8d 0c 10             	lea    (%eax,%edx,1),%ecx
 804b70a:	8b 85 48 ff ff ff    	mov    -0xb8(%ebp),%eax
 804b710:	8b 95 4c ff ff ff    	mov    -0xb4(%ebp),%edx
 804b716:	89 41 08             	mov    %eax,0x8(%ecx)
 804b719:	89 51 0c             	mov    %edx,0xc(%ecx)
 804b71c:	a1 1c f2 05 08       	mov    0x805f21c,%eax
 804b721:	8b 15 a4 f1 05 08    	mov    0x805f1a4,%edx
 804b727:	c1 e2 04             	shl    $0x4,%edx
 804b72a:	8d 0c 10             	lea    (%eax,%edx,1),%ecx
 804b72d:	8b 45 a0             	mov    -0x60(%ebp),%eax
 804b730:	8b 55 a4             	mov    -0x5c(%ebp),%edx
 804b733:	89 01                	mov    %eax,(%ecx)
 804b735:	89 51 04             	mov    %edx,0x4(%ecx)
 804b738:	eb 60                	jmp    804b79a <process_dir+0x1fe>
 804b73a:	e8 71 de ff ff       	call   80495b0 <__errno_location@plt>
 804b73f:	8b 00                	mov    (%eax),%eax
 804b741:	c7 44 24 08 88 7e 05 	movl   $0x8057e88,0x8(%esp)
 804b748:	08 
 804b749:	89 44 24 04          	mov    %eax,0x4(%esp)
 804b74d:	c7 04 24 00 00 00 00 	movl   $0x0,(%esp)
 804b754:	e8 07 dd ff ff       	call   8049460 <error@plt>
 804b759:	c7 05 78 f6 05 08 01 	movl   $0x1,0x805f678
 804b760:	00 00 00 
 804b763:	eb 35                	jmp    804b79a <process_dir+0x1fe>
 804b765:	e8 46 de ff ff       	call   80495b0 <__errno_location@plt>
 804b76a:	8b 00                	mov    (%eax),%eax
 804b76c:	8b 55 08             	mov    0x8(%ebp),%edx
 804b76f:	89 54 24 0c          	mov    %edx,0xc(%esp)
 804b773:	c7 44 24 08 8a 7e 05 	movl   $0x8057e8a,0x8(%esp)
 804b77a:	08 
 804b77b:	89 44 24 04          	mov    %eax,0x4(%esp)
 804b77f:	c7 04 24 00 00 00 00 	movl   $0x0,(%esp)
 804b786:	e8 d5 dc ff ff       	call   8049460 <error@plt>
 804b78b:	c7 05 78 f6 05 08 01 	movl   $0x1,0x805f678
 804b792:	00 00 00 
 804b795:	e9 50 03 00 00       	jmp    804baea <process_dir+0x54e>
 804b79a:	c7 45 c0 00 00 00 00 	movl   $0x0,-0x40(%ebp)
 804b7a1:	8b 75 d0             	mov    -0x30(%ebp),%esi
 804b7a4:	e9 9e 01 00 00       	jmp    804b947 <process_dir+0x3ab>
 804b7a9:	8b 45 b8             	mov    -0x48(%ebp),%eax
 804b7ac:	85 c0                	test   %eax,%eax
 804b7ae:	74 0f                	je     804b7bf <process_dir+0x223>
 804b7b0:	8b 45 b8             	mov    -0x48(%ebp),%eax
 804b7b3:	8b 55 c0             	mov    -0x40(%ebp),%edx
 804b7b6:	c1 e2 02             	shl    $0x2,%edx
 804b7b9:	01 d0                	add    %edx,%eax
 804b7bb:	8b 00                	mov    (%eax),%eax
 804b7bd:	eb 05                	jmp    804b7c4 <process_dir+0x228>
 804b7bf:	b8 00 00 00 00       	mov    $0x0,%eax
 804b7c4:	89 45 d8             	mov    %eax,-0x28(%ebp)
 804b7c7:	89 f0                	mov    %esi,%eax
 804b7c9:	c7 85 44 ff ff ff ff 	movl   $0xffffffff,-0xbc(%ebp)
 804b7d0:	ff ff ff 
 804b7d3:	89 c2                	mov    %eax,%edx
 804b7d5:	b8 00 00 00 00       	mov    $0x0,%eax
 804b7da:	8b 8d 44 ff ff ff    	mov    -0xbc(%ebp),%ecx
 804b7e0:	89 d7                	mov    %edx,%edi
 804b7e2:	f2 ae                	repnz scas %es:(%edi),%al
 804b7e4:	89 c8                	mov    %ecx,%eax
 804b7e6:	f7 d0                	not    %eax
 804b7e8:	83 e8 01             	sub    $0x1,%eax
 804b7eb:	8d 3c 18             	lea    (%eax,%ebx,1),%edi
 804b7ee:	3b 7d c8             	cmp    -0x38(%ebp),%edi
 804b7f1:	76 48                	jbe    804b83b <process_dir+0x29f>
 804b7f3:	eb 07                	jmp    804b7fc <process_dir+0x260>
 804b7f5:	81 45 c8 00 04 00 00 	addl   $0x400,-0x38(%ebp)
 804b7fc:	3b 7d c8             	cmp    -0x38(%ebp),%edi
 804b7ff:	77 f4                	ja     804b7f5 <process_dir+0x259>
 804b801:	83 7d c4 00          	cmpl   $0x0,-0x3c(%ebp)
 804b805:	74 0b                	je     804b812 <process_dir+0x276>
 804b807:	8b 45 c4             	mov    -0x3c(%ebp),%eax
 804b80a:	89 04 24             	mov    %eax,(%esp)
 804b80d:	e8 1e da ff ff       	call   8049230 <free@plt>
 804b812:	8b 45 c8             	mov    -0x38(%ebp),%eax
 804b815:	89 04 24             	mov    %eax,(%esp)
 804b818:	e8 a3 a6 00 00       	call   8055ec0 <xmalloc>
 804b81d:	89 45 c4             	mov    %eax,-0x3c(%ebp)
 804b820:	8b 45 08             	mov    0x8(%ebp),%eax
 804b823:	89 44 24 04          	mov    %eax,0x4(%esp)
 804b827:	8b 45 c4             	mov    -0x3c(%ebp),%eax
 804b82a:	89 04 24             	mov    %eax,(%esp)
 804b82d:	e8 ce db ff ff       	call   8049400 <strcpy@plt>
 804b832:	8d 43 fe             	lea    -0x2(%ebx),%eax
 804b835:	03 45 c4             	add    -0x3c(%ebp),%eax
 804b838:	c6 00 2f             	movb   $0x2f,(%eax)
 804b83b:	8d 43 ff             	lea    -0x1(%ebx),%eax
 804b83e:	03 45 c4             	add    -0x3c(%ebp),%eax
 804b841:	89 45 dc             	mov    %eax,-0x24(%ebp)
 804b844:	89 f0                	mov    %esi,%eax
 804b846:	89 44 24 04          	mov    %eax,0x4(%esp)
 804b84a:	8b 45 dc             	mov    -0x24(%ebp),%eax
 804b84d:	89 04 24             	mov    %eax,(%esp)
 804b850:	e8 ab db ff ff       	call   8049400 <strcpy@plt>
 804b855:	a1 60 f6 05 08       	mov    0x805f660,%eax
 804b85a:	83 c0 01             	add    $0x1,%eax
 804b85d:	a3 60 f6 05 08       	mov    %eax,0x805f660
 804b862:	0f b6 05 0c f7 05 08 	movzbl 0x805f70c,%eax
 804b869:	83 f0 01             	xor    $0x1,%eax
 804b86c:	84 c0                	test   %al,%al
 804b86e:	0f 84 91 00 00 00    	je     804b905 <process_dir+0x369>
 804b874:	83 7d d8 00          	cmpl   $0x0,-0x28(%ebp)
 804b878:	74 58                	je     804b8d2 <process_dir+0x336>
 804b87a:	8b 45 d8             	mov    -0x28(%ebp),%eax
 804b87d:	25 00 f0 00 00       	and    $0xf000,%eax
 804b882:	3d 00 40 00 00       	cmp    $0x4000,%eax
 804b887:	75 49                	jne    804b8d2 <process_dir+0x336>
 804b889:	83 7d bc 00          	cmpl   $0x0,-0x44(%ebp)
 804b88d:	75 43                	jne    804b8d2 <process_dir+0x336>
 804b88f:	c7 04 24 90 83 05 08 	movl   $0x8058390,(%esp)
 804b896:	e8 55 dc ff ff       	call   80494f0 <gettext@plt>
 804b89b:	8b 55 18             	mov    0x18(%ebp),%edx
 804b89e:	89 54 24 0c          	mov    %edx,0xc(%esp)
 804b8a2:	89 44 24 08          	mov    %eax,0x8(%esp)
 804b8a6:	c7 44 24 04 00 00 00 	movl   $0x0,0x4(%esp)
 804b8ad:	00 
 804b8ae:	c7 04 24 00 00 00 00 	movl   $0x0,(%esp)
 804b8b5:	e8 a6 db ff ff       	call   8049460 <error@plt>
 804b8ba:	c7 05 78 f6 05 08 01 	movl   $0x1,0x805f678
 804b8c1:	00 00 00 
 804b8c4:	c6 05 0c f7 05 08 01 	movb   $0x1,0x805f70c
 804b8cb:	c7 45 bc 01 00 00 00 	movl   $0x1,-0x44(%ebp)
 804b8d2:	83 7d bc 00          	cmpl   $0x0,-0x44(%ebp)
 804b8d6:	0f 94 c0             	sete   %al
 804b8d9:	0f b6 c0             	movzbl %al,%eax
 804b8dc:	8b 55 d8             	mov    -0x28(%ebp),%edx
 804b8df:	89 54 24 10          	mov    %edx,0x10(%esp)
 804b8e3:	8b 55 08             	mov    0x8(%ebp),%edx
 804b8e6:	89 54 24 0c          	mov    %edx,0xc(%esp)
 804b8ea:	89 44 24 08          	mov    %eax,0x8(%esp)
 804b8ee:	8b 45 dc             	mov    -0x24(%ebp),%eax
 804b8f1:	89 44 24 04          	mov    %eax,0x4(%esp)
 804b8f5:	8b 45 c4             	mov    -0x3c(%ebp),%eax
 804b8f8:	89 04 24             	mov    %eax,(%esp)
 804b8fb:	e8 b6 f7 ff ff       	call   804b0b6 <process_path>
 804b900:	29 45 bc             	sub    %eax,-0x44(%ebp)
 804b903:	eb 28                	jmp    804b92d <process_dir+0x391>
 804b905:	8b 45 d8             	mov    -0x28(%ebp),%eax
 804b908:	89 44 24 10          	mov    %eax,0x10(%esp)
 804b90c:	8b 45 08             	mov    0x8(%ebp),%eax
 804b90f:	89 44 24 0c          	mov    %eax,0xc(%esp)
 804b913:	c7 44 24 08 00 00 00 	movl   $0x0,0x8(%esp)
 804b91a:	00 
 804b91b:	8b 45 dc             	mov    -0x24(%ebp),%eax
 804b91e:	89 44 24 04          	mov    %eax,0x4(%esp)
 804b922:	8b 45 c4             	mov    -0x3c(%ebp),%eax
 804b925:	89 04 24             	mov    %eax,(%esp)
 804b928:	e8 89 f7 ff ff       	call   804b0b6 <process_path>
 804b92d:	a1 60 f6 05 08       	mov    0x805f660,%eax
 804b932:	83 e8 01             	sub    $0x1,%eax
 804b935:	a3 60 f6 05 08       	mov    %eax,0x805f660
 804b93a:	89 f8                	mov    %edi,%eax
 804b93c:	29 d8                	sub    %ebx,%eax
 804b93e:	83 c0 01             	add    $0x1,%eax
 804b941:	01 c6                	add    %eax,%esi
 804b943:	83 45 c0 01          	addl   $0x1,-0x40(%ebp)
 804b947:	0f b6 06             	movzbl (%esi),%eax
 804b94a:	84 c0                	test   %al,%al
 804b94c:	0f 85 57 fe ff ff    	jne    804b7a9 <process_dir+0x20d>
 804b952:	a1 10 f2 05 08       	mov    0x805f210,%eax
 804b957:	89 04 24             	mov    %eax,(%esp)
 804b95a:	e8 53 fb ff ff       	call   804b4b2 <complete_pending_execdirs>
 804b95f:	c7 44 24 04 88 7e 05 	movl   $0x8057e88,0x4(%esp)
 804b966:	08 
 804b967:	8b 45 0c             	mov    0xc(%ebp),%eax
 804b96a:	89 04 24             	mov    %eax,(%esp)
 804b96d:	e8 4e d8 ff ff       	call   80491c0 <strcmp@plt>
 804b972:	85 c0                	test   %eax,%eax
 804b974:	0f 84 49 01 00 00    	je     804bac3 <process_dir+0x527>
 804b97a:	c6 45 e6 00          	movb   $0x0,-0x1a(%ebp)
 804b97e:	e8 21 df ff ff       	call   80498a4 <following_links>
 804b983:	85 c0                	test   %eax,%eax
 804b985:	0f 95 c0             	setne  %al
 804b988:	88 45 e7             	mov    %al,-0x19(%ebp)
 804b98b:	a1 60 f6 05 08       	mov    0x805f660,%eax
 804b990:	85 c0                	test   %eax,%eax
 804b992:	7e 14                	jle    804b9a8 <process_dir+0x40c>
 804b994:	0f b6 45 e7          	movzbl -0x19(%ebp),%eax
 804b998:	83 f0 01             	xor    $0x1,%eax
 804b99b:	84 c0                	test   %al,%al
 804b99d:	74 09                	je     804b9a8 <process_dir+0x40c>
 804b99f:	c7 45 cc 0c 82 05 08 	movl   $0x805820c,-0x34(%ebp)
 804b9a6:	eb 0b                	jmp    804b9b3 <process_dir+0x417>
 804b9a8:	e8 54 f3 ff ff       	call   804ad01 <chdir_back>
 804b9ad:	8b 45 18             	mov    0x18(%ebp),%eax
 804b9b0:	89 45 cc             	mov    %eax,-0x34(%ebp)
 804b9b3:	c7 44 24 0c 00 00 00 	movl   $0x0,0xc(%esp)
 804b9ba:	00 
 804b9bb:	8d 85 48 ff ff ff    	lea    -0xb8(%ebp),%eax
 804b9c1:	89 44 24 08          	mov    %eax,0x8(%esp)
 804b9c5:	c7 44 24 04 00 00 00 	movl   $0x0,0x4(%esp)
 804b9cc:	00 
 804b9cd:	8b 45 cc             	mov    -0x34(%ebp),%eax
 804b9d0:	89 04 24             	mov    %eax,(%esp)
 804b9d3:	e8 d4 f2 ff ff       	call   804acac <safely_chdir>
 804b9d8:	89 45 e0             	mov    %eax,-0x20(%ebp)
 804b9db:	83 7d e0 06          	cmpl   $0x6,-0x20(%ebp)
 804b9df:	77 78                	ja     804ba59 <process_dir+0x4bd>
 804b9e1:	8b 45 e0             	mov    -0x20(%ebp),%eax
 804b9e4:	ba 01 00 00 00       	mov    $0x1,%edx
 804b9e9:	89 d3                	mov    %edx,%ebx
 804b9eb:	89 c1                	mov    %eax,%ecx
 804b9ed:	d3 e3                	shl    %cl,%ebx
 804b9ef:	89 d8                	mov    %ebx,%eax
 804b9f1:	89 c2                	mov    %eax,%edx
 804b9f3:	83 e2 6e             	and    $0x6e,%edx
 804b9f6:	85 d2                	test   %edx,%edx
 804b9f8:	75 34                	jne    804ba2e <process_dir+0x492>
 804b9fa:	89 c2                	mov    %eax,%edx
 804b9fc:	83 e2 10             	and    $0x10,%edx
 804b9ff:	85 d2                	test   %edx,%edx
 804ba01:	75 07                	jne    804ba0a <process_dir+0x46e>
 804ba03:	83 e0 01             	and    $0x1,%eax
 804ba06:	85 c0                	test   %eax,%eax
 804ba08:	eb 4f                	jmp    804ba59 <process_dir+0x4bd>
 804ba0a:	e8 a1 db ff ff       	call   80495b0 <__errno_location@plt>
 804ba0f:	8b 00                	mov    (%eax),%eax
 804ba11:	c7 44 24 08 88 7e 05 	movl   $0x8057e88,0x8(%esp)
 804ba18:	08 
 804ba19:	89 44 24 04          	mov    %eax,0x4(%esp)
 804ba1d:	c7 04 24 01 00 00 00 	movl   $0x1,(%esp)
 804ba24:	e8 37 da ff ff       	call   8049460 <error@plt>
 804ba29:	e9 bc 00 00 00       	jmp    804baea <process_dir+0x54e>
 804ba2e:	e8 7d db ff ff       	call   80495b0 <__errno_location@plt>
 804ba33:	8b 00                	mov    (%eax),%eax
 804ba35:	8b 55 08             	mov    0x8(%ebp),%edx
 804ba38:	89 54 24 0c          	mov    %edx,0xc(%esp)
 804ba3c:	c7 44 24 08 8a 7e 05 	movl   $0x8057e8a,0x8(%esp)
 804ba43:	08 
 804ba44:	89 44 24 04          	mov    %eax,0x4(%esp)
 804ba48:	c7 04 24 01 00 00 00 	movl   $0x1,(%esp)
 804ba4f:	e8 0c da ff ff       	call   8049460 <error@plt>
 804ba54:	e9 91 00 00 00       	jmp    804baea <process_dir+0x54e>
 804ba59:	a1 a4 f1 05 08       	mov    0x805f1a4,%eax
 804ba5e:	85 c0                	test   %eax,%eax
 804ba60:	7e 3f                	jle    804baa1 <process_dir+0x505>
 804ba62:	a1 1c f2 05 08       	mov    0x805f21c,%eax
 804ba67:	8b 15 a4 f1 05 08    	mov    0x805f1a4,%edx
 804ba6d:	83 ea 01             	sub    $0x1,%edx
 804ba70:	c1 e2 04             	shl    $0x4,%edx
 804ba73:	01 d0                	add    %edx,%eax
 804ba75:	8b 50 0c             	mov    0xc(%eax),%edx
 804ba78:	8b 40 08             	mov    0x8(%eax),%eax
 804ba7b:	89 45 b0             	mov    %eax,-0x50(%ebp)
 804ba7e:	89 55 b4             	mov    %edx,-0x4c(%ebp)
 804ba81:	a1 1c f2 05 08       	mov    0x805f21c,%eax
 804ba86:	8b 15 a4 f1 05 08    	mov    0x805f1a4,%edx
 804ba8c:	83 ea 01             	sub    $0x1,%edx
 804ba8f:	c1 e2 04             	shl    $0x4,%edx
 804ba92:	01 d0                	add    %edx,%eax
 804ba94:	8b 50 04             	mov    0x4(%eax),%edx
 804ba97:	8b 00                	mov    (%eax),%eax
 804ba99:	89 45 a8             	mov    %eax,-0x58(%ebp)
 804ba9c:	89 55 ac             	mov    %edx,-0x54(%ebp)
 804ba9f:	eb 22                	jmp    804bac3 <process_dir+0x527>
 804baa1:	a1 80 f6 05 08       	mov    0x805f680,%eax
 804baa6:	8b 15 84 f6 05 08    	mov    0x805f684,%edx
 804baac:	89 45 b0             	mov    %eax,-0x50(%ebp)
 804baaf:	89 55 b4             	mov    %edx,-0x4c(%ebp)
 804bab2:	a1 d8 f6 05 08       	mov    0x805f6d8,%eax
 804bab7:	8b 15 dc f6 05 08    	mov    0x805f6dc,%edx
 804babd:	89 45 a8             	mov    %eax,-0x58(%ebp)
 804bac0:	89 55 ac             	mov    %edx,-0x54(%ebp)
 804bac3:	83 7d c4 00          	cmpl   $0x0,-0x3c(%ebp)
 804bac7:	74 0b                	je     804bad4 <process_dir+0x538>
 804bac9:	8b 45 c4             	mov    -0x3c(%ebp),%eax
 804bacc:	89 04 24             	mov    %eax,(%esp)
 804bacf:	e8 5c d7 ff ff       	call   8049230 <free@plt>
 804bad4:	8b 45 d0             	mov    -0x30(%ebp),%eax
 804bad7:	89 04 24             	mov    %eax,(%esp)
 804bada:	e8 51 d7 ff ff       	call   8049230 <free@plt>
 804badf:	8b 45 b8             	mov    -0x48(%ebp),%eax
 804bae2:	89 04 24             	mov    %eax,(%esp)
 804bae5:	e8 46 d7 ff ff       	call   8049230 <free@plt>
 804baea:	81 c4 dc 00 00 00    	add    $0xdc,%esp
 804baf0:	5b                   	pop    %ebx
 804baf1:	5e                   	pop    %esi
 804baf2:	5f                   	pop    %edi
 804baf3:	5d                   	pop    %ebp
 804baf4:	c3                   	ret    

0804baf5 <default_prints>:
default_prints():
 804baf5:	55                   	push   %ebp
 804baf6:	89 e5                	mov    %esp,%ebp
 804baf8:	eb 1b                	jmp    804bb15 <default_prints+0x20>
 804bafa:	8b 45 08             	mov    0x8(%ebp),%eax
 804bafd:	0f b6 40 11          	movzbl 0x11(%eax),%eax
 804bb01:	84 c0                	test   %al,%al
 804bb03:	74 07                	je     804bb0c <default_prints+0x17>
 804bb05:	b8 00 00 00 00       	mov    $0x0,%eax
 804bb0a:	eb 14                	jmp    804bb20 <default_prints+0x2b>
 804bb0c:	8b 45 08             	mov    0x8(%ebp),%eax
 804bb0f:	8b 40 64             	mov    0x64(%eax),%eax
 804bb12:	89 45 08             	mov    %eax,0x8(%ebp)
 804bb15:	83 7d 08 00          	cmpl   $0x0,0x8(%ebp)
 804bb19:	75 df                	jne    804bafa <default_prints+0x5>
 804bb1b:	b8 01 00 00 00       	mov    $0x1,%eax
 804bb20:	5d                   	pop    %ebp
 804bb21:	c3                   	ret    
 804bb22:	90                   	nop
 804bb23:	90                   	nop

0804bb24 <free_file_system_list>:
free_file_system_list():
 804bb24:	55                   	push   %ebp
 804bb25:	89 e5                	mov    %esp,%ebp
 804bb27:	83 ec 28             	sub    $0x28,%esp
 804bb2a:	eb 5b                	jmp    804bb87 <free_file_system_list+0x63>
 804bb2c:	8b 45 08             	mov    0x8(%ebp),%eax
 804bb2f:	8b 40 18             	mov    0x18(%eax),%eax
 804bb32:	89 45 f4             	mov    %eax,-0xc(%ebp)
 804bb35:	8b 45 08             	mov    0x8(%ebp),%eax
 804bb38:	8b 00                	mov    (%eax),%eax
 804bb3a:	89 04 24             	mov    %eax,(%esp)
 804bb3d:	e8 ee d6 ff ff       	call   8049230 <free@plt>
 804bb42:	8b 45 08             	mov    0x8(%ebp),%eax
 804bb45:	8b 40 04             	mov    0x4(%eax),%eax
 804bb48:	89 04 24             	mov    %eax,(%esp)
 804bb4b:	e8 e0 d6 ff ff       	call   8049230 <free@plt>
 804bb50:	8b 45 08             	mov    0x8(%ebp),%eax
 804bb53:	0f b6 40 14          	movzbl 0x14(%eax),%eax
 804bb57:	83 e0 04             	and    $0x4,%eax
 804bb5a:	84 c0                	test   %al,%al
 804bb5c:	74 0e                	je     804bb6c <free_file_system_list+0x48>
 804bb5e:	8b 45 08             	mov    0x8(%ebp),%eax
 804bb61:	8b 40 08             	mov    0x8(%eax),%eax
 804bb64:	89 04 24             	mov    %eax,(%esp)
 804bb67:	e8 c4 d6 ff ff       	call   8049230 <free@plt>
 804bb6c:	8b 45 08             	mov    0x8(%ebp),%eax
 804bb6f:	c7 40 18 00 00 00 00 	movl   $0x0,0x18(%eax)
 804bb76:	8b 45 08             	mov    0x8(%ebp),%eax
 804bb79:	89 04 24             	mov    %eax,(%esp)
 804bb7c:	e8 af d6 ff ff       	call   8049230 <free@plt>
 804bb81:	8b 45 f4             	mov    -0xc(%ebp),%eax
 804bb84:	89 45 08             	mov    %eax,0x8(%ebp)
 804bb87:	83 7d 08 00          	cmpl   $0x0,0x8(%ebp)
 804bb8b:	75 9f                	jne    804bb2c <free_file_system_list+0x8>
 804bb8d:	c9                   	leave  
 804bb8e:	c3                   	ret    

0804bb8f <filesystem_type>:
filesystem_type():
 804bb8f:	55                   	push   %ebp
 804bb90:	89 e5                	mov    %esp,%ebp
 804bb92:	56                   	push   %esi
 804bb93:	53                   	push   %ebx
 804bb94:	83 ec 10             	sub    $0x10,%esp
 804bb97:	a1 34 f2 05 08       	mov    0x805f234,%eax
 804bb9c:	85 c0                	test   %eax,%eax
 804bb9e:	74 3c                	je     804bbdc <filesystem_type+0x4d>
 804bba0:	a1 30 f2 05 08       	mov    0x805f230,%eax
 804bba5:	85 c0                	test   %eax,%eax
 804bba7:	74 26                	je     804bbcf <filesystem_type+0x40>
 804bba9:	8b 45 08             	mov    0x8(%ebp),%eax
 804bbac:	8b 08                	mov    (%eax),%ecx
 804bbae:	8b 58 04             	mov    0x4(%eax),%ebx
 804bbb1:	a1 38 f2 05 08       	mov    0x805f238,%eax
 804bbb6:	8b 15 3c f2 05 08    	mov    0x805f23c,%edx
 804bbbc:	89 de                	mov    %ebx,%esi
 804bbbe:	31 d6                	xor    %edx,%esi
 804bbc0:	31 c8                	xor    %ecx,%eax
 804bbc2:	09 f0                	or     %esi,%eax
 804bbc4:	85 c0                	test   %eax,%eax
 804bbc6:	75 07                	jne    804bbcf <filesystem_type+0x40>
 804bbc8:	a1 34 f2 05 08       	mov    0x805f234,%eax
 804bbcd:	eb 35                	jmp    804bc04 <filesystem_type+0x75>
 804bbcf:	a1 34 f2 05 08       	mov    0x805f234,%eax
 804bbd4:	89 04 24             	mov    %eax,(%esp)
 804bbd7:	e8 54 d6 ff ff       	call   8049230 <free@plt>
 804bbdc:	8b 45 08             	mov    0x8(%ebp),%eax
 804bbdf:	8b 50 04             	mov    0x4(%eax),%edx
 804bbe2:	8b 00                	mov    (%eax),%eax
 804bbe4:	a3 38 f2 05 08       	mov    %eax,0x805f238
 804bbe9:	89 15 3c f2 05 08    	mov    %edx,0x805f23c
 804bbef:	8b 45 08             	mov    0x8(%ebp),%eax
 804bbf2:	89 04 24             	mov    %eax,(%esp)
 804bbf5:	e8 6e 00 00 00       	call   804bc68 <filesystem_type_uncached>
 804bbfa:	a3 34 f2 05 08       	mov    %eax,0x805f234
 804bbff:	a1 34 f2 05 08       	mov    0x805f234,%eax
 804bc04:	83 c4 10             	add    $0x10,%esp
 804bc07:	5b                   	pop    %ebx
 804bc08:	5e                   	pop    %esi
 804bc09:	5d                   	pop    %ebp
 804bc0a:	c3                   	ret    

0804bc0b <set_fstype_devno>:
set_fstype_devno():
 804bc0b:	55                   	push   %ebp
 804bc0c:	89 e5                	mov    %esp,%ebp
 804bc0e:	83 ec 78             	sub    $0x78,%esp
 804bc11:	8b 45 08             	mov    0x8(%ebp),%eax
 804bc14:	8b 50 10             	mov    0x10(%eax),%edx
 804bc17:	8b 40 0c             	mov    0xc(%eax),%eax
 804bc1a:	89 d1                	mov    %edx,%ecx
 804bc1c:	83 f1 ff             	xor    $0xffffffff,%ecx
 804bc1f:	83 f0 ff             	xor    $0xffffffff,%eax
 804bc22:	09 c8                	or     %ecx,%eax
 804bc24:	85 c0                	test   %eax,%eax
 804bc26:	75 39                	jne    804bc61 <set_fstype_devno+0x56>
 804bc28:	8b 0d 24 f7 05 08    	mov    0x805f724,%ecx
 804bc2e:	8b 45 08             	mov    0x8(%ebp),%eax
 804bc31:	8b 40 04             	mov    0x4(%eax),%eax
 804bc34:	8d 55 98             	lea    -0x68(%ebp),%edx
 804bc37:	89 54 24 04          	mov    %edx,0x4(%esp)
 804bc3b:	89 04 24             	mov    %eax,(%esp)
 804bc3e:	ff d1                	call   *%ecx
 804bc40:	85 c0                	test   %eax,%eax
 804bc42:	75 16                	jne    804bc5a <set_fstype_devno+0x4f>
 804bc44:	8b 45 98             	mov    -0x68(%ebp),%eax
 804bc47:	8b 55 9c             	mov    -0x64(%ebp),%edx
 804bc4a:	8b 4d 08             	mov    0x8(%ebp),%ecx
 804bc4d:	89 41 0c             	mov    %eax,0xc(%ecx)
 804bc50:	89 51 10             	mov    %edx,0x10(%ecx)
 804bc53:	b8 00 00 00 00       	mov    $0x0,%eax
 804bc58:	eb 0c                	jmp    804bc66 <set_fstype_devno+0x5b>
 804bc5a:	b8 ff ff ff ff       	mov    $0xffffffff,%eax
 804bc5f:	eb 05                	jmp    804bc66 <set_fstype_devno+0x5b>
 804bc61:	b8 00 00 00 00       	mov    $0x0,%eax
 804bc66:	c9                   	leave  
 804bc67:	c3                   	ret    

0804bc68 <filesystem_type_uncached>:
filesystem_type_uncached():
 804bc68:	55                   	push   %ebp
 804bc69:	89 e5                	mov    %esp,%ebp
 804bc6b:	57                   	push   %edi
 804bc6c:	56                   	push   %esi
 804bc6d:	53                   	push   %ebx
 804bc6e:	83 ec 2c             	sub    $0x2c,%esp
 804bc71:	c7 04 24 01 00 00 00 	movl   $0x1,(%esp)
 804bc78:	e8 83 b4 00 00       	call   8057100 <read_file_system_list>
 804bc7d:	89 45 e4             	mov    %eax,-0x1c(%ebp)
 804bc80:	c7 45 e0 00 00 00 00 	movl   $0x0,-0x20(%ebp)
 804bc87:	8b 45 e4             	mov    -0x1c(%ebp),%eax
 804bc8a:	89 45 dc             	mov    %eax,-0x24(%ebp)
 804bc8d:	eb 70                	jmp    804bcff <filesystem_type_uncached+0x97>
 804bc8f:	8b 45 dc             	mov    -0x24(%ebp),%eax
 804bc92:	8b 40 08             	mov    0x8(%eax),%eax
 804bc95:	89 c2                	mov    %eax,%edx
 804bc97:	b8 b8 84 05 08       	mov    $0x80584b8,%eax
 804bc9c:	b9 07 00 00 00       	mov    $0x7,%ecx
 804bca1:	89 d6                	mov    %edx,%esi
 804bca3:	89 c7                	mov    %eax,%edi
 804bca5:	f3 a6                	repz cmpsb %es:(%edi),%ds:(%esi)
 804bca7:	0f 97 c2             	seta   %dl
 804bcaa:	0f 92 c0             	setb   %al
 804bcad:	89 d1                	mov    %edx,%ecx
 804bcaf:	28 c1                	sub    %al,%cl
 804bcb1:	89 c8                	mov    %ecx,%eax
 804bcb3:	0f be c0             	movsbl %al,%eax
 804bcb6:	85 c0                	test   %eax,%eax
 804bcb8:	74 3b                	je     804bcf5 <filesystem_type_uncached+0x8d>
 804bcba:	8b 45 dc             	mov    -0x24(%ebp),%eax
 804bcbd:	89 04 24             	mov    %eax,(%esp)
 804bcc0:	e8 46 ff ff ff       	call   804bc0b <set_fstype_devno>
 804bcc5:	8b 45 dc             	mov    -0x24(%ebp),%eax
 804bcc8:	8b 48 0c             	mov    0xc(%eax),%ecx
 804bccb:	8b 58 10             	mov    0x10(%eax),%ebx
 804bcce:	8b 45 08             	mov    0x8(%ebp),%eax
 804bcd1:	8b 50 04             	mov    0x4(%eax),%edx
 804bcd4:	8b 00                	mov    (%eax),%eax
 804bcd6:	89 de                	mov    %ebx,%esi
 804bcd8:	31 d6                	xor    %edx,%esi
 804bcda:	31 c8                	xor    %ecx,%eax
 804bcdc:	09 f0                	or     %esi,%eax
 804bcde:	85 c0                	test   %eax,%eax
 804bce0:	75 14                	jne    804bcf6 <filesystem_type_uncached+0x8e>
 804bce2:	8b 45 dc             	mov    -0x24(%ebp),%eax
 804bce5:	8b 40 08             	mov    0x8(%eax),%eax
 804bce8:	89 04 24             	mov    %eax,(%esp)
 804bceb:	e8 f0 a3 00 00       	call   80560e0 <xstrdup>
 804bcf0:	89 45 e0             	mov    %eax,-0x20(%ebp)
 804bcf3:	eb 01                	jmp    804bcf6 <filesystem_type_uncached+0x8e>
 804bcf5:	90                   	nop
 804bcf6:	8b 45 dc             	mov    -0x24(%ebp),%eax
 804bcf9:	8b 40 18             	mov    0x18(%eax),%eax
 804bcfc:	89 45 dc             	mov    %eax,-0x24(%ebp)
 804bcff:	83 7d dc 00          	cmpl   $0x0,-0x24(%ebp)
 804bd03:	75 8a                	jne    804bc8f <filesystem_type_uncached+0x27>
 804bd05:	8b 45 e4             	mov    -0x1c(%ebp),%eax
 804bd08:	89 04 24             	mov    %eax,(%esp)
 804bd0b:	e8 14 fe ff ff       	call   804bb24 <free_file_system_list>
 804bd10:	83 7d e0 00          	cmpl   $0x0,-0x20(%ebp)
 804bd14:	0f 95 c0             	setne  %al
 804bd17:	0f b6 c0             	movzbl %al,%eax
 804bd1a:	a3 30 f2 05 08       	mov    %eax,0x805f230
 804bd1f:	83 7d e0 00          	cmpl   $0x0,-0x20(%ebp)
 804bd23:	75 16                	jne    804bd3b <filesystem_type_uncached+0xd3>
 804bd25:	c7 04 24 bf 84 05 08 	movl   $0x80584bf,(%esp)
 804bd2c:	e8 bf d7 ff ff       	call   80494f0 <gettext@plt>
 804bd31:	89 04 24             	mov    %eax,(%esp)
 804bd34:	e8 a7 a3 00 00       	call   80560e0 <xstrdup>
 804bd39:	eb 03                	jmp    804bd3e <filesystem_type_uncached+0xd6>
 804bd3b:	8b 45 e0             	mov    -0x20(%ebp),%eax
 804bd3e:	83 c4 2c             	add    $0x2c,%esp
 804bd41:	5b                   	pop    %ebx
 804bd42:	5e                   	pop    %esi
 804bd43:	5f                   	pop    %edi
 804bd44:	5d                   	pop    %ebp
 804bd45:	c3                   	ret    

0804bd46 <get_mounted_filesystems>:
get_mounted_filesystems():
 804bd46:	55                   	push   %ebp
 804bd47:	89 e5                	mov    %esp,%ebp
 804bd49:	57                   	push   %edi
 804bd4a:	56                   	push   %esi
 804bd4b:	83 ec 40             	sub    $0x40,%esp
 804bd4e:	c7 45 e4 00 00 00 00 	movl   $0x0,-0x1c(%ebp)
 804bd55:	c7 45 e0 00 00 00 00 	movl   $0x0,-0x20(%ebp)
 804bd5c:	c7 45 e8 00 00 00 00 	movl   $0x0,-0x18(%ebp)
 804bd63:	c7 04 24 00 00 00 00 	movl   $0x0,(%esp)
 804bd6a:	e8 91 b3 00 00       	call   8057100 <read_file_system_list>
 804bd6f:	89 45 f0             	mov    %eax,-0x10(%ebp)
 804bd72:	8b 45 f0             	mov    -0x10(%ebp),%eax
 804bd75:	89 45 ec             	mov    %eax,-0x14(%ebp)
 804bd78:	e9 ab 00 00 00       	jmp    804be28 <get_mounted_filesystems+0xe2>
 804bd7d:	8b 45 ec             	mov    -0x14(%ebp),%eax
 804bd80:	8b 40 08             	mov    0x8(%eax),%eax
 804bd83:	89 c2                	mov    %eax,%edx
 804bd85:	b8 b8 84 05 08       	mov    $0x80584b8,%eax
 804bd8a:	b9 07 00 00 00       	mov    $0x7,%ecx
 804bd8f:	89 d6                	mov    %edx,%esi
 804bd91:	89 c7                	mov    %eax,%edi
 804bd93:	f3 a6                	repz cmpsb %es:(%edi),%ds:(%esi)
 804bd95:	0f 97 c2             	seta   %dl
 804bd98:	0f 92 c0             	setb   %al
 804bd9b:	89 d1                	mov    %edx,%ecx
 804bd9d:	28 c1                	sub    %al,%cl
 804bd9f:	89 c8                	mov    %ecx,%eax
 804bda1:	0f be c0             	movsbl %al,%eax
 804bda4:	85 c0                	test   %eax,%eax
 804bda6:	74 76                	je     804be1e <get_mounted_filesystems+0xd8>
 804bda8:	8b 45 ec             	mov    -0x14(%ebp),%eax
 804bdab:	89 04 24             	mov    %eax,(%esp)
 804bdae:	e8 58 fe ff ff       	call   804bc0b <set_fstype_devno>
 804bdb3:	8b 45 ec             	mov    -0x14(%ebp),%eax
 804bdb6:	8b 40 04             	mov    0x4(%eax),%eax
 804bdb9:	c7 45 d4 ff ff ff ff 	movl   $0xffffffff,-0x2c(%ebp)
 804bdc0:	89 c2                	mov    %eax,%edx
 804bdc2:	b8 00 00 00 00       	mov    $0x0,%eax
 804bdc7:	8b 4d d4             	mov    -0x2c(%ebp),%ecx
 804bdca:	89 d7                	mov    %edx,%edi
 804bdcc:	f2 ae                	repnz scas %es:(%edi),%al
 804bdce:	89 c8                	mov    %ecx,%eax
 804bdd0:	f7 d0                	not    %eax
 804bdd2:	83 e8 01             	sub    $0x1,%eax
 804bdd5:	83 c0 01             	add    $0x1,%eax
 804bdd8:	89 45 f4             	mov    %eax,-0xc(%ebp)
 804bddb:	8b 45 f4             	mov    -0xc(%ebp),%eax
 804bdde:	8b 55 e8             	mov    -0x18(%ebp),%edx
 804bde1:	01 c2                	add    %eax,%edx
 804bde3:	8d 45 e0             	lea    -0x20(%ebp),%eax
 804bde6:	89 44 24 08          	mov    %eax,0x8(%esp)
 804bdea:	89 54 24 04          	mov    %edx,0x4(%esp)
 804bdee:	8b 45 e4             	mov    -0x1c(%ebp),%eax
 804bdf1:	89 04 24             	mov    %eax,(%esp)
 804bdf4:	e8 df 65 00 00       	call   80523d8 <extendbuf>
 804bdf9:	89 45 e4             	mov    %eax,-0x1c(%ebp)
 804bdfc:	8b 45 ec             	mov    -0x14(%ebp),%eax
 804bdff:	8b 40 04             	mov    0x4(%eax),%eax
 804be02:	8b 55 e8             	mov    -0x18(%ebp),%edx
 804be05:	8b 4d e4             	mov    -0x1c(%ebp),%ecx
 804be08:	01 ca                	add    %ecx,%edx
 804be0a:	89 44 24 04          	mov    %eax,0x4(%esp)
 804be0e:	89 14 24             	mov    %edx,(%esp)
 804be11:	e8 ea d5 ff ff       	call   8049400 <strcpy@plt>
 804be16:	8b 45 f4             	mov    -0xc(%ebp),%eax
 804be19:	01 45 e8             	add    %eax,-0x18(%ebp)
 804be1c:	eb 01                	jmp    804be1f <get_mounted_filesystems+0xd9>
 804be1e:	90                   	nop
 804be1f:	8b 45 ec             	mov    -0x14(%ebp),%eax
 804be22:	8b 40 18             	mov    0x18(%eax),%eax
 804be25:	89 45 ec             	mov    %eax,-0x14(%ebp)
 804be28:	83 7d ec 00          	cmpl   $0x0,-0x14(%ebp)
 804be2c:	0f 85 4b ff ff ff    	jne    804bd7d <get_mounted_filesystems+0x37>
 804be32:	8b 45 f0             	mov    -0x10(%ebp),%eax
 804be35:	89 04 24             	mov    %eax,(%esp)
 804be38:	e8 e7 fc ff ff       	call   804bb24 <free_file_system_list>
 804be3d:	8b 45 e4             	mov    -0x1c(%ebp),%eax
 804be40:	83 c4 40             	add    $0x40,%esp
 804be43:	5e                   	pop    %esi
 804be44:	5f                   	pop    %edi
 804be45:	5d                   	pop    %ebp
 804be46:	c3                   	ret    

0804be47 <get_mounted_devices>:
get_mounted_devices():
 804be47:	55                   	push   %ebp
 804be48:	89 e5                	mov    %esp,%ebp
 804be4a:	83 ec 38             	sub    $0x38,%esp
 804be4d:	c7 45 e4 00 00 00 00 	movl   $0x0,-0x1c(%ebp)
 804be54:	c7 45 e8 00 00 00 00 	movl   $0x0,-0x18(%ebp)
 804be5b:	c7 45 f0 00 00 00 00 	movl   $0x0,-0x10(%ebp)
 804be62:	c7 04 24 00 00 00 00 	movl   $0x0,(%esp)
 804be69:	e8 92 b2 00 00       	call   8057100 <read_file_system_list>
 804be6e:	89 45 f4             	mov    %eax,-0xc(%ebp)
 804be71:	8b 45 f4             	mov    -0xc(%ebp),%eax
 804be74:	89 45 ec             	mov    %eax,-0x14(%ebp)
 804be77:	eb 57                	jmp    804bed0 <get_mounted_devices+0x89>
 804be79:	8b 45 e8             	mov    -0x18(%ebp),%eax
 804be7c:	83 c0 01             	add    $0x1,%eax
 804be7f:	8d 14 c5 00 00 00 00 	lea    0x0(,%eax,8),%edx
 804be86:	8d 45 e4             	lea    -0x1c(%ebp),%eax
 804be89:	89 44 24 08          	mov    %eax,0x8(%esp)
 804be8d:	89 54 24 04          	mov    %edx,0x4(%esp)
 804be91:	8b 45 f0             	mov    -0x10(%ebp),%eax
 804be94:	89 04 24             	mov    %eax,(%esp)
 804be97:	e8 3c 65 00 00       	call   80523d8 <extendbuf>
 804be9c:	89 45 f0             	mov    %eax,-0x10(%ebp)
 804be9f:	8b 45 ec             	mov    -0x14(%ebp),%eax
 804bea2:	89 04 24             	mov    %eax,(%esp)
 804bea5:	e8 61 fd ff ff       	call   804bc0b <set_fstype_devno>
 804beaa:	8b 45 e8             	mov    -0x18(%ebp),%eax
 804bead:	c1 e0 03             	shl    $0x3,%eax
 804beb0:	89 c1                	mov    %eax,%ecx
 804beb2:	03 4d f0             	add    -0x10(%ebp),%ecx
 804beb5:	8b 45 ec             	mov    -0x14(%ebp),%eax
 804beb8:	8b 50 10             	mov    0x10(%eax),%edx
 804bebb:	8b 40 0c             	mov    0xc(%eax),%eax
 804bebe:	89 01                	mov    %eax,(%ecx)
 804bec0:	89 51 04             	mov    %edx,0x4(%ecx)
 804bec3:	83 45 e8 01          	addl   $0x1,-0x18(%ebp)
 804bec7:	8b 45 ec             	mov    -0x14(%ebp),%eax
 804beca:	8b 40 18             	mov    0x18(%eax),%eax
 804becd:	89 45 ec             	mov    %eax,-0x14(%ebp)
 804bed0:	83 7d ec 00          	cmpl   $0x0,-0x14(%ebp)
 804bed4:	75 a3                	jne    804be79 <get_mounted_devices+0x32>
 804bed6:	8b 45 f4             	mov    -0xc(%ebp),%eax
 804bed9:	89 04 24             	mov    %eax,(%esp)
 804bedc:	e8 43 fc ff ff       	call   804bb24 <free_file_system_list>
 804bee1:	8b 45 08             	mov    0x8(%ebp),%eax
 804bee4:	8b 55 e8             	mov    -0x18(%ebp),%edx
 804bee7:	89 10                	mov    %edx,(%eax)
 804bee9:	8b 45 f0             	mov    -0x10(%ebp),%eax
 804beec:	c9                   	leave  
 804beed:	c3                   	ret    
 804beee:	90                   	nop
 804beef:	90                   	nop

0804bef0 <find_parser>:
find_parser():
 804bef0:	55                   	push   %ebp
 804bef1:	89 e5                	mov    %esp,%ebp
 804bef3:	53                   	push   %ebx
 804bef4:	83 ec 34             	sub    $0x34,%esp
 804bef7:	8b 45 08             	mov    0x8(%ebp),%eax
 804befa:	89 45 f4             	mov    %eax,-0xc(%ebp)
 804befd:	8b 45 08             	mov    0x8(%ebp),%eax
 804bf00:	0f b6 00             	movzbl (%eax),%eax
 804bf03:	3c 2d                	cmp    $0x2d,%al
 804bf05:	75 04                	jne    804bf0b <find_parser+0x1b>
 804bf07:	83 45 08 01          	addl   $0x1,0x8(%ebp)
 804bf0b:	c7 45 f0 00 00 00 00 	movl   $0x0,-0x10(%ebp)
 804bf12:	e9 d7 00 00 00       	jmp    804bfee <find_parser+0xfe>
 804bf17:	8b 55 f0             	mov    -0x10(%ebp),%edx
 804bf1a:	89 d0                	mov    %edx,%eax
 804bf1c:	01 c0                	add    %eax,%eax
 804bf1e:	01 d0                	add    %edx,%eax
 804bf20:	c1 e0 02             	shl    $0x2,%eax
 804bf23:	05 e0 86 05 08       	add    $0x80586e0,%eax
 804bf28:	8b 40 04             	mov    0x4(%eax),%eax
 804bf2b:	8b 55 08             	mov    0x8(%ebp),%edx
 804bf2e:	89 54 24 04          	mov    %edx,0x4(%esp)
 804bf32:	89 04 24             	mov    %eax,(%esp)
 804bf35:	e8 86 d2 ff ff       	call   80491c0 <strcmp@plt>
 804bf3a:	85 c0                	test   %eax,%eax
 804bf3c:	0f 85 a8 00 00 00    	jne    804bfea <find_parser+0xfa>
 804bf42:	8b 55 f0             	mov    -0x10(%ebp),%edx
 804bf45:	89 d0                	mov    %edx,%eax
 804bf47:	01 c0                	add    %eax,%eax
 804bf49:	01 d0                	add    %edx,%eax
 804bf4b:	c1 e0 02             	shl    $0x2,%eax
 804bf4e:	05 e0 86 05 08       	add    $0x80586e0,%eax
 804bf53:	8b 00                	mov    (%eax),%eax
 804bf55:	83 f8 01             	cmp    $0x1,%eax
 804bf58:	74 7a                	je     804bfd4 <find_parser+0xe4>
 804bf5a:	8b 55 f0             	mov    -0x10(%ebp),%edx
 804bf5d:	89 d0                	mov    %edx,%eax
 804bf5f:	01 c0                	add    %eax,%eax
 804bf61:	01 d0                	add    %edx,%eax
 804bf63:	c1 e0 02             	shl    $0x2,%eax
 804bf66:	05 e0 86 05 08       	add    $0x80586e0,%eax
 804bf6b:	8b 00                	mov    (%eax),%eax
 804bf6d:	85 c0                	test   %eax,%eax
 804bf6f:	75 52                	jne    804bfc3 <find_parser+0xd3>
 804bf71:	a1 40 f2 05 08       	mov    0x805f240,%eax
 804bf76:	85 c0                	test   %eax,%eax
 804bf78:	74 5a                	je     804bfd4 <find_parser+0xe4>
 804bf7a:	0f b6 05 0f f7 05 08 	movzbl 0x805f70f,%eax
 804bf81:	84 c0                	test   %al,%al
 804bf83:	74 4f                	je     804bfd4 <find_parser+0xe4>
 804bf85:	8b 1d 40 f2 05 08    	mov    0x805f240,%ebx
 804bf8b:	c7 04 24 94 8a 05 08 	movl   $0x8058a94,(%esp)
 804bf92:	e8 59 d5 ff ff       	call   80494f0 <gettext@plt>
 804bf97:	8b 55 f4             	mov    -0xc(%ebp),%edx
 804bf9a:	89 54 24 14          	mov    %edx,0x14(%esp)
 804bf9e:	89 5c 24 10          	mov    %ebx,0x10(%esp)
 804bfa2:	8b 55 f4             	mov    -0xc(%ebp),%edx
 804bfa5:	89 54 24 0c          	mov    %edx,0xc(%esp)
 804bfa9:	89 44 24 08          	mov    %eax,0x8(%esp)
 804bfad:	c7 44 24 04 00 00 00 	movl   $0x0,0x4(%esp)
 804bfb4:	00 
 804bfb5:	c7 04 24 00 00 00 00 	movl   $0x0,(%esp)
 804bfbc:	e8 9f d4 ff ff       	call   8049460 <error@plt>
 804bfc1:	eb 11                	jmp    804bfd4 <find_parser+0xe4>
 804bfc3:	a1 40 f2 05 08       	mov    0x805f240,%eax
 804bfc8:	85 c0                	test   %eax,%eax
 804bfca:	75 08                	jne    804bfd4 <find_parser+0xe4>
 804bfcc:	8b 45 f4             	mov    -0xc(%ebp),%eax
 804bfcf:	a3 40 f2 05 08       	mov    %eax,0x805f240
 804bfd4:	8b 55 f0             	mov    -0x10(%ebp),%edx
 804bfd7:	89 d0                	mov    %edx,%eax
 804bfd9:	01 c0                	add    %eax,%eax
 804bfdb:	01 d0                	add    %edx,%eax
 804bfdd:	c1 e0 02             	shl    $0x2,%eax
 804bfe0:	05 e0 86 05 08       	add    $0x80586e0,%eax
 804bfe5:	8b 40 08             	mov    0x8(%eax),%eax
 804bfe8:	eb 25                	jmp    804c00f <find_parser+0x11f>
 804bfea:	83 45 f0 01          	addl   $0x1,-0x10(%ebp)
 804bfee:	8b 55 f0             	mov    -0x10(%ebp),%edx
 804bff1:	89 d0                	mov    %edx,%eax
 804bff3:	01 c0                	add    %eax,%eax
 804bff5:	01 d0                	add    %edx,%eax
 804bff7:	c1 e0 02             	shl    $0x2,%eax
 804bffa:	05 e0 86 05 08       	add    $0x80586e0,%eax
 804bfff:	8b 40 04             	mov    0x4(%eax),%eax
 804c002:	85 c0                	test   %eax,%eax
 804c004:	0f 85 0d ff ff ff    	jne    804bf17 <find_parser+0x27>
 804c00a:	b8 00 00 00 00       	mov    $0x0,%eax
 804c00f:	83 c4 34             	add    $0x34,%esp
 804c012:	5b                   	pop    %ebx
 804c013:	5d                   	pop    %ebp
 804c014:	c3                   	ret    

0804c015 <parse_amin>:
parse_amin():
 804c015:	55                   	push   %ebp
 804c016:	89 e5                	mov    %esp,%ebp
 804c018:	53                   	push   %ebx
 804c019:	83 ec 34             	sub    $0x34,%esp
 804c01c:	83 7d 08 00          	cmpl   $0x0,0x8(%ebp)
 804c020:	74 11                	je     804c033 <parse_amin+0x1e>
 804c022:	8b 45 0c             	mov    0xc(%ebp),%eax
 804c025:	8b 00                	mov    (%eax),%eax
 804c027:	c1 e0 02             	shl    $0x2,%eax
 804c02a:	03 45 08             	add    0x8(%ebp),%eax
 804c02d:	8b 00                	mov    (%eax),%eax
 804c02f:	85 c0                	test   %eax,%eax
 804c031:	75 0a                	jne    804c03d <parse_amin+0x28>
 804c033:	b8 00 00 00 00       	mov    $0x0,%eax
 804c038:	e9 a3 00 00 00       	jmp    804c0e0 <parse_amin+0xcb>
 804c03d:	8b 45 0c             	mov    0xc(%ebp),%eax
 804c040:	8b 00                	mov    (%eax),%eax
 804c042:	c1 e0 02             	shl    $0x2,%eax
 804c045:	03 45 08             	add    0x8(%ebp),%eax
 804c048:	8b 00                	mov    (%eax),%eax
 804c04a:	8d 55 ec             	lea    -0x14(%ebp),%edx
 804c04d:	89 54 24 08          	mov    %edx,0x8(%esp)
 804c051:	8d 55 e0             	lea    -0x20(%ebp),%edx
 804c054:	89 54 24 04          	mov    %edx,0x4(%esp)
 804c058:	89 04 24             	mov    %eax,(%esp)
 804c05b:	e8 b2 27 00 00       	call   804e812 <get_num_days>
 804c060:	83 f0 01             	xor    $0x1,%eax
 804c063:	84 c0                	test   %al,%al
 804c065:	74 07                	je     804c06e <parse_amin+0x59>
 804c067:	b8 00 00 00 00       	mov    $0x0,%eax
 804c06c:	eb 72                	jmp    804c0e0 <parse_amin+0xcb>
 804c06e:	a1 14 f7 05 08       	mov    0x805f714,%eax
 804c073:	89 c1                	mov    %eax,%ecx
 804c075:	8b 45 e0             	mov    -0x20(%ebp),%eax
 804c078:	8b 55 e4             	mov    -0x1c(%ebp),%edx
 804c07b:	c1 e0 02             	shl    $0x2,%eax
 804c07e:	89 c2                	mov    %eax,%edx
 804c080:	c1 e2 04             	shl    $0x4,%edx
 804c083:	89 d3                	mov    %edx,%ebx
 804c085:	29 c3                	sub    %eax,%ebx
 804c087:	89 d8                	mov    %ebx,%eax
 804c089:	89 ca                	mov    %ecx,%edx
 804c08b:	29 c2                	sub    %eax,%edx
 804c08d:	89 d0                	mov    %edx,%eax
 804c08f:	05 80 51 01 00       	add    $0x15180,%eax
 804c094:	89 45 f0             	mov    %eax,-0x10(%ebp)
 804c097:	c7 04 24 f4 eb 04 08 	movl   $0x804ebf4,(%esp)
 804c09e:	e8 49 58 00 00       	call   80518ec <insert_primary>
 804c0a3:	89 45 f4             	mov    %eax,-0xc(%ebp)
 804c0a6:	8b 55 ec             	mov    -0x14(%ebp),%edx
 804c0a9:	8b 45 f4             	mov    -0xc(%ebp),%eax
 804c0ac:	89 50 14             	mov    %edx,0x14(%eax)
 804c0af:	8b 45 f0             	mov    -0x10(%ebp),%eax
 804c0b2:	c1 e8 1f             	shr    $0x1f,%eax
 804c0b5:	89 c2                	mov    %eax,%edx
 804c0b7:	8b 45 f4             	mov    -0xc(%ebp),%eax
 804c0ba:	88 50 18             	mov    %dl,0x18(%eax)
 804c0bd:	8b 45 f0             	mov    -0x10(%ebp),%eax
 804c0c0:	89 c2                	mov    %eax,%edx
 804c0c2:	c1 fa 1f             	sar    $0x1f,%edx
 804c0c5:	8b 4d f4             	mov    -0xc(%ebp),%ecx
 804c0c8:	89 41 1c             	mov    %eax,0x1c(%ecx)
 804c0cb:	89 51 20             	mov    %edx,0x20(%ecx)
 804c0ce:	8b 45 0c             	mov    0xc(%ebp),%eax
 804c0d1:	8b 00                	mov    (%eax),%eax
 804c0d3:	8d 50 01             	lea    0x1(%eax),%edx
 804c0d6:	8b 45 0c             	mov    0xc(%ebp),%eax
 804c0d9:	89 10                	mov    %edx,(%eax)
 804c0db:	b8 01 00 00 00       	mov    $0x1,%eax
 804c0e0:	83 c4 34             	add    $0x34,%esp
 804c0e3:	5b                   	pop    %ebx
 804c0e4:	5d                   	pop    %ebp
 804c0e5:	c3                   	ret    

0804c0e6 <parse_and>:
parse_and():
 804c0e6:	55                   	push   %ebp
 804c0e7:	89 e5                	mov    %esp,%ebp
 804c0e9:	83 ec 18             	sub    $0x18,%esp
 804c0ec:	e8 9b 56 00 00       	call   805178c <get_new_pred>
 804c0f1:	89 45 f4             	mov    %eax,-0xc(%ebp)
 804c0f4:	8b 45 f4             	mov    -0xc(%ebp),%eax
 804c0f7:	c7 00 19 ec 04 08    	movl   $0x804ec19,(%eax)
 804c0fd:	8b 45 f4             	mov    -0xc(%ebp),%eax
 804c100:	c7 40 08 03 00 00 00 	movl   $0x3,0x8(%eax)
 804c107:	8b 45 f4             	mov    -0xc(%ebp),%eax
 804c10a:	c7 40 0c 03 00 00 00 	movl   $0x3,0xc(%eax)
 804c111:	8b 45 f4             	mov    -0xc(%ebp),%eax
 804c114:	c6 40 13 00          	movb   $0x0,0x13(%eax)
 804c118:	8b 45 f4             	mov    -0xc(%ebp),%eax
 804c11b:	0f b6 50 13          	movzbl 0x13(%eax),%edx
 804c11f:	8b 45 f4             	mov    -0xc(%ebp),%eax
 804c122:	88 50 12             	mov    %dl,0x12(%eax)
 804c125:	b8 01 00 00 00       	mov    $0x1,%eax
 804c12a:	c9                   	leave  
 804c12b:	c3                   	ret    

0804c12c <parse_anewer>:
parse_anewer():
 804c12c:	55                   	push   %ebp
 804c12d:	89 e5                	mov    %esp,%ebp
 804c12f:	53                   	push   %ebx
 804c130:	81 ec 84 00 00 00    	sub    $0x84,%esp
 804c136:	83 7d 08 00          	cmpl   $0x0,0x8(%ebp)
 804c13a:	74 11                	je     804c14d <parse_anewer+0x21>
 804c13c:	8b 45 0c             	mov    0xc(%ebp),%eax
 804c13f:	8b 00                	mov    (%eax),%eax
 804c141:	c1 e0 02             	shl    $0x2,%eax
 804c144:	03 45 08             	add    0x8(%ebp),%eax
 804c147:	8b 00                	mov    (%eax),%eax
 804c149:	85 c0                	test   %eax,%eax
 804c14b:	75 07                	jne    804c154 <parse_anewer+0x28>
 804c14d:	b8 00 00 00 00       	mov    $0x0,%eax
 804c152:	eb 7d                	jmp    804c1d1 <parse_anewer+0xa5>
 804c154:	8b 0d 24 f7 05 08    	mov    0x805f724,%ecx
 804c15a:	8b 45 0c             	mov    0xc(%ebp),%eax
 804c15d:	8b 00                	mov    (%eax),%eax
 804c15f:	c1 e0 02             	shl    $0x2,%eax
 804c162:	03 45 08             	add    0x8(%ebp),%eax
 804c165:	8b 00                	mov    (%eax),%eax
 804c167:	8d 55 94             	lea    -0x6c(%ebp),%edx
 804c16a:	89 54 24 04          	mov    %edx,0x4(%esp)
 804c16e:	89 04 24             	mov    %eax,(%esp)
 804c171:	ff d1                	call   *%ecx
 804c173:	85 c0                	test   %eax,%eax
 804c175:	74 30                	je     804c1a7 <parse_anewer+0x7b>
 804c177:	8b 45 0c             	mov    0xc(%ebp),%eax
 804c17a:	8b 00                	mov    (%eax),%eax
 804c17c:	c1 e0 02             	shl    $0x2,%eax
 804c17f:	03 45 08             	add    0x8(%ebp),%eax
 804c182:	8b 18                	mov    (%eax),%ebx
 804c184:	e8 27 d4 ff ff       	call   80495b0 <__errno_location@plt>
 804c189:	8b 00                	mov    (%eax),%eax
 804c18b:	89 5c 24 0c          	mov    %ebx,0xc(%esp)
 804c18f:	c7 44 24 08 7a 8b 05 	movl   $0x8058b7a,0x8(%esp)
 804c196:	08 
 804c197:	89 44 24 04          	mov    %eax,0x4(%esp)
 804c19b:	c7 04 24 01 00 00 00 	movl   $0x1,(%esp)
 804c1a2:	e8 b9 d2 ff ff       	call   8049460 <error@plt>
 804c1a7:	c7 04 24 a5 ec 04 08 	movl   $0x804eca5,(%esp)
 804c1ae:	e8 39 57 00 00       	call   80518ec <insert_primary>
 804c1b3:	89 45 f4             	mov    %eax,-0xc(%ebp)
 804c1b6:	8b 55 dc             	mov    -0x24(%ebp),%edx
 804c1b9:	8b 45 f4             	mov    -0xc(%ebp),%eax
 804c1bc:	89 50 14             	mov    %edx,0x14(%eax)
 804c1bf:	8b 45 0c             	mov    0xc(%ebp),%eax
 804c1c2:	8b 00                	mov    (%eax),%eax
 804c1c4:	8d 50 01             	lea    0x1(%eax),%edx
 804c1c7:	8b 45 0c             	mov    0xc(%ebp),%eax
 804c1ca:	89 10                	mov    %edx,(%eax)
 804c1cc:	b8 01 00 00 00       	mov    $0x1,%eax
 804c1d1:	81 c4 84 00 00 00    	add    $0x84,%esp
 804c1d7:	5b                   	pop    %ebx
 804c1d8:	5d                   	pop    %ebp
 804c1d9:	c3                   	ret    

0804c1da <parse_atime>:
parse_atime():
 804c1da:	55                   	push   %ebp
 804c1db:	89 e5                	mov    %esp,%ebp
 804c1dd:	83 ec 18             	sub    $0x18,%esp
 804c1e0:	c7 44 24 08 c6 ec 04 	movl   $0x804ecc6,0x8(%esp)
 804c1e7:	08 
 804c1e8:	8b 45 0c             	mov    0xc(%ebp),%eax
 804c1eb:	89 44 24 04          	mov    %eax,0x4(%esp)
 804c1ef:	8b 45 08             	mov    0x8(%ebp),%eax
 804c1f2:	89 04 24             	mov    %eax,(%esp)
 804c1f5:	e8 6b 26 00 00       	call   804e865 <insert_time>
 804c1fa:	c9                   	leave  
 804c1fb:	c3                   	ret    

0804c1fc <parse_close>:
parse_close():
 804c1fc:	55                   	push   %ebp
 804c1fd:	89 e5                	mov    %esp,%ebp
 804c1ff:	83 ec 18             	sub    $0x18,%esp
 804c202:	e8 85 55 00 00       	call   805178c <get_new_pred>
 804c207:	89 45 f4             	mov    %eax,-0xc(%ebp)
 804c20a:	8b 45 f4             	mov    -0xc(%ebp),%eax
 804c20d:	c7 00 eb ec 04 08    	movl   $0x804eceb,(%eax)
 804c213:	8b 45 f4             	mov    -0xc(%ebp),%eax
 804c216:	c7 40 08 05 00 00 00 	movl   $0x5,0x8(%eax)
 804c21d:	8b 45 f4             	mov    -0xc(%ebp),%eax
 804c220:	c7 40 0c 00 00 00 00 	movl   $0x0,0xc(%eax)
 804c227:	8b 45 f4             	mov    -0xc(%ebp),%eax
 804c22a:	c6 40 13 00          	movb   $0x0,0x13(%eax)
 804c22e:	8b 45 f4             	mov    -0xc(%ebp),%eax
 804c231:	0f b6 50 13          	movzbl 0x13(%eax),%edx
 804c235:	8b 45 f4             	mov    -0xc(%ebp),%eax
 804c238:	88 50 12             	mov    %dl,0x12(%eax)
 804c23b:	b8 01 00 00 00       	mov    $0x1,%eax
 804c240:	c9                   	leave  
 804c241:	c3                   	ret    

0804c242 <parse_cmin>:
parse_cmin():
 804c242:	55                   	push   %ebp
 804c243:	89 e5                	mov    %esp,%ebp
 804c245:	53                   	push   %ebx
 804c246:	83 ec 34             	sub    $0x34,%esp
 804c249:	83 7d 08 00          	cmpl   $0x0,0x8(%ebp)
 804c24d:	74 11                	je     804c260 <parse_cmin+0x1e>
 804c24f:	8b 45 0c             	mov    0xc(%ebp),%eax
 804c252:	8b 00                	mov    (%eax),%eax
 804c254:	c1 e0 02             	shl    $0x2,%eax
 804c257:	03 45 08             	add    0x8(%ebp),%eax
 804c25a:	8b 00                	mov    (%eax),%eax
 804c25c:	85 c0                	test   %eax,%eax
 804c25e:	75 0a                	jne    804c26a <parse_cmin+0x28>
 804c260:	b8 00 00 00 00       	mov    $0x0,%eax
 804c265:	e9 a3 00 00 00       	jmp    804c30d <parse_cmin+0xcb>
 804c26a:	8b 45 0c             	mov    0xc(%ebp),%eax
 804c26d:	8b 00                	mov    (%eax),%eax
 804c26f:	c1 e0 02             	shl    $0x2,%eax
 804c272:	03 45 08             	add    0x8(%ebp),%eax
 804c275:	8b 00                	mov    (%eax),%eax
 804c277:	8d 55 ec             	lea    -0x14(%ebp),%edx
 804c27a:	89 54 24 08          	mov    %edx,0x8(%esp)
 804c27e:	8d 55 e0             	lea    -0x20(%ebp),%edx
 804c281:	89 54 24 04          	mov    %edx,0x4(%esp)
 804c285:	89 04 24             	mov    %eax,(%esp)
 804c288:	e8 85 25 00 00       	call   804e812 <get_num_days>
 804c28d:	83 f0 01             	xor    $0x1,%eax
 804c290:	84 c0                	test   %al,%al
 804c292:	74 07                	je     804c29b <parse_cmin+0x59>
 804c294:	b8 00 00 00 00       	mov    $0x0,%eax
 804c299:	eb 72                	jmp    804c30d <parse_cmin+0xcb>
 804c29b:	a1 14 f7 05 08       	mov    0x805f714,%eax
 804c2a0:	89 c1                	mov    %eax,%ecx
 804c2a2:	8b 45 e0             	mov    -0x20(%ebp),%eax
 804c2a5:	8b 55 e4             	mov    -0x1c(%ebp),%edx
 804c2a8:	c1 e0 02             	shl    $0x2,%eax
 804c2ab:	89 c2                	mov    %eax,%edx
 804c2ad:	c1 e2 04             	shl    $0x4,%edx
 804c2b0:	89 d3                	mov    %edx,%ebx
 804c2b2:	29 c3                	sub    %eax,%ebx
 804c2b4:	89 d8                	mov    %ebx,%eax
 804c2b6:	89 ca                	mov    %ecx,%edx
 804c2b8:	29 c2                	sub    %eax,%edx
 804c2ba:	89 d0                	mov    %edx,%eax
 804c2bc:	05 80 51 01 00       	add    $0x15180,%eax
 804c2c1:	89 45 f0             	mov    %eax,-0x10(%ebp)
 804c2c4:	c7 04 24 f5 ec 04 08 	movl   $0x804ecf5,(%esp)
 804c2cb:	e8 1c 56 00 00       	call   80518ec <insert_primary>
 804c2d0:	89 45 f4             	mov    %eax,-0xc(%ebp)
 804c2d3:	8b 55 ec             	mov    -0x14(%ebp),%edx
 804c2d6:	8b 45 f4             	mov    -0xc(%ebp),%eax
 804c2d9:	89 50 14             	mov    %edx,0x14(%eax)
 804c2dc:	8b 45 f0             	mov    -0x10(%ebp),%eax
 804c2df:	c1 e8 1f             	shr    $0x1f,%eax
 804c2e2:	89 c2                	mov    %eax,%edx
 804c2e4:	8b 45 f4             	mov    -0xc(%ebp),%eax
 804c2e7:	88 50 18             	mov    %dl,0x18(%eax)
 804c2ea:	8b 45 f0             	mov    -0x10(%ebp),%eax
 804c2ed:	89 c2                	mov    %eax,%edx
 804c2ef:	c1 fa 1f             	sar    $0x1f,%edx
 804c2f2:	8b 4d f4             	mov    -0xc(%ebp),%ecx
 804c2f5:	89 41 1c             	mov    %eax,0x1c(%ecx)
 804c2f8:	89 51 20             	mov    %edx,0x20(%ecx)
 804c2fb:	8b 45 0c             	mov    0xc(%ebp),%eax
 804c2fe:	8b 00                	mov    (%eax),%eax
 804c300:	8d 50 01             	lea    0x1(%eax),%edx
 804c303:	8b 45 0c             	mov    0xc(%ebp),%eax
 804c306:	89 10                	mov    %edx,(%eax)
 804c308:	b8 01 00 00 00       	mov    $0x1,%eax
 804c30d:	83 c4 34             	add    $0x34,%esp
 804c310:	5b                   	pop    %ebx
 804c311:	5d                   	pop    %ebp
 804c312:	c3                   	ret    

0804c313 <parse_cnewer>:
parse_cnewer():
 804c313:	55                   	push   %ebp
 804c314:	89 e5                	mov    %esp,%ebp
 804c316:	53                   	push   %ebx
 804c317:	81 ec 84 00 00 00    	sub    $0x84,%esp
 804c31d:	83 7d 08 00          	cmpl   $0x0,0x8(%ebp)
 804c321:	74 11                	je     804c334 <parse_cnewer+0x21>
 804c323:	8b 45 0c             	mov    0xc(%ebp),%eax
 804c326:	8b 00                	mov    (%eax),%eax
 804c328:	c1 e0 02             	shl    $0x2,%eax
 804c32b:	03 45 08             	add    0x8(%ebp),%eax
 804c32e:	8b 00                	mov    (%eax),%eax
 804c330:	85 c0                	test   %eax,%eax
 804c332:	75 07                	jne    804c33b <parse_cnewer+0x28>
 804c334:	b8 00 00 00 00       	mov    $0x0,%eax
 804c339:	eb 7d                	jmp    804c3b8 <parse_cnewer+0xa5>
 804c33b:	8b 0d 24 f7 05 08    	mov    0x805f724,%ecx
 804c341:	8b 45 0c             	mov    0xc(%ebp),%eax
 804c344:	8b 00                	mov    (%eax),%eax
 804c346:	c1 e0 02             	shl    $0x2,%eax
 804c349:	03 45 08             	add    0x8(%ebp),%eax
 804c34c:	8b 00                	mov    (%eax),%eax
 804c34e:	8d 55 94             	lea    -0x6c(%ebp),%edx
 804c351:	89 54 24 04          	mov    %edx,0x4(%esp)
 804c355:	89 04 24             	mov    %eax,(%esp)
 804c358:	ff d1                	call   *%ecx
 804c35a:	85 c0                	test   %eax,%eax
 804c35c:	74 30                	je     804c38e <parse_cnewer+0x7b>
 804c35e:	8b 45 0c             	mov    0xc(%ebp),%eax
 804c361:	8b 00                	mov    (%eax),%eax
 804c363:	c1 e0 02             	shl    $0x2,%eax
 804c366:	03 45 08             	add    0x8(%ebp),%eax
 804c369:	8b 18                	mov    (%eax),%ebx
 804c36b:	e8 40 d2 ff ff       	call   80495b0 <__errno_location@plt>
 804c370:	8b 00                	mov    (%eax),%eax
 804c372:	89 5c 24 0c          	mov    %ebx,0xc(%esp)
 804c376:	c7 44 24 08 7a 8b 05 	movl   $0x8058b7a,0x8(%esp)
 804c37d:	08 
 804c37e:	89 44 24 04          	mov    %eax,0x4(%esp)
 804c382:	c7 04 24 01 00 00 00 	movl   $0x1,(%esp)
 804c389:	e8 d2 d0 ff ff       	call   8049460 <error@plt>
 804c38e:	c7 04 24 1a ed 04 08 	movl   $0x804ed1a,(%esp)
 804c395:	e8 52 55 00 00       	call   80518ec <insert_primary>
 804c39a:	89 45 f4             	mov    %eax,-0xc(%ebp)
 804c39d:	8b 55 dc             	mov    -0x24(%ebp),%edx
 804c3a0:	8b 45 f4             	mov    -0xc(%ebp),%eax
 804c3a3:	89 50 14             	mov    %edx,0x14(%eax)
 804c3a6:	8b 45 0c             	mov    0xc(%ebp),%eax
 804c3a9:	8b 00                	mov    (%eax),%eax
 804c3ab:	8d 50 01             	lea    0x1(%eax),%edx
 804c3ae:	8b 45 0c             	mov    0xc(%ebp),%eax
 804c3b1:	89 10                	mov    %edx,(%eax)
 804c3b3:	b8 01 00 00 00       	mov    $0x1,%eax
 804c3b8:	81 c4 84 00 00 00    	add    $0x84,%esp
 804c3be:	5b                   	pop    %ebx
 804c3bf:	5d                   	pop    %ebp
 804c3c0:	c3                   	ret    

0804c3c1 <parse_comma>:
parse_comma():
 804c3c1:	55                   	push   %ebp
 804c3c2:	89 e5                	mov    %esp,%ebp
 804c3c4:	83 ec 18             	sub    $0x18,%esp
 804c3c7:	e8 c0 53 00 00       	call   805178c <get_new_pred>
 804c3cc:	89 45 f4             	mov    %eax,-0xc(%ebp)
 804c3cf:	8b 45 f4             	mov    -0xc(%ebp),%eax
 804c3d2:	c7 00 3b ed 04 08    	movl   $0x804ed3b,(%eax)
 804c3d8:	8b 45 f4             	mov    -0xc(%ebp),%eax
 804c3db:	c7 40 08 03 00 00 00 	movl   $0x3,0x8(%eax)
 804c3e2:	8b 45 f4             	mov    -0xc(%ebp),%eax
 804c3e5:	c7 40 0c 01 00 00 00 	movl   $0x1,0xc(%eax)
 804c3ec:	8b 45 f4             	mov    -0xc(%ebp),%eax
 804c3ef:	c6 40 13 00          	movb   $0x0,0x13(%eax)
 804c3f3:	8b 45 f4             	mov    -0xc(%ebp),%eax
 804c3f6:	0f b6 50 13          	movzbl 0x13(%eax),%edx
 804c3fa:	8b 45 f4             	mov    -0xc(%ebp),%eax
 804c3fd:	88 50 12             	mov    %dl,0x12(%eax)
 804c400:	b8 01 00 00 00       	mov    $0x1,%eax
 804c405:	c9                   	leave  
 804c406:	c3                   	ret    

0804c407 <parse_ctime>:
parse_ctime():
 804c407:	55                   	push   %ebp
 804c408:	89 e5                	mov    %esp,%ebp
 804c40a:	83 ec 18             	sub    $0x18,%esp
 804c40d:	c7 44 24 08 bc ed 04 	movl   $0x804edbc,0x8(%esp)
 804c414:	08 
 804c415:	8b 45 0c             	mov    0xc(%ebp),%eax
 804c418:	89 44 24 04          	mov    %eax,0x4(%esp)
 804c41c:	8b 45 08             	mov    0x8(%ebp),%eax
 804c41f:	89 04 24             	mov    %eax,(%esp)
 804c422:	e8 3e 24 00 00       	call   804e865 <insert_time>
 804c427:	c9                   	leave  
 804c428:	c3                   	ret    

0804c429 <parse_daystart>:
parse_daystart():
 804c429:	55                   	push   %ebp
 804c42a:	89 e5                	mov    %esp,%ebp
 804c42c:	57                   	push   %edi
 804c42d:	56                   	push   %esi
 804c42e:	53                   	push   %ebx
 804c42f:	83 ec 2c             	sub    $0x2c,%esp
 804c432:	0f b6 05 18 f7 05 08 	movzbl 0x805f718,%eax
 804c439:	83 f0 01             	xor    $0x1,%eax
 804c43c:	84 c0                	test   %al,%al
 804c43e:	0f 84 95 00 00 00    	je     804c4d9 <parse_daystart+0xb0>
 804c444:	a1 14 f7 05 08       	mov    0x805f714,%eax
 804c449:	05 80 51 01 00       	add    $0x15180,%eax
 804c44e:	a3 14 f7 05 08       	mov    %eax,0x805f714
 804c453:	c7 04 24 14 f7 05 08 	movl   $0x805f714,(%esp)
 804c45a:	e8 b1 d0 ff ff       	call   8049510 <localtime@plt>
 804c45f:	89 45 e4             	mov    %eax,-0x1c(%ebp)
 804c462:	8b 1d 14 f7 05 08    	mov    0x805f714,%ebx
 804c468:	83 7d e4 00          	cmpl   $0x0,-0x1c(%ebp)
 804c46c:	74 2b                	je     804c499 <parse_daystart+0x70>
 804c46e:	8b 45 e4             	mov    -0x1c(%ebp),%eax
 804c471:	8b 10                	mov    (%eax),%edx
 804c473:	8b 45 e4             	mov    -0x1c(%ebp),%eax
 804c476:	8b 40 08             	mov    0x8(%eax),%eax
 804c479:	69 c8 10 0e 00 00    	imul   $0xe10,%eax,%ecx
 804c47f:	8b 45 e4             	mov    -0x1c(%ebp),%eax
 804c482:	8b 40 04             	mov    0x4(%eax),%eax
 804c485:	c1 e0 02             	shl    $0x2,%eax
 804c488:	89 c6                	mov    %eax,%esi
 804c48a:	c1 e6 04             	shl    $0x4,%esi
 804c48d:	89 f7                	mov    %esi,%edi
 804c48f:	29 c7                	sub    %eax,%edi
 804c491:	89 f8                	mov    %edi,%eax
 804c493:	01 c8                	add    %ecx,%eax
 804c495:	01 d0                	add    %edx,%eax
 804c497:	eb 2e                	jmp    804c4c7 <parse_daystart+0x9e>
 804c499:	8b 0d 14 f7 05 08    	mov    0x805f714,%ecx
 804c49f:	ba 07 45 2e c2       	mov    $0xc22e4507,%edx
 804c4a4:	89 c8                	mov    %ecx,%eax
 804c4a6:	f7 ea                	imul   %edx
 804c4a8:	8d 04 0a             	lea    (%edx,%ecx,1),%eax
 804c4ab:	89 c2                	mov    %eax,%edx
 804c4ad:	c1 fa 10             	sar    $0x10,%edx
 804c4b0:	89 c8                	mov    %ecx,%eax
 804c4b2:	c1 f8 1f             	sar    $0x1f,%eax
 804c4b5:	89 d6                	mov    %edx,%esi
 804c4b7:	29 c6                	sub    %eax,%esi
 804c4b9:	89 f0                	mov    %esi,%eax
 804c4bb:	69 c0 80 51 01 00    	imul   $0x15180,%eax,%eax
 804c4c1:	89 cf                	mov    %ecx,%edi
 804c4c3:	29 c7                	sub    %eax,%edi
 804c4c5:	89 f8                	mov    %edi,%eax
 804c4c7:	89 da                	mov    %ebx,%edx
 804c4c9:	29 c2                	sub    %eax,%edx
 804c4cb:	89 d0                	mov    %edx,%eax
 804c4cd:	a3 14 f7 05 08       	mov    %eax,0x805f714
 804c4d2:	c6 05 18 f7 05 08 01 	movb   $0x1,0x805f718
 804c4d9:	b8 01 00 00 00       	mov    $0x1,%eax
 804c4de:	83 c4 2c             	add    $0x2c,%esp
 804c4e1:	5b                   	pop    %ebx
 804c4e2:	5e                   	pop    %esi
 804c4e3:	5f                   	pop    %edi
 804c4e4:	5d                   	pop    %ebp
 804c4e5:	c3                   	ret    

0804c4e6 <parse_delete>:
parse_delete():
 804c4e6:	55                   	push   %ebp
 804c4e7:	89 e5                	mov    %esp,%ebp
 804c4e9:	83 ec 28             	sub    $0x28,%esp
 804c4ec:	c7 04 24 e1 ed 04 08 	movl   $0x804ede1,(%esp)
 804c4f3:	e8 f4 53 00 00       	call   80518ec <insert_primary>
 804c4f8:	89 45 f4             	mov    %eax,-0xc(%ebp)
 804c4fb:	8b 45 f4             	mov    -0xc(%ebp),%eax
 804c4fe:	c6 40 10 01          	movb   $0x1,0x10(%eax)
 804c502:	8b 45 f4             	mov    -0xc(%ebp),%eax
 804c505:	c6 40 11 01          	movb   $0x1,0x11(%eax)
 804c509:	c6 05 00 f7 05 08 00 	movb   $0x0,0x805f700
 804c510:	b8 01 00 00 00       	mov    $0x1,%eax
 804c515:	c9                   	leave  
 804c516:	c3                   	ret    

0804c517 <parse_depth>:
parse_depth():
 804c517:	55                   	push   %ebp
 804c518:	89 e5                	mov    %esp,%ebp
 804c51a:	c6 05 00 f7 05 08 00 	movb   $0x0,0x805f700
 804c521:	b8 01 00 00 00       	mov    $0x1,%eax
 804c526:	5d                   	pop    %ebp
 804c527:	c3                   	ret    

0804c528 <parse_d>:
parse_d():
 804c528:	55                   	push   %ebp
 804c529:	89 e5                	mov    %esp,%ebp
 804c52b:	83 ec 18             	sub    $0x18,%esp
 804c52e:	0f b6 05 0f f7 05 08 	movzbl 0x805f70f,%eax
 804c535:	84 c0                	test   %al,%al
 804c537:	74 24                	je     804c55d <parse_d+0x35>
 804c539:	c7 04 24 80 8b 05 08 	movl   $0x8058b80,(%esp)
 804c540:	e8 ab cf ff ff       	call   80494f0 <gettext@plt>
 804c545:	89 44 24 08          	mov    %eax,0x8(%esp)
 804c549:	c7 44 24 04 00 00 00 	movl   $0x0,0x4(%esp)
 804c550:	00 
 804c551:	c7 04 24 00 00 00 00 	movl   $0x0,(%esp)
 804c558:	e8 03 cf ff ff       	call   8049460 <error@plt>
 804c55d:	8b 45 0c             	mov    0xc(%ebp),%eax
 804c560:	89 44 24 04          	mov    %eax,0x4(%esp)
 804c564:	8b 45 08             	mov    0x8(%ebp),%eax
 804c567:	89 04 24             	mov    %eax,(%esp)
 804c56a:	e8 a8 ff ff ff       	call   804c517 <parse_depth>
 804c56f:	c9                   	leave  
 804c570:	c3                   	ret    

0804c571 <parse_empty>:
parse_empty():
 804c571:	55                   	push   %ebp
 804c572:	89 e5                	mov    %esp,%ebp
 804c574:	83 ec 18             	sub    $0x18,%esp
 804c577:	c7 04 24 64 ee 04 08 	movl   $0x804ee64,(%esp)
 804c57e:	e8 69 53 00 00       	call   80518ec <insert_primary>
 804c583:	b8 01 00 00 00       	mov    $0x1,%eax
 804c588:	c9                   	leave  
 804c589:	c3                   	ret    

0804c58a <parse_exec>:
parse_exec():
 804c58a:	55                   	push   %ebp
 804c58b:	89 e5                	mov    %esp,%ebp
 804c58d:	83 ec 18             	sub    $0x18,%esp
 804c590:	8b 45 0c             	mov    0xc(%ebp),%eax
 804c593:	89 44 24 0c          	mov    %eax,0xc(%esp)
 804c597:	8b 45 08             	mov    0x8(%ebp),%eax
 804c59a:	89 44 24 08          	mov    %eax,0x8(%esp)
 804c59e:	c7 44 24 04 fa f0 04 	movl   $0x804f0fa,0x4(%esp)
 804c5a5:	08 
 804c5a6:	c7 04 24 f2 8b 05 08 	movl   $0x8058bf2,(%esp)
 804c5ad:	e8 38 22 00 00       	call   804e7ea <insert_exec_ok>
 804c5b2:	c9                   	leave  
 804c5b3:	c3                   	ret    

0804c5b4 <parse_execdir>:
parse_execdir():
 804c5b4:	55                   	push   %ebp
 804c5b5:	89 e5                	mov    %esp,%ebp
 804c5b7:	83 ec 18             	sub    $0x18,%esp
 804c5ba:	8b 45 0c             	mov    0xc(%ebp),%eax
 804c5bd:	89 44 24 0c          	mov    %eax,0xc(%esp)
 804c5c1:	8b 45 08             	mov    0x8(%ebp),%eax
 804c5c4:	89 44 24 08          	mov    %eax,0x8(%esp)
 804c5c8:	c7 44 24 04 2b f1 04 	movl   $0x804f12b,0x4(%esp)
 804c5cf:	08 
 804c5d0:	c7 04 24 f8 8b 05 08 	movl   $0x8058bf8,(%esp)
 804c5d7:	e8 0e 22 00 00       	call   804e7ea <insert_exec_ok>
 804c5dc:	c9                   	leave  
 804c5dd:	c3                   	ret    

0804c5de <parse_false>:
parse_false():
 804c5de:	55                   	push   %ebp
 804c5df:	89 e5                	mov    %esp,%ebp
 804c5e1:	83 ec 28             	sub    $0x28,%esp
 804c5e4:	c7 04 24 87 f1 04 08 	movl   $0x804f187,(%esp)
 804c5eb:	e8 fc 52 00 00       	call   80518ec <insert_primary>
 804c5f0:	89 45 f4             	mov    %eax,-0xc(%ebp)
 804c5f3:	8b 45 f4             	mov    -0xc(%ebp),%eax
 804c5f6:	c6 40 13 00          	movb   $0x0,0x13(%eax)
 804c5fa:	8b 45 f4             	mov    -0xc(%ebp),%eax
 804c5fd:	0f b6 50 13          	movzbl 0x13(%eax),%edx
 804c601:	8b 45 f4             	mov    -0xc(%ebp),%eax
 804c604:	88 50 12             	mov    %dl,0x12(%eax)
 804c607:	b8 01 00 00 00       	mov    $0x1,%eax
 804c60c:	c9                   	leave  
 804c60d:	c3                   	ret    

0804c60e <parse_fls>:
parse_fls():
 804c60e:	55                   	push   %ebp
 804c60f:	89 e5                	mov    %esp,%ebp
 804c611:	83 ec 28             	sub    $0x28,%esp
 804c614:	83 7d 08 00          	cmpl   $0x0,0x8(%ebp)
 804c618:	74 11                	je     804c62b <parse_fls+0x1d>
 804c61a:	8b 45 0c             	mov    0xc(%ebp),%eax
 804c61d:	8b 00                	mov    (%eax),%eax
 804c61f:	c1 e0 02             	shl    $0x2,%eax
 804c622:	03 45 08             	add    0x8(%ebp),%eax
 804c625:	8b 00                	mov    (%eax),%eax
 804c627:	85 c0                	test   %eax,%eax
 804c629:	75 07                	jne    804c632 <parse_fls+0x24>
 804c62b:	b8 00 00 00 00       	mov    $0x0,%eax
 804c630:	eb 4a                	jmp    804c67c <parse_fls+0x6e>
 804c632:	c7 04 24 91 f1 04 08 	movl   $0x804f191,(%esp)
 804c639:	e8 ae 52 00 00       	call   80518ec <insert_primary>
 804c63e:	89 45 f4             	mov    %eax,-0xc(%ebp)
 804c641:	8b 45 0c             	mov    0xc(%ebp),%eax
 804c644:	8b 00                	mov    (%eax),%eax
 804c646:	c1 e0 02             	shl    $0x2,%eax
 804c649:	03 45 08             	add    0x8(%ebp),%eax
 804c64c:	8b 00                	mov    (%eax),%eax
 804c64e:	89 04 24             	mov    %eax,(%esp)
 804c651:	e8 99 24 00 00       	call   804eaef <open_output_file>
 804c656:	8b 55 f4             	mov    -0xc(%ebp),%edx
 804c659:	89 42 14             	mov    %eax,0x14(%edx)
 804c65c:	8b 45 f4             	mov    -0xc(%ebp),%eax
 804c65f:	c6 40 10 01          	movb   $0x1,0x10(%eax)
 804c663:	8b 45 f4             	mov    -0xc(%ebp),%eax
 804c666:	c6 40 11 01          	movb   $0x1,0x11(%eax)
 804c66a:	8b 45 0c             	mov    0xc(%ebp),%eax
 804c66d:	8b 00                	mov    (%eax),%eax
 804c66f:	8d 50 01             	lea    0x1(%eax),%edx
 804c672:	8b 45 0c             	mov    0xc(%ebp),%eax
 804c675:	89 10                	mov    %edx,(%eax)
 804c677:	b8 01 00 00 00       	mov    $0x1,%eax
 804c67c:	c9                   	leave  
 804c67d:	c3                   	ret    

0804c67e <parse_fprintf>:
parse_fprintf():
 804c67e:	55                   	push   %ebp
 804c67f:	89 e5                	mov    %esp,%ebp
 804c681:	83 ec 28             	sub    $0x28,%esp
 804c684:	83 7d 08 00          	cmpl   $0x0,0x8(%ebp)
 804c688:	74 11                	je     804c69b <parse_fprintf+0x1d>
 804c68a:	8b 45 0c             	mov    0xc(%ebp),%eax
 804c68d:	8b 00                	mov    (%eax),%eax
 804c68f:	c1 e0 02             	shl    $0x2,%eax
 804c692:	03 45 08             	add    0x8(%ebp),%eax
 804c695:	8b 00                	mov    (%eax),%eax
 804c697:	85 c0                	test   %eax,%eax
 804c699:	75 07                	jne    804c6a2 <parse_fprintf+0x24>
 804c69b:	b8 00 00 00 00       	mov    $0x0,%eax
 804c6a0:	eb 6e                	jmp    804c710 <parse_fprintf+0x92>
 804c6a2:	8b 45 0c             	mov    0xc(%ebp),%eax
 804c6a5:	8b 00                	mov    (%eax),%eax
 804c6a7:	83 c0 01             	add    $0x1,%eax
 804c6aa:	c1 e0 02             	shl    $0x2,%eax
 804c6ad:	03 45 08             	add    0x8(%ebp),%eax
 804c6b0:	8b 00                	mov    (%eax),%eax
 804c6b2:	85 c0                	test   %eax,%eax
 804c6b4:	75 14                	jne    804c6ca <parse_fprintf+0x4c>
 804c6b6:	8b 45 0c             	mov    0xc(%ebp),%eax
 804c6b9:	8b 00                	mov    (%eax),%eax
 804c6bb:	8d 50 01             	lea    0x1(%eax),%edx
 804c6be:	8b 45 0c             	mov    0xc(%ebp),%eax
 804c6c1:	89 10                	mov    %edx,(%eax)
 804c6c3:	b8 00 00 00 00       	mov    $0x0,%eax
 804c6c8:	eb 46                	jmp    804c710 <parse_fprintf+0x92>
 804c6ca:	8b 45 0c             	mov    0xc(%ebp),%eax
 804c6cd:	8b 00                	mov    (%eax),%eax
 804c6cf:	c1 e0 02             	shl    $0x2,%eax
 804c6d2:	03 45 08             	add    0x8(%ebp),%eax
 804c6d5:	8b 00                	mov    (%eax),%eax
 804c6d7:	89 04 24             	mov    %eax,(%esp)
 804c6da:	e8 10 24 00 00       	call   804eaef <open_output_file>
 804c6df:	89 45 f4             	mov    %eax,-0xc(%ebp)
 804c6e2:	8b 45 0c             	mov    0xc(%ebp),%eax
 804c6e5:	8b 00                	mov    (%eax),%eax
 804c6e7:	8d 50 01             	lea    0x1(%eax),%edx
 804c6ea:	8b 45 0c             	mov    0xc(%ebp),%eax
 804c6ed:	89 10                	mov    %edx,(%eax)
 804c6ef:	8b 45 0c             	mov    0xc(%ebp),%eax
 804c6f2:	89 44 24 0c          	mov    %eax,0xc(%esp)
 804c6f6:	8b 45 08             	mov    0x8(%ebp),%eax
 804c6f9:	89 44 24 08          	mov    %eax,0x8(%esp)
 804c6fd:	c7 44 24 04 4c f2 04 	movl   $0x804f24c,0x4(%esp)
 804c704:	08 
 804c705:	8b 45 f4             	mov    -0xc(%ebp),%eax
 804c708:	89 04 24             	mov    %eax,(%esp)
 804c70b:	e8 16 17 00 00       	call   804de26 <insert_fprintf>
 804c710:	c9                   	leave  
 804c711:	c3                   	ret    

0804c712 <parse_follow>:
parse_follow():
 804c712:	55                   	push   %ebp
 804c713:	89 e5                	mov    %esp,%ebp
 804c715:	83 ec 18             	sub    $0x18,%esp
 804c718:	c7 04 24 01 00 00 00 	movl   $0x1,(%esp)
 804c71f:	e8 9e d2 ff ff       	call   80499c2 <set_follow_state>
 804c724:	b8 01 00 00 00       	mov    $0x1,%eax
 804c729:	c9                   	leave  
 804c72a:	c3                   	ret    

0804c72b <parse_fprint>:
parse_fprint():
 804c72b:	55                   	push   %ebp
 804c72c:	89 e5                	mov    %esp,%ebp
 804c72e:	83 ec 28             	sub    $0x28,%esp
 804c731:	83 7d 08 00          	cmpl   $0x0,0x8(%ebp)
 804c735:	74 11                	je     804c748 <parse_fprint+0x1d>
 804c737:	8b 45 0c             	mov    0xc(%ebp),%eax
 804c73a:	8b 00                	mov    (%eax),%eax
 804c73c:	c1 e0 02             	shl    $0x2,%eax
 804c73f:	03 45 08             	add    0x8(%ebp),%eax
 804c742:	8b 00                	mov    (%eax),%eax
 804c744:	85 c0                	test   %eax,%eax
 804c746:	75 07                	jne    804c74f <parse_fprint+0x24>
 804c748:	b8 00 00 00 00       	mov    $0x0,%eax
 804c74d:	eb 5e                	jmp    804c7ad <parse_fprint+0x82>
 804c74f:	c7 04 24 dc f1 04 08 	movl   $0x804f1dc,(%esp)
 804c756:	e8 91 51 00 00       	call   80518ec <insert_primary>
 804c75b:	89 45 f4             	mov    %eax,-0xc(%ebp)
 804c75e:	8b 45 0c             	mov    0xc(%ebp),%eax
 804c761:	8b 00                	mov    (%eax),%eax
 804c763:	c1 e0 02             	shl    $0x2,%eax
 804c766:	03 45 08             	add    0x8(%ebp),%eax
 804c769:	8b 00                	mov    (%eax),%eax
 804c76b:	89 04 24             	mov    %eax,(%esp)
 804c76e:	e8 7c 23 00 00       	call   804eaef <open_output_file>
 804c773:	8b 55 f4             	mov    -0xc(%ebp),%edx
 804c776:	89 42 14             	mov    %eax,0x14(%edx)
 804c779:	8b 45 f4             	mov    -0xc(%ebp),%eax
 804c77c:	c6 40 10 01          	movb   $0x1,0x10(%eax)
 804c780:	8b 45 f4             	mov    -0xc(%ebp),%eax
 804c783:	c6 40 11 01          	movb   $0x1,0x11(%eax)
 804c787:	8b 45 f4             	mov    -0xc(%ebp),%eax
 804c78a:	c6 40 13 00          	movb   $0x0,0x13(%eax)
 804c78e:	8b 45 f4             	mov    -0xc(%ebp),%eax
 804c791:	0f b6 50 13          	movzbl 0x13(%eax),%edx
 804c795:	8b 45 f4             	mov    -0xc(%ebp),%eax
 804c798:	88 50 12             	mov    %dl,0x12(%eax)
 804c79b:	8b 45 0c             	mov    0xc(%ebp),%eax
 804c79e:	8b 00                	mov    (%eax),%eax
 804c7a0:	8d 50 01             	lea    0x1(%eax),%edx
 804c7a3:	8b 45 0c             	mov    0xc(%ebp),%eax
 804c7a6:	89 10                	mov    %edx,(%eax)
 804c7a8:	b8 01 00 00 00       	mov    $0x1,%eax
 804c7ad:	c9                   	leave  
 804c7ae:	c3                   	ret    

0804c7af <parse_fprint0>:
parse_fprint0():
 804c7af:	55                   	push   %ebp
 804c7b0:	89 e5                	mov    %esp,%ebp
 804c7b2:	83 ec 28             	sub    $0x28,%esp
 804c7b5:	83 7d 08 00          	cmpl   $0x0,0x8(%ebp)
 804c7b9:	74 11                	je     804c7cc <parse_fprint0+0x1d>
 804c7bb:	8b 45 0c             	mov    0xc(%ebp),%eax
 804c7be:	8b 00                	mov    (%eax),%eax
 804c7c0:	c1 e0 02             	shl    $0x2,%eax
 804c7c3:	03 45 08             	add    0x8(%ebp),%eax
 804c7c6:	8b 00                	mov    (%eax),%eax
 804c7c8:	85 c0                	test   %eax,%eax
 804c7ca:	75 07                	jne    804c7d3 <parse_fprint0+0x24>
 804c7cc:	b8 00 00 00 00       	mov    $0x0,%eax
 804c7d1:	eb 5e                	jmp    804c831 <parse_fprint0+0x82>
 804c7d3:	c7 04 24 14 f2 04 08 	movl   $0x804f214,(%esp)
 804c7da:	e8 0d 51 00 00       	call   80518ec <insert_primary>
 804c7df:	89 45 f4             	mov    %eax,-0xc(%ebp)
 804c7e2:	8b 45 0c             	mov    0xc(%ebp),%eax
 804c7e5:	8b 00                	mov    (%eax),%eax
 804c7e7:	c1 e0 02             	shl    $0x2,%eax
 804c7ea:	03 45 08             	add    0x8(%ebp),%eax
 804c7ed:	8b 00                	mov    (%eax),%eax
 804c7ef:	89 04 24             	mov    %eax,(%esp)
 804c7f2:	e8 f8 22 00 00       	call   804eaef <open_output_file>
 804c7f7:	8b 55 f4             	mov    -0xc(%ebp),%edx
 804c7fa:	89 42 14             	mov    %eax,0x14(%edx)
 804c7fd:	8b 45 f4             	mov    -0xc(%ebp),%eax
 804c800:	c6 40 10 01          	movb   $0x1,0x10(%eax)
 804c804:	8b 45 f4             	mov    -0xc(%ebp),%eax
 804c807:	c6 40 11 01          	movb   $0x1,0x11(%eax)
 804c80b:	8b 45 f4             	mov    -0xc(%ebp),%eax
 804c80e:	c6 40 13 00          	movb   $0x0,0x13(%eax)
 804c812:	8b 45 f4             	mov    -0xc(%ebp),%eax
 804c815:	0f b6 50 13          	movzbl 0x13(%eax),%edx
 804c819:	8b 45 f4             	mov    -0xc(%ebp),%eax
 804c81c:	88 50 12             	mov    %dl,0x12(%eax)
 804c81f:	8b 45 0c             	mov    0xc(%ebp),%eax
 804c822:	8b 00                	mov    (%eax),%eax
 804c824:	8d 50 01             	lea    0x1(%eax),%edx
 804c827:	8b 45 0c             	mov    0xc(%ebp),%eax
 804c82a:	89 10                	mov    %edx,(%eax)
 804c82c:	b8 01 00 00 00       	mov    $0x1,%eax
 804c831:	c9                   	leave  
 804c832:	c3                   	ret    

0804c833 <parse_fstype>:
parse_fstype():
 804c833:	55                   	push   %ebp
 804c834:	89 e5                	mov    %esp,%ebp
 804c836:	83 ec 28             	sub    $0x28,%esp
 804c839:	83 7d 08 00          	cmpl   $0x0,0x8(%ebp)
 804c83d:	74 11                	je     804c850 <parse_fstype+0x1d>
 804c83f:	8b 45 0c             	mov    0xc(%ebp),%eax
 804c842:	8b 00                	mov    (%eax),%eax
 804c844:	c1 e0 02             	shl    $0x2,%eax
 804c847:	03 45 08             	add    0x8(%ebp),%eax
 804c84a:	8b 00                	mov    (%eax),%eax
 804c84c:	85 c0                	test   %eax,%eax
 804c84e:	75 07                	jne    804c857 <parse_fstype+0x24>
 804c850:	b8 00 00 00 00       	mov    $0x0,%eax
 804c855:	eb 34                	jmp    804c88b <parse_fstype+0x58>
 804c857:	c7 04 24 46 fe 04 08 	movl   $0x804fe46,(%esp)
 804c85e:	e8 89 50 00 00       	call   80518ec <insert_primary>
 804c863:	89 45 f4             	mov    %eax,-0xc(%ebp)
 804c866:	8b 45 0c             	mov    0xc(%ebp),%eax
 804c869:	8b 00                	mov    (%eax),%eax
 804c86b:	c1 e0 02             	shl    $0x2,%eax
 804c86e:	03 45 08             	add    0x8(%ebp),%eax
 804c871:	8b 10                	mov    (%eax),%edx
 804c873:	8b 45 f4             	mov    -0xc(%ebp),%eax
 804c876:	89 50 14             	mov    %edx,0x14(%eax)
 804c879:	8b 45 0c             	mov    0xc(%ebp),%eax
 804c87c:	8b 00                	mov    (%eax),%eax
 804c87e:	8d 50 01             	lea    0x1(%eax),%edx
 804c881:	8b 45 0c             	mov    0xc(%ebp),%eax
 804c884:	89 10                	mov    %edx,(%eax)
 804c886:	b8 01 00 00 00       	mov    $0x1,%eax
 804c88b:	c9                   	leave  
 804c88c:	c3                   	ret    

0804c88d <parse_gid>:
parse_gid():
 804c88d:	55                   	push   %ebp
 804c88e:	89 e5                	mov    %esp,%ebp
 804c890:	83 ec 18             	sub    $0x18,%esp
 804c893:	c7 44 24 08 80 fe 04 	movl   $0x804fe80,0x8(%esp)
 804c89a:	08 
 804c89b:	8b 45 0c             	mov    0xc(%ebp),%eax
 804c89e:	89 44 24 04          	mov    %eax,0x4(%esp)
 804c8a2:	8b 45 08             	mov    0x8(%ebp),%eax
 804c8a5:	89 04 24             	mov    %eax,(%esp)
 804c8a8:	e8 b3 21 00 00       	call   804ea60 <insert_num>
 804c8ad:	c9                   	leave  
 804c8ae:	c3                   	ret    

0804c8af <parse_group>:
parse_group():
 804c8af:	55                   	push   %ebp
 804c8b0:	89 e5                	mov    %esp,%ebp
 804c8b2:	83 ec 28             	sub    $0x28,%esp
 804c8b5:	83 7d 08 00          	cmpl   $0x0,0x8(%ebp)
 804c8b9:	74 11                	je     804c8cc <parse_group+0x1d>
 804c8bb:	8b 45 0c             	mov    0xc(%ebp),%eax
 804c8be:	8b 00                	mov    (%eax),%eax
 804c8c0:	c1 e0 02             	shl    $0x2,%eax
 804c8c3:	03 45 08             	add    0x8(%ebp),%eax
 804c8c6:	8b 00                	mov    (%eax),%eax
 804c8c8:	85 c0                	test   %eax,%eax
 804c8ca:	75 0a                	jne    804c8d6 <parse_group+0x27>
 804c8cc:	b8 00 00 00 00       	mov    $0x0,%eax
 804c8d1:	e9 b6 00 00 00       	jmp    804c98c <parse_group+0xdd>
 804c8d6:	8b 45 0c             	mov    0xc(%ebp),%eax
 804c8d9:	8b 00                	mov    (%eax),%eax
 804c8db:	c1 e0 02             	shl    $0x2,%eax
 804c8de:	03 45 08             	add    0x8(%ebp),%eax
 804c8e1:	8b 00                	mov    (%eax),%eax
 804c8e3:	89 04 24             	mov    %eax,(%esp)
 804c8e6:	e8 65 ce ff ff       	call   8049750 <getgrnam@plt>
 804c8eb:	89 45 ec             	mov    %eax,-0x14(%ebp)
 804c8ee:	e8 ad c8 ff ff       	call   80491a0 <endgrent@plt>
 804c8f3:	83 7d ec 00          	cmpl   $0x0,-0x14(%ebp)
 804c8f7:	74 0b                	je     804c904 <parse_group+0x55>
 804c8f9:	8b 45 ec             	mov    -0x14(%ebp),%eax
 804c8fc:	8b 40 08             	mov    0x8(%eax),%eax
 804c8ff:	89 45 e8             	mov    %eax,-0x18(%ebp)
 804c902:	eb 5e                	jmp    804c962 <parse_group+0xb3>
 804c904:	8b 45 0c             	mov    0xc(%ebp),%eax
 804c907:	8b 00                	mov    (%eax),%eax
 804c909:	c1 e0 02             	shl    $0x2,%eax
 804c90c:	03 45 08             	add    0x8(%ebp),%eax
 804c90f:	8b 00                	mov    (%eax),%eax
 804c911:	c7 44 24 04 01 8c 05 	movl   $0x8058c01,0x4(%esp)
 804c918:	08 
 804c919:	89 04 24             	mov    %eax,(%esp)
 804c91c:	e8 5f ce ff ff       	call   8049780 <strspn@plt>
 804c921:	89 45 f0             	mov    %eax,-0x10(%ebp)
 804c924:	83 7d f0 00          	cmpl   $0x0,-0x10(%ebp)
 804c928:	74 19                	je     804c943 <parse_group+0x94>
 804c92a:	8b 45 0c             	mov    0xc(%ebp),%eax
 804c92d:	8b 00                	mov    (%eax),%eax
 804c92f:	c1 e0 02             	shl    $0x2,%eax
 804c932:	03 45 08             	add    0x8(%ebp),%eax
 804c935:	8b 10                	mov    (%eax),%edx
 804c937:	8b 45 f0             	mov    -0x10(%ebp),%eax
 804c93a:	01 d0                	add    %edx,%eax
 804c93c:	0f b6 00             	movzbl (%eax),%eax
 804c93f:	84 c0                	test   %al,%al
 804c941:	74 07                	je     804c94a <parse_group+0x9b>
 804c943:	b8 00 00 00 00       	mov    $0x0,%eax
 804c948:	eb 42                	jmp    804c98c <parse_group+0xdd>
 804c94a:	8b 45 0c             	mov    0xc(%ebp),%eax
 804c94d:	8b 00                	mov    (%eax),%eax
 804c94f:	c1 e0 02             	shl    $0x2,%eax
 804c952:	03 45 08             	add    0x8(%ebp),%eax
 804c955:	8b 00                	mov    (%eax),%eax
 804c957:	89 04 24             	mov    %eax,(%esp)
 804c95a:	e8 21 cd ff ff       	call   8049680 <atoi@plt>
 804c95f:	89 45 e8             	mov    %eax,-0x18(%ebp)
 804c962:	c7 04 24 2a ff 04 08 	movl   $0x804ff2a,(%esp)
 804c969:	e8 7e 4f 00 00       	call   80518ec <insert_primary>
 804c96e:	89 45 f4             	mov    %eax,-0xc(%ebp)
 804c971:	8b 45 f4             	mov    -0xc(%ebp),%eax
 804c974:	8b 55 e8             	mov    -0x18(%ebp),%edx
 804c977:	89 50 14             	mov    %edx,0x14(%eax)
 804c97a:	8b 45 0c             	mov    0xc(%ebp),%eax
 804c97d:	8b 00                	mov    (%eax),%eax
 804c97f:	8d 50 01             	lea    0x1(%eax),%edx
 804c982:	8b 45 0c             	mov    0xc(%ebp),%eax
 804c985:	89 10                	mov    %edx,(%eax)
 804c987:	b8 01 00 00 00       	mov    $0x1,%eax
 804c98c:	c9                   	leave  
 804c98d:	c3                   	ret    

0804c98e <parse_help>:
parse_help():
 804c98e:	55                   	push   %ebp
 804c98f:	89 e5                	mov    %esp,%ebp
 804c991:	53                   	push   %ebx
 804c992:	83 ec 14             	sub    $0x14,%esp
 804c995:	8b 1d 34 f7 05 08    	mov    0x805f734,%ebx
 804c99b:	c7 04 24 0c 8c 05 08 	movl   $0x8058c0c,(%esp)
 804c9a2:	e8 49 cb ff ff       	call   80494f0 <gettext@plt>
 804c9a7:	89 5c 24 04          	mov    %ebx,0x4(%esp)
 804c9ab:	89 04 24             	mov    %eax,(%esp)
 804c9ae:	e8 3d c8 ff ff       	call   80491f0 <printf@plt>
 804c9b3:	c7 04 24 30 8c 05 08 	movl   $0x8058c30,(%esp)
 804c9ba:	e8 31 cb ff ff       	call   80494f0 <gettext@plt>
 804c9bf:	89 04 24             	mov    %eax,(%esp)
 804c9c2:	e8 e9 ca ff ff       	call   80494b0 <puts@plt>
 804c9c7:	c7 04 24 bc 8c 05 08 	movl   $0x8058cbc,(%esp)
 804c9ce:	e8 1d cb ff ff       	call   80494f0 <gettext@plt>
 804c9d3:	89 04 24             	mov    %eax,(%esp)
 804c9d6:	e8 d5 ca ff ff       	call   80494b0 <puts@plt>
 804c9db:	c7 04 24 8c 8d 05 08 	movl   $0x8058d8c,(%esp)
 804c9e2:	e8 09 cb ff ff       	call   80494f0 <gettext@plt>
 804c9e7:	89 04 24             	mov    %eax,(%esp)
 804c9ea:	e8 c1 ca ff ff       	call   80494b0 <puts@plt>
 804c9ef:	c7 04 24 8c 8e 05 08 	movl   $0x8058e8c,(%esp)
 804c9f6:	e8 f5 ca ff ff       	call   80494f0 <gettext@plt>
 804c9fb:	89 04 24             	mov    %eax,(%esp)
 804c9fe:	e8 ad ca ff ff       	call   80494b0 <puts@plt>
 804ca03:	c7 04 24 b8 8f 05 08 	movl   $0x8058fb8,(%esp)
 804ca0a:	e8 e1 ca ff ff       	call   80494f0 <gettext@plt>
 804ca0f:	89 04 24             	mov    %eax,(%esp)
 804ca12:	e8 99 ca ff ff       	call   80494b0 <puts@plt>
 804ca17:	c7 04 24 70 90 05 08 	movl   $0x8059070,(%esp)
 804ca1e:	e8 cd ca ff ff       	call   80494f0 <gettext@plt>
 804ca23:	89 04 24             	mov    %eax,(%esp)
 804ca26:	e8 85 ca ff ff       	call   80494b0 <puts@plt>
 804ca2b:	c7 04 24 18 91 05 08 	movl   $0x8059118,(%esp)
 804ca32:	e8 b9 ca ff ff       	call   80494f0 <gettext@plt>
 804ca37:	89 04 24             	mov    %eax,(%esp)
 804ca3a:	e8 71 ca ff ff       	call   80494b0 <puts@plt>
 804ca3f:	c7 04 24 00 00 00 00 	movl   $0x0,(%esp)
 804ca46:	e8 95 ca ff ff       	call   80494e0 <exit@plt>

0804ca4b <parse_ilname>:
parse_ilname():
 804ca4b:	55                   	push   %ebp
 804ca4c:	89 e5                	mov    %esp,%ebp
 804ca4e:	83 ec 28             	sub    $0x28,%esp
 804ca51:	83 7d 08 00          	cmpl   $0x0,0x8(%ebp)
 804ca55:	74 11                	je     804ca68 <parse_ilname+0x1d>
 804ca57:	8b 45 0c             	mov    0xc(%ebp),%eax
 804ca5a:	8b 00                	mov    (%eax),%eax
 804ca5c:	c1 e0 02             	shl    $0x2,%eax
 804ca5f:	03 45 08             	add    0x8(%ebp),%eax
 804ca62:	8b 00                	mov    (%eax),%eax
 804ca64:	85 c0                	test   %eax,%eax
 804ca66:	75 07                	jne    804ca6f <parse_ilname+0x24>
 804ca68:	b8 00 00 00 00       	mov    $0x0,%eax
 804ca6d:	eb 34                	jmp    804caa3 <parse_ilname+0x58>
 804ca6f:	c7 04 24 4b ff 04 08 	movl   $0x804ff4b,(%esp)
 804ca76:	e8 71 4e 00 00       	call   80518ec <insert_primary>
 804ca7b:	89 45 f4             	mov    %eax,-0xc(%ebp)
 804ca7e:	8b 45 0c             	mov    0xc(%ebp),%eax
 804ca81:	8b 00                	mov    (%eax),%eax
 804ca83:	c1 e0 02             	shl    $0x2,%eax
 804ca86:	03 45 08             	add    0x8(%ebp),%eax
 804ca89:	8b 10                	mov    (%eax),%edx
 804ca8b:	8b 45 f4             	mov    -0xc(%ebp),%eax
 804ca8e:	89 50 14             	mov    %edx,0x14(%eax)
 804ca91:	8b 45 0c             	mov    0xc(%ebp),%eax
 804ca94:	8b 00                	mov    (%eax),%eax
 804ca96:	8d 50 01             	lea    0x1(%eax),%edx
 804ca99:	8b 45 0c             	mov    0xc(%ebp),%eax
 804ca9c:	89 10                	mov    %edx,(%eax)
 804ca9e:	b8 01 00 00 00       	mov    $0x1,%eax
 804caa3:	c9                   	leave  
 804caa4:	c3                   	ret    

0804caa5 <fnmatch_sanitycheck>:
fnmatch_sanitycheck():
 804caa5:	55                   	push   %ebp
 804caa6:	89 e5                	mov    %esp,%ebp
 804caa8:	83 ec 18             	sub    $0x18,%esp
 804caab:	c7 44 24 08 00 00 00 	movl   $0x0,0x8(%esp)
 804cab2:	00 
 804cab3:	c7 44 24 04 d0 91 05 	movl   $0x80591d0,0x4(%esp)
 804caba:	08 
 804cabb:	c7 04 24 d0 91 05 08 	movl   $0x80591d0,(%esp)
 804cac2:	e8 c9 c8 ff ff       	call   8049390 <fnmatch@plt>
 804cac7:	85 c0                	test   %eax,%eax
 804cac9:	75 40                	jne    804cb0b <fnmatch_sanitycheck+0x66>
 804cacb:	c7 44 24 08 00 00 00 	movl   $0x0,0x8(%esp)
 804cad2:	00 
 804cad3:	c7 44 24 04 d0 91 05 	movl   $0x80591d0,0x4(%esp)
 804cada:	08 
 804cadb:	c7 04 24 d4 91 05 08 	movl   $0x80591d4,(%esp)
 804cae2:	e8 a9 c8 ff ff       	call   8049390 <fnmatch@plt>
 804cae7:	85 c0                	test   %eax,%eax
 804cae9:	74 20                	je     804cb0b <fnmatch_sanitycheck+0x66>
 804caeb:	c7 44 24 08 10 00 00 	movl   $0x10,0x8(%esp)
 804caf2:	00 
 804caf3:	c7 44 24 04 d0 91 05 	movl   $0x80591d0,0x4(%esp)
 804cafa:	08 
 804cafb:	c7 04 24 d4 91 05 08 	movl   $0x80591d4,(%esp)
 804cb02:	e8 89 c8 ff ff       	call   8049390 <fnmatch@plt>
 804cb07:	85 c0                	test   %eax,%eax
 804cb09:	74 2b                	je     804cb36 <fnmatch_sanitycheck+0x91>
 804cb0b:	c7 04 24 d8 91 05 08 	movl   $0x80591d8,(%esp)
 804cb12:	e8 d9 c9 ff ff       	call   80494f0 <gettext@plt>
 804cb17:	89 44 24 08          	mov    %eax,0x8(%esp)
 804cb1b:	c7 44 24 04 00 00 00 	movl   $0x0,0x4(%esp)
 804cb22:	00 
 804cb23:	c7 04 24 01 00 00 00 	movl   $0x1,(%esp)
 804cb2a:	e8 31 c9 ff ff       	call   8049460 <error@plt>
 804cb2f:	b8 00 00 00 00       	mov    $0x0,%eax
 804cb34:	eb 05                	jmp    804cb3b <fnmatch_sanitycheck+0x96>
 804cb36:	b8 01 00 00 00       	mov    $0x1,%eax
 804cb3b:	c9                   	leave  
 804cb3c:	c3                   	ret    

0804cb3d <parse_iname>:
parse_iname():
 804cb3d:	55                   	push   %ebp
 804cb3e:	89 e5                	mov    %esp,%ebp
 804cb40:	83 ec 28             	sub    $0x28,%esp
 804cb43:	83 7d 08 00          	cmpl   $0x0,0x8(%ebp)
 804cb47:	74 11                	je     804cb5a <parse_iname+0x1d>
 804cb49:	8b 45 0c             	mov    0xc(%ebp),%eax
 804cb4c:	8b 00                	mov    (%eax),%eax
 804cb4e:	c1 e0 02             	shl    $0x2,%eax
 804cb51:	03 45 08             	add    0x8(%ebp),%eax
 804cb54:	8b 00                	mov    (%eax),%eax
 804cb56:	85 c0                	test   %eax,%eax
 804cb58:	75 07                	jne    804cb61 <parse_iname+0x24>
 804cb5a:	b8 00 00 00 00       	mov    $0x0,%eax
 804cb5f:	eb 4d                	jmp    804cbae <parse_iname+0x71>
 804cb61:	e8 3f ff ff ff       	call   804caa5 <fnmatch_sanitycheck>
 804cb66:	c7 04 24 74 ff 04 08 	movl   $0x804ff74,(%esp)
 804cb6d:	e8 7a 4d 00 00       	call   80518ec <insert_primary>
 804cb72:	89 45 f4             	mov    %eax,-0xc(%ebp)
 804cb75:	8b 45 f4             	mov    -0xc(%ebp),%eax
 804cb78:	c6 40 13 00          	movb   $0x0,0x13(%eax)
 804cb7c:	8b 45 f4             	mov    -0xc(%ebp),%eax
 804cb7f:	0f b6 50 13          	movzbl 0x13(%eax),%edx
 804cb83:	8b 45 f4             	mov    -0xc(%ebp),%eax
 804cb86:	88 50 12             	mov    %dl,0x12(%eax)
 804cb89:	8b 45 0c             	mov    0xc(%ebp),%eax
 804cb8c:	8b 00                	mov    (%eax),%eax
 804cb8e:	c1 e0 02             	shl    $0x2,%eax
 804cb91:	03 45 08             	add    0x8(%ebp),%eax
 804cb94:	8b 10                	mov    (%eax),%edx
 804cb96:	8b 45 f4             	mov    -0xc(%ebp),%eax
 804cb99:	89 50 14             	mov    %edx,0x14(%eax)
 804cb9c:	8b 45 0c             	mov    0xc(%ebp),%eax
 804cb9f:	8b 00                	mov    (%eax),%eax
 804cba1:	8d 50 01             	lea    0x1(%eax),%edx
 804cba4:	8b 45 0c             	mov    0xc(%ebp),%eax
 804cba7:	89 10                	mov    %edx,(%eax)
 804cba9:	b8 01 00 00 00       	mov    $0x1,%eax
 804cbae:	c9                   	leave  
 804cbaf:	c3                   	ret    

0804cbb0 <parse_inum>:
parse_inum():
 804cbb0:	55                   	push   %ebp
 804cbb1:	89 e5                	mov    %esp,%ebp
 804cbb3:	83 ec 18             	sub    $0x18,%esp
 804cbb6:	c7 44 24 08 b7 ff 04 	movl   $0x804ffb7,0x8(%esp)
 804cbbd:	08 
 804cbbe:	8b 45 0c             	mov    0xc(%ebp),%eax
 804cbc1:	89 44 24 04          	mov    %eax,0x4(%esp)
 804cbc5:	8b 45 08             	mov    0x8(%ebp),%eax
 804cbc8:	89 04 24             	mov    %eax,(%esp)
 804cbcb:	e8 90 1e 00 00       	call   804ea60 <insert_num>
 804cbd0:	c9                   	leave  
 804cbd1:	c3                   	ret    

0804cbd2 <parse_ipath>:
parse_ipath():
 804cbd2:	55                   	push   %ebp
 804cbd3:	89 e5                	mov    %esp,%ebp
 804cbd5:	83 ec 18             	sub    $0x18,%esp
 804cbd8:	c7 04 24 10 92 05 08 	movl   $0x8059210,(%esp)
 804cbdf:	e8 0c c9 ff ff       	call   80494f0 <gettext@plt>
 804cbe4:	89 44 24 08          	mov    %eax,0x8(%esp)
 804cbe8:	c7 44 24 04 00 00 00 	movl   $0x0,0x4(%esp)
 804cbef:	00 
 804cbf0:	c7 04 24 00 00 00 00 	movl   $0x0,(%esp)
 804cbf7:	e8 64 c8 ff ff       	call   8049460 <error@plt>
 804cbfc:	8b 45 0c             	mov    0xc(%ebp),%eax
 804cbff:	89 44 24 04          	mov    %eax,0x4(%esp)
 804cc03:	8b 45 08             	mov    0x8(%ebp),%eax
 804cc06:	89 04 24             	mov    %eax,(%esp)
 804cc09:	e8 02 00 00 00       	call   804cc10 <parse_iwholename>
 804cc0e:	c9                   	leave  
 804cc0f:	c3                   	ret    

0804cc10 <parse_iwholename>:
parse_iwholename():
 804cc10:	55                   	push   %ebp
 804cc11:	89 e5                	mov    %esp,%ebp
 804cc13:	83 ec 28             	sub    $0x28,%esp
 804cc16:	83 7d 08 00          	cmpl   $0x0,0x8(%ebp)
 804cc1a:	74 11                	je     804cc2d <parse_iwholename+0x1d>
 804cc1c:	8b 45 0c             	mov    0xc(%ebp),%eax
 804cc1f:	8b 00                	mov    (%eax),%eax
 804cc21:	c1 e0 02             	shl    $0x2,%eax
 804cc24:	03 45 08             	add    0x8(%ebp),%eax
 804cc27:	8b 00                	mov    (%eax),%eax
 804cc29:	85 c0                	test   %eax,%eax
 804cc2b:	75 07                	jne    804cc34 <parse_iwholename+0x24>
 804cc2d:	b8 00 00 00 00       	mov    $0x0,%eax
 804cc32:	eb 4d                	jmp    804cc81 <parse_iwholename+0x71>
 804cc34:	e8 6c fe ff ff       	call   804caa5 <fnmatch_sanitycheck>
 804cc39:	c7 04 24 52 00 05 08 	movl   $0x8050052,(%esp)
 804cc40:	e8 a7 4c 00 00       	call   80518ec <insert_primary>
 804cc45:	89 45 f4             	mov    %eax,-0xc(%ebp)
 804cc48:	8b 45 f4             	mov    -0xc(%ebp),%eax
 804cc4b:	c6 40 13 00          	movb   $0x0,0x13(%eax)
 804cc4f:	8b 45 f4             	mov    -0xc(%ebp),%eax
 804cc52:	0f b6 50 13          	movzbl 0x13(%eax),%edx
 804cc56:	8b 45 f4             	mov    -0xc(%ebp),%eax
 804cc59:	88 50 12             	mov    %dl,0x12(%eax)
 804cc5c:	8b 45 0c             	mov    0xc(%ebp),%eax
 804cc5f:	8b 00                	mov    (%eax),%eax
 804cc61:	c1 e0 02             	shl    $0x2,%eax
 804cc64:	03 45 08             	add    0x8(%ebp),%eax
 804cc67:	8b 10                	mov    (%eax),%edx
 804cc69:	8b 45 f4             	mov    -0xc(%ebp),%eax
 804cc6c:	89 50 14             	mov    %edx,0x14(%eax)
 804cc6f:	8b 45 0c             	mov    0xc(%ebp),%eax
 804cc72:	8b 00                	mov    (%eax),%eax
 804cc74:	8d 50 01             	lea    0x1(%eax),%edx
 804cc77:	8b 45 0c             	mov    0xc(%ebp),%eax
 804cc7a:	89 10                	mov    %edx,(%eax)
 804cc7c:	b8 01 00 00 00       	mov    $0x1,%eax
 804cc81:	c9                   	leave  
 804cc82:	c3                   	ret    

0804cc83 <parse_iregex>:
parse_iregex():
 804cc83:	55                   	push   %ebp
 804cc84:	89 e5                	mov    %esp,%ebp
 804cc86:	83 ec 18             	sub    $0x18,%esp
 804cc89:	c7 44 24 08 01 00 00 	movl   $0x1,0x8(%esp)
 804cc90:	00 
 804cc91:	8b 45 0c             	mov    0xc(%ebp),%eax
 804cc94:	89 44 24 04          	mov    %eax,0x4(%esp)
 804cc98:	8b 45 08             	mov    0x8(%ebp),%eax
 804cc9b:	89 04 24             	mov    %eax,(%esp)
 804cc9e:	e8 e3 08 00 00       	call   804d586 <insert_regex>
 804cca3:	c9                   	leave  
 804cca4:	c3                   	ret    

0804cca5 <parse_links>:
parse_links():
 804cca5:	55                   	push   %ebp
 804cca6:	89 e5                	mov    %esp,%ebp
 804cca8:	83 ec 18             	sub    $0x18,%esp
 804ccab:	c7 44 24 08 87 00 05 	movl   $0x8050087,0x8(%esp)
 804ccb2:	08 
 804ccb3:	8b 45 0c             	mov    0xc(%ebp),%eax
 804ccb6:	89 44 24 04          	mov    %eax,0x4(%esp)
 804ccba:	8b 45 08             	mov    0x8(%ebp),%eax
 804ccbd:	89 04 24             	mov    %eax,(%esp)
 804ccc0:	e8 9b 1d 00 00       	call   804ea60 <insert_num>
 804ccc5:	c9                   	leave  
 804ccc6:	c3                   	ret    

0804ccc7 <parse_lname>:
parse_lname():
 804ccc7:	55                   	push   %ebp
 804ccc8:	89 e5                	mov    %esp,%ebp
 804ccca:	83 ec 28             	sub    $0x28,%esp
 804cccd:	83 7d 08 00          	cmpl   $0x0,0x8(%ebp)
 804ccd1:	74 11                	je     804cce4 <parse_lname+0x1d>
 804ccd3:	8b 45 0c             	mov    0xc(%ebp),%eax
 804ccd6:	8b 00                	mov    (%eax),%eax
 804ccd8:	c1 e0 02             	shl    $0x2,%eax
 804ccdb:	03 45 08             	add    0x8(%ebp),%eax
 804ccde:	8b 00                	mov    (%eax),%eax
 804cce0:	85 c0                	test   %eax,%eax
 804cce2:	75 07                	jne    804cceb <parse_lname+0x24>
 804cce4:	b8 00 00 00 00       	mov    $0x0,%eax
 804cce9:	eb 39                	jmp    804cd24 <parse_lname+0x5d>
 804cceb:	e8 b5 fd ff ff       	call   804caa5 <fnmatch_sanitycheck>
 804ccf0:	c7 04 24 31 01 05 08 	movl   $0x8050131,(%esp)
 804ccf7:	e8 f0 4b 00 00       	call   80518ec <insert_primary>
 804ccfc:	89 45 f4             	mov    %eax,-0xc(%ebp)
 804ccff:	8b 45 0c             	mov    0xc(%ebp),%eax
 804cd02:	8b 00                	mov    (%eax),%eax
 804cd04:	c1 e0 02             	shl    $0x2,%eax
 804cd07:	03 45 08             	add    0x8(%ebp),%eax
 804cd0a:	8b 10                	mov    (%eax),%edx
 804cd0c:	8b 45 f4             	mov    -0xc(%ebp),%eax
 804cd0f:	89 50 14             	mov    %edx,0x14(%eax)
 804cd12:	8b 45 0c             	mov    0xc(%ebp),%eax
 804cd15:	8b 00                	mov    (%eax),%eax
 804cd17:	8d 50 01             	lea    0x1(%eax),%edx
 804cd1a:	8b 45 0c             	mov    0xc(%ebp),%eax
 804cd1d:	89 10                	mov    %edx,(%eax)
 804cd1f:	b8 01 00 00 00       	mov    $0x1,%eax
 804cd24:	c9                   	leave  
 804cd25:	c3                   	ret    

0804cd26 <parse_ls>:
parse_ls():
 804cd26:	55                   	push   %ebp
 804cd27:	89 e5                	mov    %esp,%ebp
 804cd29:	83 ec 28             	sub    $0x28,%esp
 804cd2c:	c7 04 24 dd 01 05 08 	movl   $0x80501dd,(%esp)
 804cd33:	e8 b4 4b 00 00       	call   80518ec <insert_primary>
 804cd38:	89 45 f4             	mov    %eax,-0xc(%ebp)
 804cd3b:	8b 45 f4             	mov    -0xc(%ebp),%eax
 804cd3e:	c6 40 10 01          	movb   $0x1,0x10(%eax)
 804cd42:	8b 45 f4             	mov    -0xc(%ebp),%eax
 804cd45:	c6 40 11 01          	movb   $0x1,0x11(%eax)
 804cd49:	b8 01 00 00 00       	mov    $0x1,%eax
 804cd4e:	c9                   	leave  
 804cd4f:	c3                   	ret    

0804cd50 <parse_maxdepth>:
parse_maxdepth():
 804cd50:	55                   	push   %ebp
 804cd51:	89 e5                	mov    %esp,%ebp
 804cd53:	83 ec 28             	sub    $0x28,%esp
 804cd56:	83 7d 08 00          	cmpl   $0x0,0x8(%ebp)
 804cd5a:	74 11                	je     804cd6d <parse_maxdepth+0x1d>
 804cd5c:	8b 45 0c             	mov    0xc(%ebp),%eax
 804cd5f:	8b 00                	mov    (%eax),%eax
 804cd61:	c1 e0 02             	shl    $0x2,%eax
 804cd64:	03 45 08             	add    0x8(%ebp),%eax
 804cd67:	8b 00                	mov    (%eax),%eax
 804cd69:	85 c0                	test   %eax,%eax
 804cd6b:	75 0a                	jne    804cd77 <parse_maxdepth+0x27>
 804cd6d:	b8 00 00 00 00       	mov    $0x0,%eax
 804cd72:	e9 82 00 00 00       	jmp    804cdf9 <parse_maxdepth+0xa9>
 804cd77:	8b 45 0c             	mov    0xc(%ebp),%eax
 804cd7a:	8b 00                	mov    (%eax),%eax
 804cd7c:	c1 e0 02             	shl    $0x2,%eax
 804cd7f:	03 45 08             	add    0x8(%ebp),%eax
 804cd82:	8b 00                	mov    (%eax),%eax
 804cd84:	c7 44 24 04 01 8c 05 	movl   $0x8058c01,0x4(%esp)
 804cd8b:	08 
 804cd8c:	89 04 24             	mov    %eax,(%esp)
 804cd8f:	e8 ec c9 ff ff       	call   8049780 <strspn@plt>
 804cd94:	89 45 f4             	mov    %eax,-0xc(%ebp)
 804cd97:	83 7d f4 00          	cmpl   $0x0,-0xc(%ebp)
 804cd9b:	74 19                	je     804cdb6 <parse_maxdepth+0x66>
 804cd9d:	8b 45 0c             	mov    0xc(%ebp),%eax
 804cda0:	8b 00                	mov    (%eax),%eax
 804cda2:	c1 e0 02             	shl    $0x2,%eax
 804cda5:	03 45 08             	add    0x8(%ebp),%eax
 804cda8:	8b 10                	mov    (%eax),%edx
 804cdaa:	8b 45 f4             	mov    -0xc(%ebp),%eax
 804cdad:	01 d0                	add    %edx,%eax
 804cdaf:	0f b6 00             	movzbl (%eax),%eax
 804cdb2:	84 c0                	test   %al,%al
 804cdb4:	74 07                	je     804cdbd <parse_maxdepth+0x6d>
 804cdb6:	b8 00 00 00 00       	mov    $0x0,%eax
 804cdbb:	eb 3c                	jmp    804cdf9 <parse_maxdepth+0xa9>
 804cdbd:	8b 45 0c             	mov    0xc(%ebp),%eax
 804cdc0:	8b 00                	mov    (%eax),%eax
 804cdc2:	c1 e0 02             	shl    $0x2,%eax
 804cdc5:	03 45 08             	add    0x8(%ebp),%eax
 804cdc8:	8b 00                	mov    (%eax),%eax
 804cdca:	89 04 24             	mov    %eax,(%esp)
 804cdcd:	e8 ae c8 ff ff       	call   8049680 <atoi@plt>
 804cdd2:	a3 04 f7 05 08       	mov    %eax,0x805f704
 804cdd7:	a1 04 f7 05 08       	mov    0x805f704,%eax
 804cddc:	85 c0                	test   %eax,%eax
 804cdde:	79 07                	jns    804cde7 <parse_maxdepth+0x97>
 804cde0:	b8 00 00 00 00       	mov    $0x0,%eax
 804cde5:	eb 12                	jmp    804cdf9 <parse_maxdepth+0xa9>
 804cde7:	8b 45 0c             	mov    0xc(%ebp),%eax
 804cdea:	8b 00                	mov    (%eax),%eax
 804cdec:	8d 50 01             	lea    0x1(%eax),%edx
 804cdef:	8b 45 0c             	mov    0xc(%ebp),%eax
 804cdf2:	89 10                	mov    %edx,(%eax)
 804cdf4:	b8 01 00 00 00       	mov    $0x1,%eax
 804cdf9:	c9                   	leave  
 804cdfa:	c3                   	ret    

0804cdfb <parse_mindepth>:
parse_mindepth():
 804cdfb:	55                   	push   %ebp
 804cdfc:	89 e5                	mov    %esp,%ebp
 804cdfe:	83 ec 28             	sub    $0x28,%esp
 804ce01:	83 7d 08 00          	cmpl   $0x0,0x8(%ebp)
 804ce05:	74 11                	je     804ce18 <parse_mindepth+0x1d>
 804ce07:	8b 45 0c             	mov    0xc(%ebp),%eax
 804ce0a:	8b 00                	mov    (%eax),%eax
 804ce0c:	c1 e0 02             	shl    $0x2,%eax
 804ce0f:	03 45 08             	add    0x8(%ebp),%eax
 804ce12:	8b 00                	mov    (%eax),%eax
 804ce14:	85 c0                	test   %eax,%eax
 804ce16:	75 0a                	jne    804ce22 <parse_mindepth+0x27>
 804ce18:	b8 00 00 00 00       	mov    $0x0,%eax
 804ce1d:	e9 82 00 00 00       	jmp    804cea4 <parse_mindepth+0xa9>
 804ce22:	8b 45 0c             	mov    0xc(%ebp),%eax
 804ce25:	8b 00                	mov    (%eax),%eax
 804ce27:	c1 e0 02             	shl    $0x2,%eax
 804ce2a:	03 45 08             	add    0x8(%ebp),%eax
 804ce2d:	8b 00                	mov    (%eax),%eax
 804ce2f:	c7 44 24 04 01 8c 05 	movl   $0x8058c01,0x4(%esp)
 804ce36:	08 
 804ce37:	89 04 24             	mov    %eax,(%esp)
 804ce3a:	e8 41 c9 ff ff       	call   8049780 <strspn@plt>
 804ce3f:	89 45 f4             	mov    %eax,-0xc(%ebp)
 804ce42:	83 7d f4 00          	cmpl   $0x0,-0xc(%ebp)
 804ce46:	74 19                	je     804ce61 <parse_mindepth+0x66>
 804ce48:	8b 45 0c             	mov    0xc(%ebp),%eax
 804ce4b:	8b 00                	mov    (%eax),%eax
 804ce4d:	c1 e0 02             	shl    $0x2,%eax
 804ce50:	03 45 08             	add    0x8(%ebp),%eax
 804ce53:	8b 10                	mov    (%eax),%edx
 804ce55:	8b 45 f4             	mov    -0xc(%ebp),%eax
 804ce58:	01 d0                	add    %edx,%eax
 804ce5a:	0f b6 00             	movzbl (%eax),%eax
 804ce5d:	84 c0                	test   %al,%al
 804ce5f:	74 07                	je     804ce68 <parse_mindepth+0x6d>
 804ce61:	b8 00 00 00 00       	mov    $0x0,%eax
 804ce66:	eb 3c                	jmp    804cea4 <parse_mindepth+0xa9>
 804ce68:	8b 45 0c             	mov    0xc(%ebp),%eax
 804ce6b:	8b 00                	mov    (%eax),%eax
 804ce6d:	c1 e0 02             	shl    $0x2,%eax
 804ce70:	03 45 08             	add    0x8(%ebp),%eax
 804ce73:	8b 00                	mov    (%eax),%eax
 804ce75:	89 04 24             	mov    %eax,(%esp)
 804ce78:	e8 03 c8 ff ff       	call   8049680 <atoi@plt>
 804ce7d:	a3 08 f7 05 08       	mov    %eax,0x805f708
 804ce82:	a1 08 f7 05 08       	mov    0x805f708,%eax
 804ce87:	85 c0                	test   %eax,%eax
 804ce89:	79 07                	jns    804ce92 <parse_mindepth+0x97>
 804ce8b:	b8 00 00 00 00       	mov    $0x0,%eax
 804ce90:	eb 12                	jmp    804cea4 <parse_mindepth+0xa9>
 804ce92:	8b 45 0c             	mov    0xc(%ebp),%eax
 804ce95:	8b 00                	mov    (%eax),%eax
 804ce97:	8d 50 01             	lea    0x1(%eax),%edx
 804ce9a:	8b 45 0c             	mov    0xc(%ebp),%eax
 804ce9d:	89 10                	mov    %edx,(%eax)
 804ce9f:	b8 01 00 00 00       	mov    $0x1,%eax
 804cea4:	c9                   	leave  
 804cea5:	c3                   	ret    

0804cea6 <parse_mmin>:
parse_mmin():
 804cea6:	55                   	push   %ebp
 804cea7:	89 e5                	mov    %esp,%ebp
 804cea9:	53                   	push   %ebx
 804ceaa:	83 ec 34             	sub    $0x34,%esp
 804cead:	83 7d 08 00          	cmpl   $0x0,0x8(%ebp)
 804ceb1:	74 11                	je     804cec4 <parse_mmin+0x1e>
 804ceb3:	8b 45 0c             	mov    0xc(%ebp),%eax
 804ceb6:	8b 00                	mov    (%eax),%eax
 804ceb8:	c1 e0 02             	shl    $0x2,%eax
 804cebb:	03 45 08             	add    0x8(%ebp),%eax
 804cebe:	8b 00                	mov    (%eax),%eax
 804cec0:	85 c0                	test   %eax,%eax
 804cec2:	75 0a                	jne    804cece <parse_mmin+0x28>
 804cec4:	b8 00 00 00 00       	mov    $0x0,%eax
 804cec9:	e9 a3 00 00 00       	jmp    804cf71 <parse_mmin+0xcb>
 804cece:	8b 45 0c             	mov    0xc(%ebp),%eax
 804ced1:	8b 00                	mov    (%eax),%eax
 804ced3:	c1 e0 02             	shl    $0x2,%eax
 804ced6:	03 45 08             	add    0x8(%ebp),%eax
 804ced9:	8b 00                	mov    (%eax),%eax
 804cedb:	8d 55 ec             	lea    -0x14(%ebp),%edx
 804cede:	89 54 24 08          	mov    %edx,0x8(%esp)
 804cee2:	8d 55 e0             	lea    -0x20(%ebp),%edx
 804cee5:	89 54 24 04          	mov    %edx,0x4(%esp)
 804cee9:	89 04 24             	mov    %eax,(%esp)
 804ceec:	e8 21 19 00 00       	call   804e812 <get_num_days>
 804cef1:	83 f0 01             	xor    $0x1,%eax
 804cef4:	84 c0                	test   %al,%al
 804cef6:	74 07                	je     804ceff <parse_mmin+0x59>
 804cef8:	b8 00 00 00 00       	mov    $0x0,%eax
 804cefd:	eb 72                	jmp    804cf71 <parse_mmin+0xcb>
 804ceff:	a1 14 f7 05 08       	mov    0x805f714,%eax
 804cf04:	89 c1                	mov    %eax,%ecx
 804cf06:	8b 45 e0             	mov    -0x20(%ebp),%eax
 804cf09:	8b 55 e4             	mov    -0x1c(%ebp),%edx
 804cf0c:	c1 e0 02             	shl    $0x2,%eax
 804cf0f:	89 c2                	mov    %eax,%edx
 804cf11:	c1 e2 04             	shl    $0x4,%edx
 804cf14:	89 d3                	mov    %edx,%ebx
 804cf16:	29 c3                	sub    %eax,%ebx
 804cf18:	89 d8                	mov    %ebx,%eax
 804cf1a:	89 ca                	mov    %ecx,%edx
 804cf1c:	29 c2                	sub    %eax,%edx
 804cf1e:	89 d0                	mov    %edx,%eax
 804cf20:	05 80 51 01 00       	add    $0x15180,%eax
 804cf25:	89 45 f0             	mov    %eax,-0x10(%ebp)
 804cf28:	c7 04 24 28 02 05 08 	movl   $0x8050228,(%esp)
 804cf2f:	e8 b8 49 00 00       	call   80518ec <insert_primary>
 804cf34:	89 45 f4             	mov    %eax,-0xc(%ebp)
 804cf37:	8b 55 ec             	mov    -0x14(%ebp),%edx
 804cf3a:	8b 45 f4             	mov    -0xc(%ebp),%eax
 804cf3d:	89 50 14             	mov    %edx,0x14(%eax)
 804cf40:	8b 45 f0             	mov    -0x10(%ebp),%eax
 804cf43:	c1 e8 1f             	shr    $0x1f,%eax
 804cf46:	89 c2                	mov    %eax,%edx
 804cf48:	8b 45 f4             	mov    -0xc(%ebp),%eax
 804cf4b:	88 50 18             	mov    %dl,0x18(%eax)
 804cf4e:	8b 45 f0             	mov    -0x10(%ebp),%eax
 804cf51:	89 c2                	mov    %eax,%edx
 804cf53:	c1 fa 1f             	sar    $0x1f,%edx
 804cf56:	8b 4d f4             	mov    -0xc(%ebp),%ecx
 804cf59:	89 41 1c             	mov    %eax,0x1c(%ecx)
 804cf5c:	89 51 20             	mov    %edx,0x20(%ecx)
 804cf5f:	8b 45 0c             	mov    0xc(%ebp),%eax
 804cf62:	8b 00                	mov    (%eax),%eax
 804cf64:	8d 50 01             	lea    0x1(%eax),%edx
 804cf67:	8b 45 0c             	mov    0xc(%ebp),%eax
 804cf6a:	89 10                	mov    %edx,(%eax)
 804cf6c:	b8 01 00 00 00       	mov    $0x1,%eax
 804cf71:	83 c4 34             	add    $0x34,%esp
 804cf74:	5b                   	pop    %ebx
 804cf75:	5d                   	pop    %ebp
 804cf76:	c3                   	ret    

0804cf77 <parse_mtime>:
parse_mtime():
 804cf77:	55                   	push   %ebp
 804cf78:	89 e5                	mov    %esp,%ebp
 804cf7a:	83 ec 18             	sub    $0x18,%esp
 804cf7d:	c7 44 24 08 4d 02 05 	movl   $0x805024d,0x8(%esp)
 804cf84:	08 
 804cf85:	8b 45 0c             	mov    0xc(%ebp),%eax
 804cf88:	89 44 24 04          	mov    %eax,0x4(%esp)
 804cf8c:	8b 45 08             	mov    0x8(%ebp),%eax
 804cf8f:	89 04 24             	mov    %eax,(%esp)
 804cf92:	e8 ce 18 00 00       	call   804e865 <insert_time>
 804cf97:	c9                   	leave  
 804cf98:	c3                   	ret    

0804cf99 <parse_name>:
parse_name():
 804cf99:	55                   	push   %ebp
 804cf9a:	89 e5                	mov    %esp,%ebp
 804cf9c:	83 ec 28             	sub    $0x28,%esp
 804cf9f:	83 7d 08 00          	cmpl   $0x0,0x8(%ebp)
 804cfa3:	74 11                	je     804cfb6 <parse_name+0x1d>
 804cfa5:	8b 45 0c             	mov    0xc(%ebp),%eax
 804cfa8:	8b 00                	mov    (%eax),%eax
 804cfaa:	c1 e0 02             	shl    $0x2,%eax
 804cfad:	03 45 08             	add    0x8(%ebp),%eax
 804cfb0:	8b 00                	mov    (%eax),%eax
 804cfb2:	85 c0                	test   %eax,%eax
 804cfb4:	75 07                	jne    804cfbd <parse_name+0x24>
 804cfb6:	b8 00 00 00 00       	mov    $0x0,%eax
 804cfbb:	eb 48                	jmp    804d005 <parse_name+0x6c>
 804cfbd:	c7 04 24 72 02 05 08 	movl   $0x8050272,(%esp)
 804cfc4:	e8 23 49 00 00       	call   80518ec <insert_primary>
 804cfc9:	89 45 f4             	mov    %eax,-0xc(%ebp)
 804cfcc:	8b 45 f4             	mov    -0xc(%ebp),%eax
 804cfcf:	c6 40 13 00          	movb   $0x0,0x13(%eax)
 804cfd3:	8b 45 f4             	mov    -0xc(%ebp),%eax
