
/home/fabrizio/Programs/indent-2.2.10.orig/src/indent:     file format elf32-i386


Disassembly of section .init:

08048a6c <_init>:
_init():
 8048a6c:	55                   	push   %ebp
 8048a6d:	89 e5                	mov    %esp,%ebp
 8048a6f:	53                   	push   %ebx
 8048a70:	83 ec 04             	sub    $0x4,%esp
 8048a73:	e8 00 00 00 00       	call   8048a78 <_init+0xc>
 8048a78:	5b                   	pop    %ebx
 8048a79:	81 c3 7c 05 01 00    	add    $0x1057c,%ebx
 8048a7f:	8b 93 fc ff ff ff    	mov    -0x4(%ebx),%edx
 8048a85:	85 d2                	test   %edx,%edx
 8048a87:	74 05                	je     8048a8e <_init+0x22>
 8048a89:	e8 6e 00 00 00       	call   8048afc <__gmon_start__@plt>
 8048a8e:	e8 9d 03 00 00       	call   8048e30 <frame_dummy>
 8048a93:	e8 d8 c4 00 00       	call   8054f70 <__do_global_ctors_aux>
 8048a98:	58                   	pop    %eax
 8048a99:	5b                   	pop    %ebx
 8048a9a:	c9                   	leave  
 8048a9b:	c3                   	ret    

Disassembly of section .plt:

08048a9c <abort@plt-0x10>:
 8048a9c:	ff 35 f8 8f 05 08    	pushl  0x8058ff8
 8048aa2:	ff 25 fc 8f 05 08    	jmp    *0x8058ffc
 8048aa8:	00 00                	add    %al,(%eax)
	...

08048aac <abort@plt>:
 8048aac:	ff 25 00 90 05 08    	jmp    *0x8059000
 8048ab2:	68 00 00 00 00       	push   $0x0
 8048ab7:	e9 e0 ff ff ff       	jmp    8048a9c <_init+0x30>

08048abc <__errno_location@plt>:
 8048abc:	ff 25 04 90 05 08    	jmp    *0x8059004
 8048ac2:	68 08 00 00 00       	push   $0x8
 8048ac7:	e9 d0 ff ff ff       	jmp    8048a9c <_init+0x30>

08048acc <sprintf@plt>:
 8048acc:	ff 25 08 90 05 08    	jmp    *0x8059008
 8048ad2:	68 10 00 00 00       	push   $0x10
 8048ad7:	e9 c0 ff ff ff       	jmp    8048a9c <_init+0x30>

08048adc <open@plt>:
 8048adc:	ff 25 0c 90 05 08    	jmp    *0x805900c
 8048ae2:	68 18 00 00 00       	push   $0x18
 8048ae7:	e9 b0 ff ff ff       	jmp    8048a9c <_init+0x30>

08048aec <memcmp@plt>:
 8048aec:	ff 25 10 90 05 08    	jmp    *0x8059010
 8048af2:	68 20 00 00 00       	push   $0x20
 8048af7:	e9 a0 ff ff ff       	jmp    8048a9c <_init+0x30>

08048afc <__gmon_start__@plt>:
 8048afc:	ff 25 14 90 05 08    	jmp    *0x8059014
 8048b02:	68 28 00 00 00       	push   $0x28
 8048b07:	e9 90 ff ff ff       	jmp    8048a9c <_init+0x30>

08048b0c <realloc@plt>:
 8048b0c:	ff 25 18 90 05 08    	jmp    *0x8059018
 8048b12:	68 30 00 00 00       	push   $0x30
 8048b17:	e9 80 ff ff ff       	jmp    8048a9c <_init+0x30>

08048b1c <getenv@plt>:
 8048b1c:	ff 25 1c 90 05 08    	jmp    *0x805901c
 8048b22:	68 38 00 00 00       	push   $0x38
 8048b27:	e9 70 ff ff ff       	jmp    8048a9c <_init+0x30>

08048b2c <calloc@plt>:
 8048b2c:	ff 25 20 90 05 08    	jmp    *0x8059020
 8048b32:	68 40 00 00 00       	push   $0x40
 8048b37:	e9 60 ff ff ff       	jmp    8048a9c <_init+0x30>

08048b3c <strncpy@plt>:
 8048b3c:	ff 25 24 90 05 08    	jmp    *0x8059024
 8048b42:	68 48 00 00 00       	push   $0x48
 8048b47:	e9 50 ff ff ff       	jmp    8048a9c <_init+0x30>

08048b4c <__libc_start_main@plt>:
 8048b4c:	ff 25 28 90 05 08    	jmp    *0x8059028
 8048b52:	68 50 00 00 00       	push   $0x50
 8048b57:	e9 40 ff ff ff       	jmp    8048a9c <_init+0x30>

08048b5c <_IO_getc@plt>:
 8048b5c:	ff 25 2c 90 05 08    	jmp    *0x805902c
 8048b62:	68 58 00 00 00       	push   $0x58
 8048b67:	e9 30 ff ff ff       	jmp    8048a9c <_init+0x30>

08048b6c <bindtextdomain@plt>:
 8048b6c:	ff 25 30 90 05 08    	jmp    *0x8059030
 8048b72:	68 60 00 00 00       	push   $0x60
 8048b77:	e9 20 ff ff ff       	jmp    8048a9c <_init+0x30>

08048b7c <read@plt>:
 8048b7c:	ff 25 34 90 05 08    	jmp    *0x8059034
 8048b82:	68 68 00 00 00       	push   $0x68
 8048b87:	e9 10 ff ff ff       	jmp    8048a9c <_init+0x30>

08048b8c <perror@plt>:
 8048b8c:	ff 25 38 90 05 08    	jmp    *0x8059038
 8048b92:	68 70 00 00 00       	push   $0x70
 8048b97:	e9 00 ff ff ff       	jmp    8048a9c <_init+0x30>

08048b9c <gettext@plt>:
 8048b9c:	ff 25 3c 90 05 08    	jmp    *0x805903c
 8048ba2:	68 78 00 00 00       	push   $0x78
 8048ba7:	e9 f0 fe ff ff       	jmp    8048a9c <_init+0x30>

08048bac <readdir@plt>:
 8048bac:	ff 25 40 90 05 08    	jmp    *0x8059040
 8048bb2:	68 80 00 00 00       	push   $0x80
 8048bb7:	e9 e0 fe ff ff       	jmp    8048a9c <_init+0x30>

08048bbc <free@plt>:
 8048bbc:	ff 25 44 90 05 08    	jmp    *0x8059044
 8048bc2:	68 88 00 00 00       	push   $0x88
 8048bc7:	e9 d0 fe ff ff       	jmp    8048a9c <_init+0x30>

08048bcc <fflush@plt>:
 8048bcc:	ff 25 48 90 05 08    	jmp    *0x8059048
 8048bd2:	68 90 00 00 00       	push   $0x90
 8048bd7:	e9 c0 fe ff ff       	jmp    8048a9c <_init+0x30>

08048bdc <opendir@plt>:
 8048bdc:	ff 25 4c 90 05 08    	jmp    *0x805904c
 8048be2:	68 98 00 00 00       	push   $0x98
 8048be7:	e9 b0 fe ff ff       	jmp    8048a9c <_init+0x30>

08048bec <__ctype_b_loc@plt>:
 8048bec:	ff 25 50 90 05 08    	jmp    *0x8059050
 8048bf2:	68 a0 00 00 00       	push   $0xa0
 8048bf7:	e9 a0 fe ff ff       	jmp    8048a9c <_init+0x30>

08048bfc <fclose@plt>:
 8048bfc:	ff 25 54 90 05 08    	jmp    *0x8059054
 8048c02:	68 a8 00 00 00       	push   $0xa8
 8048c07:	e9 90 fe ff ff       	jmp    8048a9c <_init+0x30>

08048c0c <memcpy@plt>:
 8048c0c:	ff 25 58 90 05 08    	jmp    *0x8059058
 8048c12:	68 b0 00 00 00       	push   $0xb0
 8048c17:	e9 80 fe ff ff       	jmp    8048a9c <_init+0x30>

08048c1c <utime@plt>:
 8048c1c:	ff 25 5c 90 05 08    	jmp    *0x805905c
 8048c22:	68 b8 00 00 00       	push   $0xb8
 8048c27:	e9 70 fe ff ff       	jmp    8048a9c <_init+0x30>

08048c2c <strlen@plt>:
 8048c2c:	ff 25 60 90 05 08    	jmp    *0x8059060
 8048c32:	68 c0 00 00 00       	push   $0xc0
 8048c37:	e9 60 fe ff ff       	jmp    8048a9c <_init+0x30>

08048c3c <fopen@plt>:
 8048c3c:	ff 25 64 90 05 08    	jmp    *0x8059064
 8048c42:	68 c8 00 00 00       	push   $0xc8
 8048c47:	e9 50 fe ff ff       	jmp    8048a9c <_init+0x30>

08048c4c <freopen@plt>:
 8048c4c:	ff 25 68 90 05 08    	jmp    *0x8059068
 8048c52:	68 d0 00 00 00       	push   $0xd0
 8048c57:	e9 40 fe ff ff       	jmp    8048a9c <_init+0x30>

08048c5c <strcpy@plt>:
 8048c5c:	ff 25 6c 90 05 08    	jmp    *0x805906c
 8048c62:	68 d8 00 00 00       	push   $0xd8
 8048c67:	e9 30 fe ff ff       	jmp    8048a9c <_init+0x30>

08048c6c <printf@plt>:
 8048c6c:	ff 25 70 90 05 08    	jmp    *0x8059070
 8048c72:	68 e0 00 00 00       	push   $0xe0
 8048c77:	e9 20 fe ff ff       	jmp    8048a9c <_init+0x30>

08048c7c <atoi@plt>:
 8048c7c:	ff 25 74 90 05 08    	jmp    *0x8059074
 8048c82:	68 e8 00 00 00       	push   $0xe8
 8048c87:	e9 10 fe ff ff       	jmp    8048a9c <_init+0x30>

08048c8c <closedir@plt>:
 8048c8c:	ff 25 78 90 05 08    	jmp    *0x8059078
 8048c92:	68 f0 00 00 00       	push   $0xf0
 8048c97:	e9 00 fe ff ff       	jmp    8048a9c <_init+0x30>

08048c9c <close@plt>:
 8048c9c:	ff 25 7c 90 05 08    	jmp    *0x805907c
 8048ca2:	68 f8 00 00 00       	push   $0xf8
 8048ca7:	e9 f0 fd ff ff       	jmp    8048a9c <_init+0x30>

08048cac <fwrite@plt>:
 8048cac:	ff 25 80 90 05 08    	jmp    *0x8059080
 8048cb2:	68 00 01 00 00       	push   $0x100
 8048cb7:	e9 e0 fd ff ff       	jmp    8048a9c <_init+0x30>

08048cbc <fprintf@plt>:
 8048cbc:	ff 25 84 90 05 08    	jmp    *0x8059084
 8048cc2:	68 08 01 00 00       	push   $0x108
 8048cc7:	e9 d0 fd ff ff       	jmp    8048a9c <_init+0x30>

08048ccc <time@plt>:
 8048ccc:	ff 25 88 90 05 08    	jmp    *0x8059088
 8048cd2:	68 10 01 00 00       	push   $0x110
 8048cd7:	e9 c0 fd ff ff       	jmp    8048a9c <_init+0x30>

08048cdc <__stack_chk_fail@plt>:
 8048cdc:	ff 25 8c 90 05 08    	jmp    *0x805908c
 8048ce2:	68 18 01 00 00       	push   $0x118
 8048ce7:	e9 b0 fd ff ff       	jmp    8048a9c <_init+0x30>

08048cec <fputc@plt>:
 8048cec:	ff 25 90 90 05 08    	jmp    *0x8059090
 8048cf2:	68 20 01 00 00       	push   $0x120
 8048cf7:	e9 a0 fd ff ff       	jmp    8048a9c <_init+0x30>

08048cfc <memmove@plt>:
 8048cfc:	ff 25 94 90 05 08    	jmp    *0x8059094
 8048d02:	68 28 01 00 00       	push   $0x128
 8048d07:	e9 90 fd ff ff       	jmp    8048a9c <_init+0x30>

08048d0c <strcat@plt>:
 8048d0c:	ff 25 98 90 05 08    	jmp    *0x8059098
 8048d12:	68 30 01 00 00       	push   $0x130
 8048d17:	e9 80 fd ff ff       	jmp    8048a9c <_init+0x30>

08048d1c <textdomain@plt>:
 8048d1c:	ff 25 9c 90 05 08    	jmp    *0x805909c
 8048d22:	68 38 01 00 00       	push   $0x138
 8048d27:	e9 70 fd ff ff       	jmp    8048a9c <_init+0x30>

08048d2c <__fxstat@plt>:
 8048d2c:	ff 25 a0 90 05 08    	jmp    *0x80590a0
 8048d32:	68 40 01 00 00       	push   $0x140
 8048d37:	e9 60 fd ff ff       	jmp    8048a9c <_init+0x30>

08048d3c <strncmp@plt>:
 8048d3c:	ff 25 a4 90 05 08    	jmp    *0x80590a4
 8048d42:	68 48 01 00 00       	push   $0x148
 8048d47:	e9 50 fd ff ff       	jmp    8048a9c <_init+0x30>

08048d4c <vfprintf@plt>:
 8048d4c:	ff 25 a8 90 05 08    	jmp    *0x80590a8
 8048d52:	68 50 01 00 00       	push   $0x150
 8048d57:	e9 40 fd ff ff       	jmp    8048a9c <_init+0x30>

08048d5c <_IO_putc@plt>:
 8048d5c:	ff 25 ac 90 05 08    	jmp    *0x80590ac
 8048d62:	68 58 01 00 00       	push   $0x158
 8048d67:	e9 30 fd ff ff       	jmp    8048a9c <_init+0x30>

08048d6c <strdup@plt>:
 8048d6c:	ff 25 b0 90 05 08    	jmp    *0x80590b0
 8048d72:	68 60 01 00 00       	push   $0x160
 8048d77:	e9 20 fd ff ff       	jmp    8048a9c <_init+0x30>

08048d7c <strcmp@plt>:
 8048d7c:	ff 25 b4 90 05 08    	jmp    *0x80590b4
 8048d82:	68 68 01 00 00       	push   $0x168
 8048d87:	e9 10 fd ff ff       	jmp    8048a9c <_init+0x30>

08048d8c <exit@plt>:
 8048d8c:	ff 25 b8 90 05 08    	jmp    *0x80590b8
 8048d92:	68 70 01 00 00       	push   $0x170
 8048d97:	e9 00 fd ff ff       	jmp    8048a9c <_init+0x30>

Disassembly of section .text:

08048da0 <_start>:
_start():
/build/buildd/eglibc-2.10.1/csu/../sysdeps/i386/elf/start.S:65
 8048da0:	31 ed                	xor    %ebp,%ebp
/build/buildd/eglibc-2.10.1/csu/../sysdeps/i386/elf/start.S:70
 8048da2:	5e                   	pop    %esi
/build/buildd/eglibc-2.10.1/csu/../sysdeps/i386/elf/start.S:71
 8048da3:	89 e1                	mov    %esp,%ecx
/build/buildd/eglibc-2.10.1/csu/../sysdeps/i386/elf/start.S:77
 8048da5:	83 e4 f0             	and    $0xfffffff0,%esp
/build/buildd/eglibc-2.10.1/csu/../sysdeps/i386/elf/start.S:78
 8048da8:	50                   	push   %eax
/build/buildd/eglibc-2.10.1/csu/../sysdeps/i386/elf/start.S:83
 8048da9:	54                   	push   %esp
/build/buildd/eglibc-2.10.1/csu/../sysdeps/i386/elf/start.S:85
 8048daa:	52                   	push   %edx
/build/buildd/eglibc-2.10.1/csu/../sysdeps/i386/elf/start.S:109
 8048dab:	68 c0 4e 05 08       	push   $0x8054ec0
/build/buildd/eglibc-2.10.1/csu/../sysdeps/i386/elf/start.S:110
 8048db0:	68 d0 4e 05 08       	push   $0x8054ed0
/build/buildd/eglibc-2.10.1/csu/../sysdeps/i386/elf/start.S:112
 8048db5:	51                   	push   %ecx
/build/buildd/eglibc-2.10.1/csu/../sysdeps/i386/elf/start.S:113
 8048db6:	56                   	push   %esi
/build/buildd/eglibc-2.10.1/csu/../sysdeps/i386/elf/start.S:115
 8048db7:	68 50 d8 04 08       	push   $0x804d850
/build/buildd/eglibc-2.10.1/csu/../sysdeps/i386/elf/start.S:119
 8048dbc:	e8 8b fd ff ff       	call   8048b4c <__libc_start_main@plt>
/build/buildd/eglibc-2.10.1/csu/../sysdeps/i386/elf/start.S:122
 8048dc1:	f4                   	hlt    
 8048dc2:	90                   	nop
 8048dc3:	90                   	nop
 8048dc4:	90                   	nop
 8048dc5:	90                   	nop
 8048dc6:	90                   	nop
 8048dc7:	90                   	nop
 8048dc8:	90                   	nop
 8048dc9:	90                   	nop
 8048dca:	90                   	nop
 8048dcb:	90                   	nop
 8048dcc:	90                   	nop
 8048dcd:	90                   	nop
 8048dce:	90                   	nop
 8048dcf:	90                   	nop

08048dd0 <__do_global_dtors_aux>:
__do_global_dtors_aux():
 8048dd0:	55                   	push   %ebp
 8048dd1:	89 e5                	mov    %esp,%ebp
 8048dd3:	53                   	push   %ebx
 8048dd4:	83 ec 04             	sub    $0x4,%esp
 8048dd7:	80 3d a4 98 05 08 00 	cmpb   $0x0,0x80598a4
 8048dde:	75 3f                	jne    8048e1f <__do_global_dtors_aux+0x4f>
 8048de0:	a1 a8 98 05 08       	mov    0x80598a8,%eax
 8048de5:	bb 18 8f 05 08       	mov    $0x8058f18,%ebx
 8048dea:	81 eb 14 8f 05 08    	sub    $0x8058f14,%ebx
 8048df0:	c1 fb 02             	sar    $0x2,%ebx
 8048df3:	83 eb 01             	sub    $0x1,%ebx
 8048df6:	39 d8                	cmp    %ebx,%eax
 8048df8:	73 1e                	jae    8048e18 <__do_global_dtors_aux+0x48>
 8048dfa:	8d b6 00 00 00 00    	lea    0x0(%esi),%esi
 8048e00:	83 c0 01             	add    $0x1,%eax
 8048e03:	a3 a8 98 05 08       	mov    %eax,0x80598a8
 8048e08:	ff 14 85 14 8f 05 08 	call   *0x8058f14(,%eax,4)
 8048e0f:	a1 a8 98 05 08       	mov    0x80598a8,%eax
 8048e14:	39 d8                	cmp    %ebx,%eax
 8048e16:	72 e8                	jb     8048e00 <__do_global_dtors_aux+0x30>
 8048e18:	c6 05 a4 98 05 08 01 	movb   $0x1,0x80598a4
 8048e1f:	83 c4 04             	add    $0x4,%esp
 8048e22:	5b                   	pop    %ebx
 8048e23:	5d                   	pop    %ebp
 8048e24:	c3                   	ret    
 8048e25:	8d 74 26 00          	lea    0x0(%esi,%eiz,1),%esi
 8048e29:	8d bc 27 00 00 00 00 	lea    0x0(%edi,%eiz,1),%edi

08048e30 <frame_dummy>:
frame_dummy():
 8048e30:	55                   	push   %ebp
 8048e31:	89 e5                	mov    %esp,%ebp
 8048e33:	83 ec 18             	sub    $0x18,%esp
 8048e36:	a1 1c 8f 05 08       	mov    0x8058f1c,%eax
 8048e3b:	85 c0                	test   %eax,%eax
 8048e3d:	74 12                	je     8048e51 <frame_dummy+0x21>
 8048e3f:	b8 00 00 00 00       	mov    $0x0,%eax
 8048e44:	85 c0                	test   %eax,%eax
 8048e46:	74 09                	je     8048e51 <frame_dummy+0x21>
 8048e48:	c7 04 24 1c 8f 05 08 	movl   $0x8058f1c,(%esp)
 8048e4f:	ff d0                	call   *%eax
 8048e51:	c9                   	leave  
 8048e52:	c3                   	ret    
 8048e53:	90                   	nop

08048e54 <check_code_size>:
check_code_size():
test/unit/artifacts/cpp/modifiedFunctionsDetector/indent-2.2.10/indent.c:143
 8048e54:	55                   	push   %ebp
 8048e55:	89 e5                	mov    %esp,%ebp
 8048e57:	53                   	push   %ebx
 8048e58:	83 ec 24             	sub    $0x24,%esp
test/unit/artifacts/cpp/modifiedFunctionsDetector/indent-2.2.10/indent.c:144
 8048e5b:	8b 15 c4 98 05 08    	mov    0x80598c4,%edx
 8048e61:	a1 c8 98 05 08       	mov    0x80598c8,%eax
 8048e66:	39 c2                	cmp    %eax,%edx
 8048e68:	72 75                	jb     8048edf <check_code_size+0x8b>
test/unit/artifacts/cpp/modifiedFunctionsDetector/indent-2.2.10/indent.c:146
 8048e6a:	a1 c8 98 05 08       	mov    0x80598c8,%eax
 8048e6f:	89 c2                	mov    %eax,%edx
 8048e71:	a1 c0 98 05 08       	mov    0x80598c0,%eax
 8048e76:	89 d1                	mov    %edx,%ecx
 8048e78:	29 c1                	sub    %eax,%ecx
 8048e7a:	89 c8                	mov    %ecx,%eax
 8048e7c:	05 90 01 00 00       	add    $0x190,%eax
 8048e81:	89 45 f4             	mov    %eax,-0xc(%ebp)
test/unit/artifacts/cpp/modifiedFunctionsDetector/indent-2.2.10/indent.c:147
 8048e84:	8b 55 f4             	mov    -0xc(%ebp),%edx
 8048e87:	a1 bc 98 05 08       	mov    0x80598bc,%eax
 8048e8c:	89 54 24 04          	mov    %edx,0x4(%esp)
 8048e90:	89 04 24             	mov    %eax,(%esp)
 8048e93:	e8 76 95 00 00       	call   805240e <xrealloc>
 8048e98:	a3 bc 98 05 08       	mov    %eax,0x80598bc
test/unit/artifacts/cpp/modifiedFunctionsDetector/indent-2.2.10/indent.c:148
 8048e9d:	a1 bc 98 05 08       	mov    0x80598bc,%eax
 8048ea2:	8b 15 c4 98 05 08    	mov    0x80598c4,%edx
 8048ea8:	89 d1                	mov    %edx,%ecx
 8048eaa:	8b 15 c0 98 05 08    	mov    0x80598c0,%edx
 8048eb0:	89 cb                	mov    %ecx,%ebx
 8048eb2:	29 d3                	sub    %edx,%ebx
 8048eb4:	89 da                	mov    %ebx,%edx
 8048eb6:	83 c2 01             	add    $0x1,%edx
 8048eb9:	01 d0                	add    %edx,%eax
 8048ebb:	a3 c4 98 05 08       	mov    %eax,0x80598c4
test/unit/artifacts/cpp/modifiedFunctionsDetector/indent-2.2.10/indent.c:149
 8048ec0:	a1 bc 98 05 08       	mov    0x80598bc,%eax
 8048ec5:	8b 55 f4             	mov    -0xc(%ebp),%edx
 8048ec8:	83 ea 05             	sub    $0x5,%edx
 8048ecb:	01 d0                	add    %edx,%eax
 8048ecd:	a3 c8 98 05 08       	mov    %eax,0x80598c8
test/unit/artifacts/cpp/modifiedFunctionsDetector/indent-2.2.10/indent.c:150
 8048ed2:	a1 bc 98 05 08       	mov    0x80598bc,%eax
 8048ed7:	83 c0 01             	add    $0x1,%eax
 8048eda:	a3 c0 98 05 08       	mov    %eax,0x80598c0
test/unit/artifacts/cpp/modifiedFunctionsDetector/indent-2.2.10/indent.c:152
 8048edf:	83 c4 24             	add    $0x24,%esp
 8048ee2:	5b                   	pop    %ebx
 8048ee3:	5d                   	pop    %ebp
 8048ee4:	c3                   	ret    

08048ee5 <check_lab_size>:
check_lab_size():
test/unit/artifacts/cpp/modifiedFunctionsDetector/indent-2.2.10/indent.c:159
 8048ee5:	55                   	push   %ebp
 8048ee6:	89 e5                	mov    %esp,%ebp
 8048ee8:	53                   	push   %ebx
 8048ee9:	83 ec 24             	sub    $0x24,%esp
test/unit/artifacts/cpp/modifiedFunctionsDetector/indent-2.2.10/indent.c:160
 8048eec:	8b 15 b4 98 05 08    	mov    0x80598b4,%edx
 8048ef2:	a1 b8 98 05 08       	mov    0x80598b8,%eax
 8048ef7:	39 c2                	cmp    %eax,%edx
 8048ef9:	72 75                	jb     8048f70 <check_lab_size+0x8b>
test/unit/artifacts/cpp/modifiedFunctionsDetector/indent-2.2.10/indent.c:162
 8048efb:	a1 b8 98 05 08       	mov    0x80598b8,%eax
 8048f00:	89 c2                	mov    %eax,%edx
 8048f02:	a1 b0 98 05 08       	mov    0x80598b0,%eax
 8048f07:	89 d1                	mov    %edx,%ecx
 8048f09:	29 c1                	sub    %eax,%ecx
 8048f0b:	89 c8                	mov    %ecx,%eax
 8048f0d:	05 90 01 00 00       	add    $0x190,%eax
 8048f12:	89 45 f4             	mov    %eax,-0xc(%ebp)
test/unit/artifacts/cpp/modifiedFunctionsDetector/indent-2.2.10/indent.c:163
 8048f15:	8b 55 f4             	mov    -0xc(%ebp),%edx
 8048f18:	a1 ac 98 05 08       	mov    0x80598ac,%eax
 8048f1d:	89 54 24 04          	mov    %edx,0x4(%esp)
 8048f21:	89 04 24             	mov    %eax,(%esp)
 8048f24:	e8 e5 94 00 00       	call   805240e <xrealloc>
 8048f29:	a3 ac 98 05 08       	mov    %eax,0x80598ac
test/unit/artifacts/cpp/modifiedFunctionsDetector/indent-2.2.10/indent.c:164
 8048f2e:	a1 ac 98 05 08       	mov    0x80598ac,%eax
 8048f33:	8b 15 b4 98 05 08    	mov    0x80598b4,%edx
 8048f39:	89 d1                	mov    %edx,%ecx
 8048f3b:	8b 15 b0 98 05 08    	mov    0x80598b0,%edx
 8048f41:	89 cb                	mov    %ecx,%ebx
 8048f43:	29 d3                	sub    %edx,%ebx
 8048f45:	89 da                	mov    %ebx,%edx
 8048f47:	83 c2 01             	add    $0x1,%edx
 8048f4a:	01 d0                	add    %edx,%eax
 8048f4c:	a3 b4 98 05 08       	mov    %eax,0x80598b4
test/unit/artifacts/cpp/modifiedFunctionsDetector/indent-2.2.10/indent.c:165
 8048f51:	a1 ac 98 05 08       	mov    0x80598ac,%eax
 8048f56:	8b 55 f4             	mov    -0xc(%ebp),%edx
 8048f59:	83 ea 05             	sub    $0x5,%edx
 8048f5c:	01 d0                	add    %edx,%eax
 8048f5e:	a3 b8 98 05 08       	mov    %eax,0x80598b8
test/unit/artifacts/cpp/modifiedFunctionsDetector/indent-2.2.10/indent.c:166
 8048f63:	a1 ac 98 05 08       	mov    0x80598ac,%eax
 8048f68:	83 c0 01             	add    $0x1,%eax
 8048f6b:	a3 b0 98 05 08       	mov    %eax,0x80598b0
test/unit/artifacts/cpp/modifiedFunctionsDetector/indent-2.2.10/indent.c:168
 8048f70:	83 c4 24             	add    $0x24,%esp
 8048f73:	5b                   	pop    %ebx
 8048f74:	5d                   	pop    %ebp
 8048f75:	c3                   	ret    

08048f76 <need_chars>:
need_chars():
test/unit/artifacts/cpp/modifiedFunctionsDetector/indent-2.2.10/indent.c:178
 8048f76:	55                   	push   %ebp
 8048f77:	89 e5                	mov    %esp,%ebp
 8048f79:	83 ec 28             	sub    $0x28,%esp
test/unit/artifacts/cpp/modifiedFunctionsDetector/indent-2.2.10/indent.c:179
 8048f7c:	8b 45 08             	mov    0x8(%ebp),%eax
 8048f7f:	8b 40 04             	mov    0x4(%eax),%eax
 8048f82:	89 c2                	mov    %eax,%edx
 8048f84:	8b 45 08             	mov    0x8(%ebp),%eax
 8048f87:	8b 00                	mov    (%eax),%eax
 8048f89:	89 d1                	mov    %edx,%ecx
 8048f8b:	29 c1                	sub    %eax,%ecx
 8048f8d:	89 c8                	mov    %ecx,%eax
 8048f8f:	89 45 f4             	mov    %eax,-0xc(%ebp)
test/unit/artifacts/cpp/modifiedFunctionsDetector/indent-2.2.10/indent.c:181
 8048f92:	8b 45 0c             	mov    0xc(%ebp),%eax
 8048f95:	8b 55 f4             	mov    -0xc(%ebp),%edx
 8048f98:	01 c2                	add    %eax,%edx
 8048f9a:	8b 45 08             	mov    0x8(%ebp),%eax
 8048f9d:	8b 40 08             	mov    0x8(%eax),%eax
 8048fa0:	39 c2                	cmp    %eax,%edx
 8048fa2:	7c 6f                	jl     8049013 <need_chars+0x9d>
test/unit/artifacts/cpp/modifiedFunctionsDetector/indent-2.2.10/indent.c:183
 8048fa4:	8b 45 0c             	mov    0xc(%ebp),%eax
 8048fa7:	8b 55 f4             	mov    -0xc(%ebp),%edx
 8048faa:	8d 04 02             	lea    (%edx,%eax,1),%eax
 8048fad:	05 ff 03 00 00       	add    $0x3ff,%eax
 8048fb2:	89 c2                	mov    %eax,%edx
 8048fb4:	81 e2 00 fc ff ff    	and    $0xfffffc00,%edx
 8048fba:	8b 45 08             	mov    0x8(%ebp),%eax
 8048fbd:	89 50 08             	mov    %edx,0x8(%eax)
test/unit/artifacts/cpp/modifiedFunctionsDetector/indent-2.2.10/indent.c:184
 8048fc0:	8b 45 08             	mov    0x8(%ebp),%eax
 8048fc3:	8b 40 08             	mov    0x8(%eax),%eax
 8048fc6:	89 c2                	mov    %eax,%edx
 8048fc8:	8b 45 08             	mov    0x8(%ebp),%eax
 8048fcb:	8b 00                	mov    (%eax),%eax
 8048fcd:	89 54 24 04          	mov    %edx,0x4(%esp)
 8048fd1:	89 04 24             	mov    %eax,(%esp)
 8048fd4:	e8 35 94 00 00       	call   805240e <xrealloc>
 8048fd9:	8b 55 08             	mov    0x8(%ebp),%edx
 8048fdc:	89 02                	mov    %eax,(%edx)
test/unit/artifacts/cpp/modifiedFunctionsDetector/indent-2.2.10/indent.c:185
 8048fde:	8b 45 08             	mov    0x8(%ebp),%eax
 8048fe1:	8b 00                	mov    (%eax),%eax
 8048fe3:	85 c0                	test   %eax,%eax
 8048fe5:	75 1c                	jne    8049003 <need_chars+0x8d>
test/unit/artifacts/cpp/modifiedFunctionsDetector/indent-2.2.10/indent.c:187
 8048fe7:	c7 04 24 fa 4f 05 08 	movl   $0x8054ffa,(%esp)
 8048fee:	e8 a9 fb ff ff       	call   8048b9c <gettext@plt>
 8048ff3:	c7 44 24 04 00 00 00 	movl   $0x0,0x4(%esp)
 8048ffa:	00 
 8048ffb:	89 04 24             	mov    %eax,(%esp)
 8048ffe:	e8 e2 94 00 00       	call   80524e5 <fatal>
test/unit/artifacts/cpp/modifiedFunctionsDetector/indent-2.2.10/indent.c:190
 8049003:	8b 45 08             	mov    0x8(%ebp),%eax
 8049006:	8b 10                	mov    (%eax),%edx
 8049008:	8b 45 f4             	mov    -0xc(%ebp),%eax
 804900b:	01 c2                	add    %eax,%edx
 804900d:	8b 45 08             	mov    0x8(%ebp),%eax
 8049010:	89 50 04             	mov    %edx,0x4(%eax)
test/unit/artifacts/cpp/modifiedFunctionsDetector/indent-2.2.10/indent.c:192
 8049013:	c9                   	leave  
 8049014:	c3                   	ret    

08049015 <copy_id>:
copy_id():
test/unit/artifacts/cpp/modifiedFunctionsDetector/indent-2.2.10/indent.c:203
 8049015:	55                   	push   %ebp
 8049016:	89 e5                	mov    %esp,%ebp
 8049018:	83 ec 28             	sub    $0x28,%esp
test/unit/artifacts/cpp/modifiedFunctionsDetector/indent-2.2.10/indent.c:206
 804901b:	a1 48 9b 05 08       	mov    0x8059b48,%eax
 8049020:	8b 80 9c 00 00 00    	mov    0x9c(%eax),%eax
 8049026:	85 c0                	test   %eax,%eax
 8049028:	74 27                	je     8049051 <copy_id+0x3c>
test/unit/artifacts/cpp/modifiedFunctionsDetector/indent-2.2.10/indent.c:208
 804902a:	a1 24 99 05 08       	mov    0x8059924,%eax
 804902f:	89 44 24 04          	mov    %eax,0x4(%esp)
 8049033:	c7 04 24 14 00 00 00 	movl   $0x14,(%esp)
 804903a:	e8 84 9e 00 00       	call   8052ec3 <set_buf_break>
test/unit/artifacts/cpp/modifiedFunctionsDetector/indent-2.2.10/indent.c:209
 804903f:	a1 c4 98 05 08       	mov    0x80598c4,%eax
 8049044:	c6 00 20             	movb   $0x20,(%eax)
 8049047:	83 c0 01             	add    $0x1,%eax
 804904a:	a3 c4 98 05 08       	mov    %eax,0x80598c4
 804904f:	eb 1a                	jmp    804906b <copy_id+0x56>
test/unit/artifacts/cpp/modifiedFunctionsDetector/indent-2.2.10/indent.c:211
 8049051:	83 7d 14 00          	cmpl   $0x0,0x14(%ebp)
 8049055:	74 14                	je     804906b <copy_id+0x56>
test/unit/artifacts/cpp/modifiedFunctionsDetector/indent-2.2.10/indent.c:213
 8049057:	a1 24 99 05 08       	mov    0x8059924,%eax
 804905c:	89 44 24 04          	mov    %eax,0x4(%esp)
 8049060:	8b 45 14             	mov    0x14(%ebp),%eax
 8049063:	89 04 24             	mov    %eax,(%esp)
 8049066:	e8 58 9e 00 00       	call   8052ec3 <set_buf_break>
test/unit/artifacts/cpp/modifiedFunctionsDetector/indent-2.2.10/indent.c:219
 804906b:	8b 15 c0 98 05 08    	mov    0x80598c0,%edx
 8049071:	a1 c4 98 05 08       	mov    0x80598c4,%eax
 8049076:	39 c2                	cmp    %eax,%edx
 8049078:	75 0a                	jne    8049084 <copy_id+0x6f>
test/unit/artifacts/cpp/modifiedFunctionsDetector/indent-2.2.10/indent.c:221
 804907a:	a1 c0 9b 05 08       	mov    0x8059bc0,%eax
 804907f:	a3 dc 98 05 08       	mov    %eax,0x80598dc
test/unit/artifacts/cpp/modifiedFunctionsDetector/indent-2.2.10/indent.c:224
 8049084:	a1 c0 9b 05 08       	mov    0x8059bc0,%eax
 8049089:	89 45 f4             	mov    %eax,-0xc(%ebp)
 804908c:	eb 1e                	jmp    80490ac <copy_id+0x97>
test/unit/artifacts/cpp/modifiedFunctionsDetector/indent-2.2.10/indent.c:226
 804908e:	e8 c1 fd ff ff       	call   8048e54 <check_code_size>
test/unit/artifacts/cpp/modifiedFunctionsDetector/indent-2.2.10/indent.c:227
 8049093:	a1 c4 98 05 08       	mov    0x80598c4,%eax
 8049098:	8b 55 f4             	mov    -0xc(%ebp),%edx
 804909b:	0f b6 12             	movzbl (%edx),%edx
 804909e:	88 10                	mov    %dl,(%eax)
 80490a0:	83 c0 01             	add    $0x1,%eax
 80490a3:	a3 c4 98 05 08       	mov    %eax,0x80598c4
test/unit/artifacts/cpp/modifiedFunctionsDetector/indent-2.2.10/indent.c:224
 80490a8:	83 45 f4 01          	addl   $0x1,-0xc(%ebp)
 80490ac:	a1 c4 9b 05 08       	mov    0x8059bc4,%eax
 80490b1:	39 45 f4             	cmp    %eax,-0xc(%ebp)
 80490b4:	72 d8                	jb     804908e <copy_id+0x79>
test/unit/artifacts/cpp/modifiedFunctionsDetector/indent-2.2.10/indent.c:230
 80490b6:	a1 c4 98 05 08       	mov    0x80598c4,%eax
 80490bb:	c6 00 00             	movb   $0x0,(%eax)
test/unit/artifacts/cpp/modifiedFunctionsDetector/indent-2.2.10/indent.c:232
 80490be:	a1 48 9b 05 08       	mov    0x8059b48,%eax
 80490c3:	c7 80 9c 00 00 00 01 	movl   $0x1,0x9c(%eax)
 80490ca:	00 00 00 
test/unit/artifacts/cpp/modifiedFunctionsDetector/indent-2.2.10/indent.c:236
 80490cd:	83 7d 08 19          	cmpl   $0x19,0x8(%ebp)
 80490d1:	75 4e                	jne    8049121 <copy_id+0x10c>
test/unit/artifacts/cpp/modifiedFunctionsDetector/indent-2.2.10/indent.c:237
 80490d3:	a1 64 99 05 08       	mov    0x8059964,%eax
test/unit/artifacts/cpp/modifiedFunctionsDetector/indent-2.2.10/indent.c:236
 80490d8:	85 c0                	test   %eax,%eax
 80490da:	75 0c                	jne    80490e8 <copy_id+0xd3>
test/unit/artifacts/cpp/modifiedFunctionsDetector/indent-2.2.10/indent.c:237
 80490dc:	a1 c0 9b 05 08       	mov    0x8059bc0,%eax
 80490e1:	0f b6 00             	movzbl (%eax),%eax
test/unit/artifacts/cpp/modifiedFunctionsDetector/indent-2.2.10/indent.c:236
 80490e4:	3c 69                	cmp    $0x69,%al
 80490e6:	74 2a                	je     8049112 <copy_id+0xfd>
test/unit/artifacts/cpp/modifiedFunctionsDetector/indent-2.2.10/indent.c:238
 80490e8:	a1 68 99 05 08       	mov    0x8059968,%eax
test/unit/artifacts/cpp/modifiedFunctionsDetector/indent-2.2.10/indent.c:236
 80490ed:	85 c0                	test   %eax,%eax
 80490ef:	75 0c                	jne    80490fd <copy_id+0xe8>
test/unit/artifacts/cpp/modifiedFunctionsDetector/indent-2.2.10/indent.c:238
 80490f1:	a1 c0 9b 05 08       	mov    0x8059bc0,%eax
 80490f6:	0f b6 00             	movzbl (%eax),%eax
test/unit/artifacts/cpp/modifiedFunctionsDetector/indent-2.2.10/indent.c:236
 80490f9:	3c 66                	cmp    $0x66,%al
 80490fb:	74 15                	je     8049112 <copy_id+0xfd>
test/unit/artifacts/cpp/modifiedFunctionsDetector/indent-2.2.10/indent.c:239
 80490fd:	a1 60 99 05 08       	mov    0x8059960,%eax
test/unit/artifacts/cpp/modifiedFunctionsDetector/indent-2.2.10/indent.c:236
 8049102:	85 c0                	test   %eax,%eax
 8049104:	75 1b                	jne    8049121 <copy_id+0x10c>
test/unit/artifacts/cpp/modifiedFunctionsDetector/indent-2.2.10/indent.c:239
 8049106:	a1 c0 9b 05 08       	mov    0x8059bc0,%eax
 804910b:	0f b6 00             	movzbl (%eax),%eax
test/unit/artifacts/cpp/modifiedFunctionsDetector/indent-2.2.10/indent.c:236
 804910e:	3c 77                	cmp    $0x77,%al
 8049110:	75 0f                	jne    8049121 <copy_id+0x10c>
test/unit/artifacts/cpp/modifiedFunctionsDetector/indent-2.2.10/indent.c:241
 8049112:	a1 48 9b 05 08       	mov    0x8059b48,%eax
 8049117:	c7 80 9c 00 00 00 00 	movl   $0x0,0x9c(%eax)
 804911e:	00 00 00 
test/unit/artifacts/cpp/modifiedFunctionsDetector/indent-2.2.10/indent.c:247
 8049121:	a1 c4 9b 05 08       	mov    0x8059bc4,%eax
 8049126:	89 c2                	mov    %eax,%edx
 8049128:	a1 c0 9b 05 08       	mov    0x8059bc0,%eax
 804912d:	89 d1                	mov    %edx,%ecx
 804912f:	29 c1                	sub    %eax,%ecx
 8049131:	89 c8                	mov    %ecx,%eax
 8049133:	83 f8 01             	cmp    $0x1,%eax
 8049136:	75 0c                	jne    8049144 <copy_id+0x12f>
 8049138:	a1 c0 9b 05 08       	mov    0x8059bc0,%eax
 804913d:	0f b6 00             	movzbl (%eax),%eax
 8049140:	3c 5f                	cmp    $0x5f,%al
 8049142:	74 32                	je     8049176 <copy_id+0x161>
test/unit/artifacts/cpp/modifiedFunctionsDetector/indent-2.2.10/indent.c:248
 8049144:	a1 c4 9b 05 08       	mov    0x8059bc4,%eax
 8049149:	89 c2                	mov    %eax,%edx
 804914b:	a1 c0 9b 05 08       	mov    0x8059bc0,%eax
 8049150:	89 d1                	mov    %edx,%ecx
 8049152:	29 c1                	sub    %eax,%ecx
 8049154:	89 c8                	mov    %ecx,%eax
test/unit/artifacts/cpp/modifiedFunctionsDetector/indent-2.2.10/indent.c:247
 8049156:	83 f8 02             	cmp    $0x2,%eax
 8049159:	75 2a                	jne    8049185 <copy_id+0x170>
test/unit/artifacts/cpp/modifiedFunctionsDetector/indent-2.2.10/indent.c:248
 804915b:	a1 c0 9b 05 08       	mov    0x8059bc0,%eax
 8049160:	0f b6 00             	movzbl (%eax),%eax
test/unit/artifacts/cpp/modifiedFunctionsDetector/indent-2.2.10/indent.c:247
 8049163:	3c 4e                	cmp    $0x4e,%al
 8049165:	75 1e                	jne    8049185 <copy_id+0x170>
test/unit/artifacts/cpp/modifiedFunctionsDetector/indent-2.2.10/indent.c:249
 8049167:	a1 c0 9b 05 08       	mov    0x8059bc0,%eax
 804916c:	83 c0 01             	add    $0x1,%eax
 804916f:	0f b6 00             	movzbl (%eax),%eax
test/unit/artifacts/cpp/modifiedFunctionsDetector/indent-2.2.10/indent.c:247
 8049172:	3c 5f                	cmp    $0x5f,%al
 8049174:	75 0f                	jne    8049185 <copy_id+0x170>
test/unit/artifacts/cpp/modifiedFunctionsDetector/indent-2.2.10/indent.c:251
 8049176:	a1 48 9b 05 08       	mov    0x8059b48,%eax
 804917b:	c7 80 9c 00 00 00 00 	movl   $0x0,0x9c(%eax)
 8049182:	00 00 00 
test/unit/artifacts/cpp/modifiedFunctionsDetector/indent-2.2.10/indent.c:257
 8049185:	a1 c4 9b 05 08       	mov    0x8059bc4,%eax
 804918a:	89 c2                	mov    %eax,%edx
 804918c:	a1 c0 9b 05 08       	mov    0x8059bc0,%eax
 8049191:	89 d1                	mov    %edx,%ecx
 8049193:	29 c1                	sub    %eax,%ecx
 8049195:	89 c8                	mov    %ecx,%eax
 8049197:	83 f8 06             	cmp    $0x6,%eax
 804919a:	75 69                	jne    8049205 <copy_id+0x1f0>
 804919c:	a1 c0 9b 05 08       	mov    0x8059bc0,%eax
 80491a1:	c7 44 24 08 06 00 00 	movl   $0x6,0x8(%esp)
 80491a8:	00 
 80491a9:	c7 44 24 04 0c 50 05 	movl   $0x805500c,0x4(%esp)
 80491b0:	08 
 80491b1:	89 04 24             	mov    %eax,(%esp)
 80491b4:	e8 83 fb ff ff       	call   8048d3c <strncmp@plt>
 80491b9:	85 c0                	test   %eax,%eax
 80491bb:	75 48                	jne    8049205 <copy_id+0x1f0>
test/unit/artifacts/cpp/modifiedFunctionsDetector/indent-2.2.10/indent.c:259
 80491bd:	a1 48 9b 05 08       	mov    0x8059b48,%eax
 80491c2:	c7 40 4c 00 00 00 00 	movl   $0x0,0x4c(%eax)
test/unit/artifacts/cpp/modifiedFunctionsDetector/indent-2.2.10/indent.c:260
 80491c9:	a1 48 9b 05 08       	mov    0x8059b48,%eax
 80491ce:	8b 90 bc 00 00 00    	mov    0xbc(%eax),%edx
 80491d4:	83 ea 01             	sub    $0x1,%edx
 80491d7:	89 90 bc 00 00 00    	mov    %edx,0xbc(%eax)
test/unit/artifacts/cpp/modifiedFunctionsDetector/indent-2.2.10/indent.c:261
 80491dd:	a1 48 9b 05 08       	mov    0x8059b48,%eax
 80491e2:	c6 40 64 00          	movb   $0x0,0x64(%eax)
test/unit/artifacts/cpp/modifiedFunctionsDetector/indent-2.2.10/indent.c:265
 80491e6:	c7 04 24 0c 00 00 00 	movl   $0xc,(%esp)
 80491ed:	e8 3d 86 00 00       	call   805182f <parse>
 80491f2:	85 c0                	test   %eax,%eax
 80491f4:	74 09                	je     80491ff <copy_id+0x1ea>
test/unit/artifacts/cpp/modifiedFunctionsDetector/indent-2.2.10/indent.c:267
 80491f6:	8b 45 10             	mov    0x10(%ebp),%eax
 80491f9:	c7 00 02 00 00 00    	movl   $0x2,(%eax)
test/unit/artifacts/cpp/modifiedFunctionsDetector/indent-2.2.10/indent.c:271
 80491ff:	8b 45 0c             	mov    0xc(%ebp),%eax
 8049202:	c6 00 01             	movb   $0x1,(%eax)
test/unit/artifacts/cpp/modifiedFunctionsDetector/indent-2.2.10/indent.c:273
 8049205:	c9                   	leave  
 8049206:	c3                   	ret    

08049207 <handle_token_form_feed>:
handle_token_form_feed():
test/unit/artifacts/cpp/modifiedFunctionsDetector/indent-2.2.10/indent.c:281
 8049207:	55                   	push   %ebp
 8049208:	89 e5                	mov    %esp,%ebp
 804920a:	83 ec 18             	sub    $0x18,%esp
test/unit/artifacts/cpp/modifiedFunctionsDetector/indent-2.2.10/indent.c:282
 804920d:	a1 48 9b 05 08       	mov    0x8059b48,%eax
 8049212:	c7 80 98 00 00 00 01 	movl   $0x1,0x98(%eax)
 8049219:	00 00 00 
test/unit/artifacts/cpp/modifiedFunctionsDetector/indent-2.2.10/indent.c:284
 804921c:	8b 45 08             	mov    0x8(%ebp),%eax
 804921f:	89 44 24 08          	mov    %eax,0x8(%esp)
 8049223:	c7 44 24 04 24 99 05 	movl   $0x8059924,0x4(%esp)
 804922a:	08 
 804922b:	c7 04 24 01 00 00 00 	movl   $0x1,(%esp)
 8049232:	e8 3b af 00 00       	call   8054172 <dump_line>
test/unit/artifacts/cpp/modifiedFunctionsDetector/indent-2.2.10/indent.c:285
 8049237:	a1 48 9b 05 08       	mov    0x8059b48,%eax
 804923c:	c7 80 9c 00 00 00 00 	movl   $0x0,0x9c(%eax)
 8049243:	00 00 00 
test/unit/artifacts/cpp/modifiedFunctionsDetector/indent-2.2.10/indent.c:286
 8049246:	c9                   	leave  
 8049247:	c3                   	ret    

08049248 <handle_token_newline>:
handle_token_newline():
test/unit/artifacts/cpp/modifiedFunctionsDetector/indent-2.2.10/indent.c:295
 8049248:	55                   	push   %ebp
 8049249:	89 e5                	mov    %esp,%ebp
 804924b:	83 ec 18             	sub    $0x18,%esp
test/unit/artifacts/cpp/modifiedFunctionsDetector/indent-2.2.10/indent.c:297
 804924e:	8b 15 b0 98 05 08    	mov    0x80598b0,%edx
 8049254:	a1 b4 98 05 08       	mov    0x80598b4,%eax
 8049259:	39 c2                	cmp    %eax,%edx
 804925b:	74 50                	je     80492ad <handle_token_newline+0x65>
 804925d:	a1 b0 98 05 08       	mov    0x80598b0,%eax
 8049262:	0f b6 00             	movzbl (%eax),%eax
 8049265:	3c 23                	cmp    $0x23,%al
 8049267:	75 44                	jne    80492ad <handle_token_newline+0x65>
test/unit/artifacts/cpp/modifiedFunctionsDetector/indent-2.2.10/indent.c:299
 8049269:	8b 45 0c             	mov    0xc(%ebp),%eax
 804926c:	89 44 24 08          	mov    %eax,0x8(%esp)
 8049270:	c7 44 24 04 24 99 05 	movl   $0x8059924,0x4(%esp)
 8049277:	08 
 8049278:	c7 04 24 01 00 00 00 	movl   $0x1,(%esp)
 804927f:	e8 ee ae 00 00       	call   8054172 <dump_line>
test/unit/artifacts/cpp/modifiedFunctionsDetector/indent-2.2.10/indent.c:301
 8049284:	8b 15 c0 98 05 08    	mov    0x80598c0,%edx
 804928a:	a1 c4 98 05 08       	mov    0x80598c4,%eax
 804928f:	39 c2                	cmp    %eax,%edx
 8049291:	75 0f                	jne    80492a2 <handle_token_newline+0x5a>
test/unit/artifacts/cpp/modifiedFunctionsDetector/indent-2.2.10/indent.c:303
 8049293:	a1 48 9b 05 08       	mov    0x8059b48,%eax
 8049298:	c7 80 9c 00 00 00 00 	movl   $0x0,0x9c(%eax)
 804929f:	00 00 00 
test/unit/artifacts/cpp/modifiedFunctionsDetector/indent-2.2.10/indent.c:306
 80492a2:	8b 45 08             	mov    0x8(%ebp),%eax
 80492a5:	c6 00 00             	movb   $0x0,(%eax)
test/unit/artifacts/cpp/modifiedFunctionsDetector/indent-2.2.10/indent.c:297
 80492a8:	e9 7a 01 00 00       	jmp    8049427 <handle_token_newline+0x1df>
test/unit/artifacts/cpp/modifiedFunctionsDetector/indent-2.2.10/indent.c:310
 80492ad:	a1 48 9b 05 08       	mov    0x8059b48,%eax
 80492b2:	8b 40 04             	mov    0x4(%eax),%eax
 80492b5:	83 f8 12             	cmp    $0x12,%eax
 80492b8:	75 3d                	jne    80492f7 <handle_token_newline+0xaf>
test/unit/artifacts/cpp/modifiedFunctionsDetector/indent-2.2.10/indent.c:311
 80492ba:	a1 bc 99 05 08       	mov    0x80599bc,%eax
test/unit/artifacts/cpp/modifiedFunctionsDetector/indent-2.2.10/indent.c:310
 80492bf:	85 c0                	test   %eax,%eax
 80492c1:	74 34                	je     80492f7 <handle_token_newline+0xaf>
test/unit/artifacts/cpp/modifiedFunctionsDetector/indent-2.2.10/indent.c:312
 80492c3:	a1 f0 98 05 08       	mov    0x80598f0,%eax
test/unit/artifacts/cpp/modifiedFunctionsDetector/indent-2.2.10/indent.c:310
 80492c8:	85 c0                	test   %eax,%eax
 80492ca:	74 2b                	je     80492f7 <handle_token_newline+0xaf>
test/unit/artifacts/cpp/modifiedFunctionsDetector/indent-2.2.10/indent.c:313
 80492cc:	a1 48 9b 05 08       	mov    0x8059b48,%eax
 80492d1:	8b 40 7c             	mov    0x7c(%eax),%eax
test/unit/artifacts/cpp/modifiedFunctionsDetector/indent-2.2.10/indent.c:310
 80492d4:	85 c0                	test   %eax,%eax
 80492d6:	7f 1f                	jg     80492f7 <handle_token_newline+0xaf>
test/unit/artifacts/cpp/modifiedFunctionsDetector/indent-2.2.10/indent.c:314
 80492d8:	a1 48 9b 05 08       	mov    0x8059b48,%eax
 80492dd:	8b 40 34             	mov    0x34(%eax),%eax
test/unit/artifacts/cpp/modifiedFunctionsDetector/indent-2.2.10/indent.c:310
 80492e0:	85 c0                	test   %eax,%eax
 80492e2:	75 13                	jne    80492f7 <handle_token_newline+0xaf>
test/unit/artifacts/cpp/modifiedFunctionsDetector/indent-2.2.10/indent.c:315
 80492e4:	8b 15 d0 98 05 08    	mov    0x80598d0,%edx
 80492ea:	a1 d4 98 05 08       	mov    0x80598d4,%eax
test/unit/artifacts/cpp/modifiedFunctionsDetector/indent-2.2.10/indent.c:310
 80492ef:	39 c2                	cmp    %eax,%edx
 80492f1:	0f 84 30 01 00 00    	je     8049427 <handle_token_newline+0x1df>
test/unit/artifacts/cpp/modifiedFunctionsDetector/indent-2.2.10/indent.c:316
 80492f7:	a1 48 9b 05 08       	mov    0x8059b48,%eax
 80492fc:	8b 40 04             	mov    0x4(%eax),%eax
test/unit/artifacts/cpp/modifiedFunctionsDetector/indent-2.2.10/indent.c:310
 80492ff:	83 f8 0e             	cmp    $0xe,%eax
 8049302:	75 1a                	jne    804931e <handle_token_newline+0xd6>
 8049304:	a1 10 9a 05 08       	mov    0x8059a10,%eax
 8049309:	85 c0                	test   %eax,%eax
 804930b:	74 11                	je     804931e <handle_token_newline+0xd6>
test/unit/artifacts/cpp/modifiedFunctionsDetector/indent-2.2.10/indent.c:318
 804930d:	a1 48 9b 05 08       	mov    0x8059b48,%eax
test/unit/artifacts/cpp/modifiedFunctionsDetector/indent-2.2.10/indent.c:310
 8049312:	0f b6 40 64          	movzbl 0x64(%eax),%eax
 8049316:	84 c0                	test   %al,%al
 8049318:	0f 85 09 01 00 00    	jne    8049427 <handle_token_newline+0x1df>
test/unit/artifacts/cpp/modifiedFunctionsDetector/indent-2.2.10/indent.c:324
 804931e:	a1 6c 99 05 08       	mov    0x805996c,%eax
 8049323:	85 c0                	test   %eax,%eax
 8049325:	0f 85 99 00 00 00    	jne    80493c4 <handle_token_newline+0x17c>
test/unit/artifacts/cpp/modifiedFunctionsDetector/indent-2.2.10/indent.c:325
 804932b:	8b 15 b0 98 05 08    	mov    0x80598b0,%edx
 8049331:	a1 b4 98 05 08       	mov    0x80598b4,%eax
test/unit/artifacts/cpp/modifiedFunctionsDetector/indent-2.2.10/indent.c:324
 8049336:	39 c2                	cmp    %eax,%edx
 8049338:	0f 85 86 00 00 00    	jne    80493c4 <handle_token_newline+0x17c>
test/unit/artifacts/cpp/modifiedFunctionsDetector/indent-2.2.10/indent.c:326
 804933e:	a1 48 9b 05 08       	mov    0x8059b48,%eax
 8049343:	8b 40 04             	mov    0x4(%eax),%eax
test/unit/artifacts/cpp/modifiedFunctionsDetector/indent-2.2.10/indent.c:324
 8049346:	83 f8 02             	cmp    $0x2,%eax
 8049349:	74 79                	je     80493c4 <handle_token_newline+0x17c>
test/unit/artifacts/cpp/modifiedFunctionsDetector/indent-2.2.10/indent.c:327
 804934b:	a1 48 9b 05 08       	mov    0x8059b48,%eax
 8049350:	8b 40 04             	mov    0x4(%eax),%eax
test/unit/artifacts/cpp/modifiedFunctionsDetector/indent-2.2.10/indent.c:324
 8049353:	83 f8 0c             	cmp    $0xc,%eax
 8049356:	74 6c                	je     80493c4 <handle_token_newline+0x17c>
test/unit/artifacts/cpp/modifiedFunctionsDetector/indent-2.2.10/indent.c:328
 8049358:	a1 48 9b 05 08       	mov    0x8059b48,%eax
 804935d:	8b 40 04             	mov    0x4(%eax),%eax
test/unit/artifacts/cpp/modifiedFunctionsDetector/indent-2.2.10/indent.c:324
 8049360:	83 f8 12             	cmp    $0x12,%eax
 8049363:	74 5f                	je     80493c4 <handle_token_newline+0x17c>
test/unit/artifacts/cpp/modifiedFunctionsDetector/indent-2.2.10/indent.c:329
 8049365:	a1 48 9b 05 08       	mov    0x8059b48,%eax
 804936a:	8b 40 14             	mov    0x14(%eax),%eax
test/unit/artifacts/cpp/modifiedFunctionsDetector/indent-2.2.10/indent.c:324
 804936d:	83 f8 07             	cmp    $0x7,%eax
 8049370:	75 52                	jne    80493c4 <handle_token_newline+0x17c>
test/unit/artifacts/cpp/modifiedFunctionsDetector/indent-2.2.10/indent.c:330
 8049372:	a1 48 9b 05 08       	mov    0x8059b48,%eax
 8049377:	8b 40 18             	mov    0x18(%eax),%eax
test/unit/artifacts/cpp/modifiedFunctionsDetector/indent-2.2.10/indent.c:324
 804937a:	85 c0                	test   %eax,%eax
 804937c:	75 46                	jne    80493c4 <handle_token_newline+0x17c>
test/unit/artifacts/cpp/modifiedFunctionsDetector/indent-2.2.10/indent.c:331
 804937e:	a1 48 9b 05 08       	mov    0x8059b48,%eax
 8049383:	8b 40 34             	mov    0x34(%eax),%eax
test/unit/artifacts/cpp/modifiedFunctionsDetector/indent-2.2.10/indent.c:324
 8049386:	85 c0                	test   %eax,%eax
 8049388:	75 3a                	jne    80493c4 <handle_token_newline+0x17c>
test/unit/artifacts/cpp/modifiedFunctionsDetector/indent-2.2.10/indent.c:332
 804938a:	a1 48 9b 05 08       	mov    0x8059b48,%eax
 804938f:	0f b6 40 64          	movzbl 0x64(%eax),%eax
test/unit/artifacts/cpp/modifiedFunctionsDetector/indent-2.2.10/indent.c:324
 8049393:	84 c0                	test   %al,%al
 8049395:	74 2d                	je     80493c4 <handle_token_newline+0x17c>
test/unit/artifacts/cpp/modifiedFunctionsDetector/indent-2.2.10/indent.c:338
 8049397:	8b 15 c4 98 05 08    	mov    0x80598c4,%edx
 804939d:	a1 c0 98 05 08       	mov    0x80598c0,%eax
 80493a2:	39 c2                	cmp    %eax,%edx
 80493a4:	76 0f                	jbe    80493b5 <handle_token_newline+0x16d>
test/unit/artifacts/cpp/modifiedFunctionsDetector/indent-2.2.10/indent.c:339
 80493a6:	a1 c4 98 05 08       	mov    0x80598c4,%eax
 80493ab:	83 e8 01             	sub    $0x1,%eax
 80493ae:	0f b6 00             	movzbl (%eax),%eax
test/unit/artifacts/cpp/modifiedFunctionsDetector/indent-2.2.10/indent.c:338
 80493b1:	3c 2a                	cmp    $0x2a,%al
 80493b3:	74 0f                	je     80493c4 <handle_token_newline+0x17c>
test/unit/artifacts/cpp/modifiedFunctionsDetector/indent-2.2.10/indent.c:341
 80493b5:	a1 48 9b 05 08       	mov    0x8059b48,%eax
 80493ba:	c7 80 9c 00 00 00 01 	movl   $0x1,0x9c(%eax)
 80493c1:	00 00 00 
test/unit/artifacts/cpp/modifiedFunctionsDetector/indent-2.2.10/indent.c:345
 80493c4:	a1 48 9b 05 08       	mov    0x8059b48,%eax
 80493c9:	8b 40 68             	mov    0x68(%eax),%eax
 80493cc:	85 c0                	test   %eax,%eax
 80493ce:	74 18                	je     80493e8 <handle_token_newline+0x1a0>
test/unit/artifacts/cpp/modifiedFunctionsDetector/indent-2.2.10/indent.c:346
 80493d0:	8b 15 d0 98 05 08    	mov    0x80598d0,%edx
 80493d6:	a1 d4 98 05 08       	mov    0x80598d4,%eax
test/unit/artifacts/cpp/modifiedFunctionsDetector/indent-2.2.10/indent.c:345
 80493db:	39 c2                	cmp    %eax,%edx
 80493dd:	75 09                	jne    80493e8 <handle_token_newline+0x1a0>
test/unit/artifacts/cpp/modifiedFunctionsDetector/indent-2.2.10/indent.c:347
 80493df:	a1 08 99 05 08       	mov    0x8059908,%eax
test/unit/artifacts/cpp/modifiedFunctionsDetector/indent-2.2.10/indent.c:345
 80493e4:	85 c0                	test   %eax,%eax
 80493e6:	74 3f                	je     8049427 <handle_token_newline+0x1df>
test/unit/artifacts/cpp/modifiedFunctionsDetector/indent-2.2.10/indent.c:349
 80493e8:	8b 45 0c             	mov    0xc(%ebp),%eax
 80493eb:	89 44 24 08          	mov    %eax,0x8(%esp)
 80493ef:	c7 44 24 04 24 99 05 	movl   $0x8059924,0x4(%esp)
 80493f6:	08 
 80493f7:	c7 04 24 01 00 00 00 	movl   $0x1,(%esp)
 80493fe:	e8 6f ad 00 00       	call   8054172 <dump_line>
test/unit/artifacts/cpp/modifiedFunctionsDetector/indent-2.2.10/indent.c:351
 8049403:	8b 15 c0 98 05 08    	mov    0x80598c0,%edx
 8049409:	a1 c4 98 05 08       	mov    0x80598c4,%eax
 804940e:	39 c2                	cmp    %eax,%edx
 8049410:	75 0f                	jne    8049421 <handle_token_newline+0x1d9>
test/unit/artifacts/cpp/modifiedFunctionsDetector/indent-2.2.10/indent.c:353
 8049412:	a1 48 9b 05 08       	mov    0x8059b48,%eax
 8049417:	c7 80 9c 00 00 00 00 	movl   $0x0,0x9c(%eax)
 804941e:	00 00 00 
test/unit/artifacts/cpp/modifiedFunctionsDetector/indent-2.2.10/indent.c:356
 8049421:	8b 45 08             	mov    0x8(%ebp),%eax
 8049424:	c6 00 00             	movb   $0x0,(%eax)
test/unit/artifacts/cpp/modifiedFunctionsDetector/indent-2.2.10/indent.c:364
 8049427:	c7 05 0c 99 05 08 00 	movl   $0x0,0x805990c
 804942e:	00 00 00 
test/unit/artifacts/cpp/modifiedFunctionsDetector/indent-2.2.10/indent.c:365
 8049431:	a1 ec 98 05 08       	mov    0x80598ec,%eax
 8049436:	83 c0 01             	add    $0x1,%eax
 8049439:	a3 ec 98 05 08       	mov    %eax,0x80598ec
test/unit/artifacts/cpp/modifiedFunctionsDetector/indent-2.2.10/indent.c:366
 804943e:	c9                   	leave  
 804943f:	c3                   	ret    

08049440 <handle_token_lparen>:
handle_token_lparen():
test/unit/artifacts/cpp/modifiedFunctionsDetector/indent-2.2.10/indent.c:377
 8049440:	55                   	push   %ebp
 8049441:	89 e5                	mov    %esp,%ebp
 8049443:	57                   	push   %edi
 8049444:	56                   	push   %esi
 8049445:	53                   	push   %ebx
 8049446:	83 ec 1c             	sub    $0x1c,%esp
test/unit/artifacts/cpp/modifiedFunctionsDetector/indent-2.2.10/indent.c:390
 8049449:	a1 c0 9b 05 08       	mov    0x8059bc0,%eax
 804944e:	0f b6 00             	movzbl (%eax),%eax
 8049451:	3c 7b                	cmp    $0x7b,%al
 8049453:	75 57                	jne    80494ac <handle_token_lparen+0x6c>
 8049455:	8b 15 c0 98 05 08    	mov    0x80598c0,%edx
 804945b:	a1 c4 98 05 08       	mov    0x80598c4,%eax
 8049460:	39 c2                	cmp    %eax,%edx
 8049462:	75 1e                	jne    8049482 <handle_token_lparen+0x42>
test/unit/artifacts/cpp/modifiedFunctionsDetector/indent-2.2.10/indent.c:391
 8049464:	8b 15 d0 98 05 08    	mov    0x80598d0,%edx
 804946a:	a1 d4 98 05 08       	mov    0x80598d4,%eax
test/unit/artifacts/cpp/modifiedFunctionsDetector/indent-2.2.10/indent.c:390
 804946f:	39 c2                	cmp    %eax,%edx
 8049471:	75 0f                	jne    8049482 <handle_token_lparen+0x42>
test/unit/artifacts/cpp/modifiedFunctionsDetector/indent-2.2.10/indent.c:392
 8049473:	8b 15 b0 98 05 08    	mov    0x80598b0,%edx
 8049479:	a1 b4 98 05 08       	mov    0x80598b4,%eax
test/unit/artifacts/cpp/modifiedFunctionsDetector/indent-2.2.10/indent.c:390
 804947e:	39 c2                	cmp    %eax,%edx
 8049480:	74 2a                	je     80494ac <handle_token_lparen+0x6c>
test/unit/artifacts/cpp/modifiedFunctionsDetector/indent-2.2.10/indent.c:394
 8049482:	8b 45 14             	mov    0x14(%ebp),%eax
 8049485:	89 44 24 08          	mov    %eax,0x8(%esp)
 8049489:	c7 44 24 04 24 99 05 	movl   $0x8059924,0x4(%esp)
 8049490:	08 
 8049491:	c7 04 24 01 00 00 00 	movl   $0x1,(%esp)
 8049498:	e8 d5 ac 00 00       	call   8054172 <dump_line>
test/unit/artifacts/cpp/modifiedFunctionsDetector/indent-2.2.10/indent.c:398
 804949d:	a1 48 9b 05 08       	mov    0x8059b48,%eax
 80494a2:	c7 80 9c 00 00 00 00 	movl   $0x0,0x9c(%eax)
 80494a9:	00 00 00 
test/unit/artifacts/cpp/modifiedFunctionsDetector/indent-2.2.10/indent.c:403
 80494ac:	a1 48 9b 05 08       	mov    0x8059b48,%eax
 80494b1:	8b 50 7c             	mov    0x7c(%eax),%edx
 80494b4:	83 c2 01             	add    $0x1,%edx
 80494b7:	89 50 7c             	mov    %edx,0x7c(%eax)
test/unit/artifacts/cpp/modifiedFunctionsDetector/indent-2.2.10/indent.c:405
 80494ba:	a1 48 9b 05 08       	mov    0x8059b48,%eax
 80494bf:	8b 50 7c             	mov    0x7c(%eax),%edx
 80494c2:	a1 48 9b 05 08       	mov    0x8059b48,%eax
 80494c7:	8b 80 8c 00 00 00    	mov    0x8c(%eax),%eax
 80494cd:	39 c2                	cmp    %eax,%edx
 80494cf:	7c 4a                	jl     804951b <handle_token_lparen+0xdb>
test/unit/artifacts/cpp/modifiedFunctionsDetector/indent-2.2.10/indent.c:407
 80494d1:	a1 48 9b 05 08       	mov    0x8059b48,%eax
 80494d6:	8b 15 48 9b 05 08    	mov    0x8059b48,%edx
 80494dc:	8b 92 8c 00 00 00    	mov    0x8c(%edx),%edx
 80494e2:	01 d2                	add    %edx,%edx
 80494e4:	89 90 8c 00 00 00    	mov    %edx,0x8c(%eax)
test/unit/artifacts/cpp/modifiedFunctionsDetector/indent-2.2.10/indent.c:408
 80494ea:	8b 1d 48 9b 05 08    	mov    0x8059b48,%ebx
test/unit/artifacts/cpp/modifiedFunctionsDetector/indent-2.2.10/indent.c:410
 80494f0:	a1 48 9b 05 08       	mov    0x8059b48,%eax
test/unit/artifacts/cpp/modifiedFunctionsDetector/indent-2.2.10/indent.c:409
 80494f5:	8b 80 8c 00 00 00    	mov    0x8c(%eax),%eax
 80494fb:	8d 14 00             	lea    (%eax,%eax,1),%edx
 80494fe:	a1 48 9b 05 08       	mov    0x8059b48,%eax
 8049503:	8b 80 88 00 00 00    	mov    0x88(%eax),%eax
 8049509:	89 54 24 04          	mov    %edx,0x4(%esp)
 804950d:	89 04 24             	mov    %eax,(%esp)
 8049510:	e8 f9 8e 00 00       	call   805240e <xrealloc>
test/unit/artifacts/cpp/modifiedFunctionsDetector/indent-2.2.10/indent.c:408
 8049515:	89 83 88 00 00 00    	mov    %eax,0x88(%ebx)
test/unit/artifacts/cpp/modifiedFunctionsDetector/indent-2.2.10/indent.c:414
 804951b:	a1 48 9b 05 08       	mov    0x8059b48,%eax
 8049520:	8b 90 84 00 00 00    	mov    0x84(%eax),%edx
 8049526:	83 c2 01             	add    $0x1,%edx
 8049529:	89 90 84 00 00 00    	mov    %edx,0x84(%eax)
test/unit/artifacts/cpp/modifiedFunctionsDetector/indent-2.2.10/indent.c:416
 804952f:	a1 48 9b 05 08       	mov    0x8059b48,%eax
 8049534:	8b 80 9c 00 00 00    	mov    0x9c(%eax),%eax
 804953a:	85 c0                	test   %eax,%eax
 804953c:	74 78                	je     80495b6 <handle_token_lparen+0x176>
test/unit/artifacts/cpp/modifiedFunctionsDetector/indent-2.2.10/indent.c:417
 804953e:	a1 c0 9b 05 08       	mov    0x8059bc0,%eax
 8049543:	0f b6 00             	movzbl (%eax),%eax
test/unit/artifacts/cpp/modifiedFunctionsDetector/indent-2.2.10/indent.c:416
 8049546:	3c 5b                	cmp    $0x5b,%al
 8049548:	74 6c                	je     80495b6 <handle_token_lparen+0x176>
test/unit/artifacts/cpp/modifiedFunctionsDetector/indent-2.2.10/indent.c:418
 804954a:	a1 48 9b 05 08       	mov    0x8059b48,%eax
 804954f:	8b 40 04             	mov    0x4(%eax),%eax
test/unit/artifacts/cpp/modifiedFunctionsDetector/indent-2.2.10/indent.c:416
 8049552:	83 f8 0f             	cmp    $0xf,%eax
 8049555:	75 30                	jne    8049587 <handle_token_lparen+0x147>
test/unit/artifacts/cpp/modifiedFunctionsDetector/indent-2.2.10/indent.c:419
 8049557:	a1 7c 99 05 08       	mov    0x805997c,%eax
test/unit/artifacts/cpp/modifiedFunctionsDetector/indent-2.2.10/indent.c:416
 804955c:	85 c0                	test   %eax,%eax
 804955e:	75 27                	jne    8049587 <handle_token_lparen+0x147>
test/unit/artifacts/cpp/modifiedFunctionsDetector/indent-2.2.10/indent.c:420
 8049560:	a1 48 9b 05 08       	mov    0x8059b48,%eax
 8049565:	8b 80 a4 00 00 00    	mov    0xa4(%eax),%eax
test/unit/artifacts/cpp/modifiedFunctionsDetector/indent-2.2.10/indent.c:416
 804956b:	85 c0                	test   %eax,%eax
 804956d:	74 47                	je     80495b6 <handle_token_lparen+0x176>
test/unit/artifacts/cpp/modifiedFunctionsDetector/indent-2.2.10/indent.c:421
 804956f:	a1 48 9b 05 08       	mov    0x8059b48,%eax
 8049574:	8b 80 a8 00 00 00    	mov    0xa8(%eax),%eax
test/unit/artifacts/cpp/modifiedFunctionsDetector/indent-2.2.10/indent.c:416
 804957a:	85 c0                	test   %eax,%eax
 804957c:	74 09                	je     8049587 <handle_token_lparen+0x147>
test/unit/artifacts/cpp/modifiedFunctionsDetector/indent-2.2.10/indent.c:421
 804957e:	a1 b0 99 05 08       	mov    0x80599b0,%eax
test/unit/artifacts/cpp/modifiedFunctionsDetector/indent-2.2.10/indent.c:416
 8049583:	85 c0                	test   %eax,%eax
 8049585:	74 2f                	je     80495b6 <handle_token_lparen+0x176>
test/unit/artifacts/cpp/modifiedFunctionsDetector/indent-2.2.10/indent.c:423
 8049587:	a1 24 99 05 08       	mov    0x8059924,%eax
 804958c:	89 44 24 04          	mov    %eax,0x4(%esp)
 8049590:	c7 04 24 04 00 00 00 	movl   $0x4,(%esp)
 8049597:	e8 27 99 00 00       	call   8052ec3 <set_buf_break>
test/unit/artifacts/cpp/modifiedFunctionsDetector/indent-2.2.10/indent.c:424
 804959c:	a1 c4 98 05 08       	mov    0x80598c4,%eax
 80495a1:	c6 00 20             	movb   $0x20,(%eax)
 80495a4:	83 c0 01             	add    $0x1,%eax
 80495a7:	a3 c4 98 05 08       	mov    %eax,0x80598c4
test/unit/artifacts/cpp/modifiedFunctionsDetector/indent-2.2.10/indent.c:425
 80495ac:	a1 c4 98 05 08       	mov    0x80598c4,%eax
 80495b1:	c6 00 00             	movb   $0x0,(%eax)
test/unit/artifacts/cpp/modifiedFunctionsDetector/indent-2.2.10/indent.c:416
 80495b4:	eb 15                	jmp    80495cb <handle_token_lparen+0x18b>
test/unit/artifacts/cpp/modifiedFunctionsDetector/indent-2.2.10/indent.c:429
 80495b6:	a1 24 99 05 08       	mov    0x8059924,%eax
 80495bb:	89 44 24 04          	mov    %eax,0x4(%esp)
 80495bf:	c7 04 24 04 00 00 00 	movl   $0x4,(%esp)
 80495c6:	e8 f8 98 00 00       	call   8052ec3 <set_buf_break>
test/unit/artifacts/cpp/modifiedFunctionsDetector/indent-2.2.10/indent.c:432
 80495cb:	a1 48 9b 05 08       	mov    0x8059b48,%eax
 80495d0:	0f b6 40 64          	movzbl 0x64(%eax),%eax
 80495d4:	84 c0                	test   %al,%al
 80495d6:	0f 84 a9 00 00 00    	je     8049685 <handle_token_lparen+0x245>
 80495dc:	a1 48 9b 05 08       	mov    0x8059b48,%eax
 80495e1:	8b 40 34             	mov    0x34(%eax),%eax
 80495e4:	85 c0                	test   %eax,%eax
 80495e6:	0f 85 99 00 00 00    	jne    8049685 <handle_token_lparen+0x245>
test/unit/artifacts/cpp/modifiedFunctionsDetector/indent-2.2.10/indent.c:434
 80495ec:	a1 c0 9b 05 08       	mov    0x8059bc0,%eax
 80495f1:	0f b6 00             	movzbl (%eax),%eax
 80495f4:	3c 5b                	cmp    $0x5b,%al
 80495f6:	74 73                	je     804966b <handle_token_lparen+0x22b>
 80495f8:	a1 88 9b 05 08       	mov    0x8059b88,%eax
 80495fd:	85 c0                	test   %eax,%eax
 80495ff:	75 6a                	jne    804966b <handle_token_lparen+0x22b>
test/unit/artifacts/cpp/modifiedFunctionsDetector/indent-2.2.10/indent.c:436
 8049601:	eb 2a                	jmp    804962d <handle_token_lparen+0x1ed>
test/unit/artifacts/cpp/modifiedFunctionsDetector/indent-2.2.10/indent.c:438
 8049603:	e8 4c f8 ff ff       	call   8048e54 <check_code_size>
test/unit/artifacts/cpp/modifiedFunctionsDetector/indent-2.2.10/indent.c:439
 8049608:	a1 24 99 05 08       	mov    0x8059924,%eax
 804960d:	89 44 24 04          	mov    %eax,0x4(%esp)
 8049611:	c7 04 24 05 00 00 00 	movl   $0x5,(%esp)
 8049618:	e8 a6 98 00 00       	call   8052ec3 <set_buf_break>
test/unit/artifacts/cpp/modifiedFunctionsDetector/indent-2.2.10/indent.c:440
 804961d:	a1 c4 98 05 08       	mov    0x80598c4,%eax
 8049622:	c6 00 20             	movb   $0x20,(%eax)
 8049625:	83 c0 01             	add    $0x1,%eax
 8049628:	a3 c4 98 05 08       	mov    %eax,0x80598c4
test/unit/artifacts/cpp/modifiedFunctionsDetector/indent-2.2.10/indent.c:436
 804962d:	a1 c4 98 05 08       	mov    0x80598c4,%eax
 8049632:	89 c2                	mov    %eax,%edx
 8049634:	a1 c0 98 05 08       	mov    0x80598c0,%eax
 8049639:	29 c2                	sub    %eax,%edx
 804963b:	8b 45 10             	mov    0x10(%ebp),%eax
 804963e:	8b 00                	mov    (%eax),%eax
 8049640:	39 c2                	cmp    %eax,%edx
 8049642:	7c bf                	jl     8049603 <handle_token_lparen+0x1c3>
test/unit/artifacts/cpp/modifiedFunctionsDetector/indent-2.2.10/indent.c:443
 8049644:	a1 c4 98 05 08       	mov    0x80598c4,%eax
 8049649:	8b 15 c0 9b 05 08    	mov    0x8059bc0,%edx
 804964f:	0f b6 12             	movzbl (%edx),%edx
 8049652:	88 10                	mov    %dl,(%eax)
 8049654:	83 c0 01             	add    $0x1,%eax
 8049657:	a3 c4 98 05 08       	mov    %eax,0x80598c4
test/unit/artifacts/cpp/modifiedFunctionsDetector/indent-2.2.10/indent.c:444
 804965c:	a1 48 9b 05 08       	mov    0x8059b48,%eax
 8049661:	c7 40 74 00 00 00 00 	movl   $0x0,0x74(%eax)
test/unit/artifacts/cpp/modifiedFunctionsDetector/indent-2.2.10/indent.c:434
 8049668:	90                   	nop
test/unit/artifacts/cpp/modifiedFunctionsDetector/indent-2.2.10/indent.c:432
 8049669:	eb 32                	jmp    804969d <handle_token_lparen+0x25d>
test/unit/artifacts/cpp/modifiedFunctionsDetector/indent-2.2.10/indent.c:448
 804966b:	a1 c4 98 05 08       	mov    0x80598c4,%eax
 8049670:	8b 15 c0 9b 05 08    	mov    0x8059bc0,%edx
 8049676:	0f b6 12             	movzbl (%edx),%edx
 8049679:	88 10                	mov    %dl,(%eax)
 804967b:	83 c0 01             	add    $0x1,%eax
 804967e:	a3 c4 98 05 08       	mov    %eax,0x80598c4
test/unit/artifacts/cpp/modifiedFunctionsDetector/indent-2.2.10/indent.c:432
 8049683:	eb 18                	jmp    804969d <handle_token_lparen+0x25d>
test/unit/artifacts/cpp/modifiedFunctionsDetector/indent-2.2.10/indent.c:453
 8049685:	a1 c4 98 05 08       	mov    0x80598c4,%eax
 804968a:	8b 15 c0 9b 05 08    	mov    0x8059bc0,%edx
 8049690:	0f b6 12             	movzbl (%edx),%edx
 8049693:	88 10                	mov    %dl,(%eax)
 8049695:	83 c0 01             	add    $0x1,%eax
 8049698:	a3 c4 98 05 08       	mov    %eax,0x80598c4
test/unit/artifacts/cpp/modifiedFunctionsDetector/indent-2.2.10/indent.c:456
 804969d:	a1 70 99 05 08       	mov    0x8059970,%eax
 80496a2:	85 c0                	test   %eax,%eax
 80496a4:	74 1c                	je     80496c2 <handle_token_lparen+0x282>
 80496a6:	a1 c0 9b 05 08       	mov    0x8059bc0,%eax
 80496ab:	0f b6 00             	movzbl (%eax),%eax
 80496ae:	3c 5b                	cmp    $0x5b,%al
 80496b0:	74 10                	je     80496c2 <handle_token_lparen+0x282>
test/unit/artifacts/cpp/modifiedFunctionsDetector/indent-2.2.10/indent.c:458
 80496b2:	a1 c4 98 05 08       	mov    0x80598c4,%eax
 80496b7:	c6 00 20             	movb   $0x20,(%eax)
 80496ba:	83 c0 01             	add    $0x1,%eax
 80496bd:	a3 c4 98 05 08       	mov    %eax,0x80598c4
test/unit/artifacts/cpp/modifiedFunctionsDetector/indent-2.2.10/indent.c:461
 80496c2:	a1 48 9b 05 08       	mov    0x8059b48,%eax
 80496c7:	8b 90 88 00 00 00    	mov    0x88(%eax),%edx
 80496cd:	a1 48 9b 05 08       	mov    0x8059b48,%eax
 80496d2:	8b 40 7c             	mov    0x7c(%eax),%eax
 80496d5:	83 e8 01             	sub    $0x1,%eax
 80496d8:	01 c0                	add    %eax,%eax
 80496da:	01 c2                	add    %eax,%edx
 80496dc:	a1 c4 98 05 08       	mov    0x80598c4,%eax
 80496e1:	89 c1                	mov    %eax,%ecx
 80496e3:	a1 c0 98 05 08       	mov    0x80598c0,%eax
 80496e8:	89 cb                	mov    %ecx,%ebx
 80496ea:	66 29 c3             	sub    %ax,%bx
 80496ed:	89 d8                	mov    %ebx,%eax
 80496ef:	66 89 02             	mov    %ax,(%edx)
test/unit/artifacts/cpp/modifiedFunctionsDetector/indent-2.2.10/indent.c:464
 80496f2:	8b 45 0c             	mov    0xc(%ebp),%eax
 80496f5:	0f b6 00             	movzbl (%eax),%eax
 80496f8:	84 c0                	test   %al,%al
 80496fa:	74 47                	je     8049743 <handle_token_lparen+0x303>
 80496fc:	a1 48 9b 05 08       	mov    0x8059b48,%eax
 8049701:	8b 40 7c             	mov    0x7c(%eax),%eax
 8049704:	83 f8 01             	cmp    $0x1,%eax
 8049707:	75 3a                	jne    8049743 <handle_token_lparen+0x303>
test/unit/artifacts/cpp/modifiedFunctionsDetector/indent-2.2.10/indent.c:465
 8049709:	a1 98 99 05 08       	mov    0x8059998,%eax
test/unit/artifacts/cpp/modifiedFunctionsDetector/indent-2.2.10/indent.c:464
 804970e:	85 c0                	test   %eax,%eax
 8049710:	74 31                	je     8049743 <handle_token_lparen+0x303>
test/unit/artifacts/cpp/modifiedFunctionsDetector/indent-2.2.10/indent.c:466
 8049712:	a1 48 9b 05 08       	mov    0x8059b48,%eax
 8049717:	8b 80 88 00 00 00    	mov    0x88(%eax),%eax
 804971d:	0f b7 00             	movzwl (%eax),%eax
 8049720:	98                   	cwtl   
 8049721:	8b 15 e4 99 05 08    	mov    0x80599e4,%edx
 8049727:	01 d2                	add    %edx,%edx
test/unit/artifacts/cpp/modifiedFunctionsDetector/indent-2.2.10/indent.c:464
 8049729:	39 d0                	cmp    %edx,%eax
 804972b:	7d 16                	jge    8049743 <handle_token_lparen+0x303>
test/unit/artifacts/cpp/modifiedFunctionsDetector/indent-2.2.10/indent.c:468
 804972d:	a1 48 9b 05 08       	mov    0x8059b48,%eax
 8049732:	8b 80 88 00 00 00    	mov    0x88(%eax),%eax
 8049738:	8b 15 e4 99 05 08    	mov    0x80599e4,%edx
 804973e:	01 d2                	add    %edx,%edx
 8049740:	66 89 10             	mov    %dx,(%eax)
test/unit/artifacts/cpp/modifiedFunctionsDetector/indent-2.2.10/indent.c:471
 8049743:	a1 48 9b 05 08       	mov    0x8059b48,%eax
 8049748:	c7 80 9c 00 00 00 00 	movl   $0x0,0x9c(%eax)
 804974f:	00 00 00 
test/unit/artifacts/cpp/modifiedFunctionsDetector/indent-2.2.10/indent.c:473
 8049752:	a1 48 9b 05 08       	mov    0x8059b48,%eax
 8049757:	8b 40 4c             	mov    0x4c(%eax),%eax
 804975a:	83 f8 01             	cmp    $0x1,%eax
 804975d:	75 1d                	jne    804977c <handle_token_lparen+0x33c>
 804975f:	a1 c0 9b 05 08       	mov    0x8059bc0,%eax
 8049764:	0f b6 00             	movzbl (%eax),%eax
 8049767:	3c 28                	cmp    $0x28,%al
 8049769:	75 11                	jne    804977c <handle_token_lparen+0x33c>
test/unit/artifacts/cpp/modifiedFunctionsDetector/indent-2.2.10/indent.c:479
 804976b:	e8 fe 8b 00 00       	call   805236e <parse_lparen_in_decl>
test/unit/artifacts/cpp/modifiedFunctionsDetector/indent-2.2.10/indent.c:483
 8049770:	a1 48 9b 05 08       	mov    0x8059b48,%eax
 8049775:	c7 40 4c 00 00 00 00 	movl   $0x0,0x4c(%eax)
test/unit/artifacts/cpp/modifiedFunctionsDetector/indent-2.2.10/indent.c:490
 804977c:	a1 c0 9b 05 08       	mov    0x8059bc0,%eax
 8049781:	0f b6 00             	movzbl (%eax),%eax
 8049784:	3c 28                	cmp    $0x28,%al
 8049786:	0f 85 98 00 00 00    	jne    8049824 <handle_token_lparen+0x3e4>
test/unit/artifacts/cpp/modifiedFunctionsDetector/indent-2.2.10/indent.c:491
 804978c:	a1 b4 99 05 08       	mov    0x80599b4,%eax
test/unit/artifacts/cpp/modifiedFunctionsDetector/indent-2.2.10/indent.c:490
 8049791:	85 c0                	test   %eax,%eax
 8049793:	0f 84 8b 00 00 00    	je     8049824 <handle_token_lparen+0x3e4>
test/unit/artifacts/cpp/modifiedFunctionsDetector/indent-2.2.10/indent.c:492
 8049799:	a1 48 9b 05 08       	mov    0x8059b48,%eax
 804979e:	8b 40 68             	mov    0x68(%eax),%eax
test/unit/artifacts/cpp/modifiedFunctionsDetector/indent-2.2.10/indent.c:490
 80497a1:	85 c0                	test   %eax,%eax
 80497a3:	74 7f                	je     8049824 <handle_token_lparen+0x3e4>
test/unit/artifacts/cpp/modifiedFunctionsDetector/indent-2.2.10/indent.c:493
 80497a5:	a1 48 9b 05 08       	mov    0x8059b48,%eax
 80497aa:	0f b6 40 64          	movzbl 0x64(%eax),%eax
test/unit/artifacts/cpp/modifiedFunctionsDetector/indent-2.2.10/indent.c:490
 80497ae:	84 c0                	test   %al,%al
 80497b0:	74 72                	je     8049824 <handle_token_lparen+0x3e4>
test/unit/artifacts/cpp/modifiedFunctionsDetector/indent-2.2.10/indent.c:494
 80497b2:	a1 48 9b 05 08       	mov    0x8059b48,%eax
 80497b7:	8b 80 84 00 00 00    	mov    0x84(%eax),%eax
test/unit/artifacts/cpp/modifiedFunctionsDetector/indent-2.2.10/indent.c:490
 80497bd:	83 f8 01             	cmp    $0x1,%eax
 80497c0:	75 62                	jne    8049824 <handle_token_lparen+0x3e4>
test/unit/artifacts/cpp/modifiedFunctionsDetector/indent-2.2.10/indent.c:496
 80497c2:	8b 45 14             	mov    0x14(%ebp),%eax
 80497c5:	89 44 24 08          	mov    %eax,0x8(%esp)
 80497c9:	c7 44 24 04 24 99 05 	movl   $0x8059924,0x4(%esp)
 80497d0:	08 
 80497d1:	c7 04 24 01 00 00 00 	movl   $0x1,(%esp)
 80497d8:	e8 95 a9 00 00       	call   8054172 <dump_line>
test/unit/artifacts/cpp/modifiedFunctionsDetector/indent-2.2.10/indent.c:497
 80497dd:	8b 45 08             	mov    0x8(%ebp),%eax
 80497e0:	c6 00 00             	movb   $0x0,(%eax)
test/unit/artifacts/cpp/modifiedFunctionsDetector/indent-2.2.10/indent.c:499
 80497e3:	a1 48 9b 05 08       	mov    0x8059b48,%eax
 80497e8:	8b 90 84 00 00 00    	mov    0x84(%eax),%edx
 80497ee:	a1 e4 99 05 08       	mov    0x80599e4,%eax
 80497f3:	0f af c2             	imul   %edx,%eax
 80497f6:	83 c0 01             	add    $0x1,%eax
 80497f9:	a3 24 99 05 08       	mov    %eax,0x8059924
test/unit/artifacts/cpp/modifiedFunctionsDetector/indent-2.2.10/indent.c:500
 80497fe:	a1 48 9b 05 08       	mov    0x8059b48,%eax
 8049803:	8b 90 88 00 00 00    	mov    0x88(%eax),%edx
 8049809:	a1 48 9b 05 08       	mov    0x8059b48,%eax
 804980e:	8b 40 7c             	mov    0x7c(%eax),%eax
 8049811:	83 e8 01             	sub    $0x1,%eax
 8049814:	01 c0                	add    %eax,%eax
 8049816:	8d 04 02             	lea    (%edx,%eax,1),%eax
 8049819:	8b 15 24 99 05 08    	mov    0x8059924,%edx
 804981f:	f7 da                	neg    %edx
 8049821:	66 89 10             	mov    %dx,(%eax)
test/unit/artifacts/cpp/modifiedFunctionsDetector/indent-2.2.10/indent.c:503
 8049824:	a1 48 9b 05 08       	mov    0x8059b48,%eax
 8049829:	8b 80 a8 00 00 00    	mov    0xa8(%eax),%eax
 804982f:	85 c0                	test   %eax,%eax
 8049831:	74 29                	je     804985c <handle_token_lparen+0x41c>
test/unit/artifacts/cpp/modifiedFunctionsDetector/indent-2.2.10/indent.c:505
 8049833:	a1 48 9b 05 08       	mov    0x8059b48,%eax
 8049838:	8b 15 48 9b 05 08    	mov    0x8059b48,%edx
 804983e:	8b 5a 30             	mov    0x30(%edx),%ebx
 8049841:	8b 15 48 9b 05 08    	mov    0x8059b48,%edx
 8049847:	8b 52 7c             	mov    0x7c(%edx),%edx
 804984a:	be 01 00 00 00       	mov    $0x1,%esi
 804984f:	89 f7                	mov    %esi,%edi
 8049851:	89 d1                	mov    %edx,%ecx
 8049853:	d3 e7                	shl    %cl,%edi
 8049855:	89 fa                	mov    %edi,%edx
 8049857:	09 da                	or     %ebx,%edx
 8049859:	89 50 30             	mov    %edx,0x30(%eax)
test/unit/artifacts/cpp/modifiedFunctionsDetector/indent-2.2.10/indent.c:511
 804985c:	a1 48 9b 05 08       	mov    0x8059b48,%eax
 8049861:	8b 40 04             	mov    0x4(%eax),%eax
 8049864:	83 f8 18             	cmp    $0x18,%eax
 8049867:	74 1a                	je     8049883 <handle_token_lparen+0x443>
test/unit/artifacts/cpp/modifiedFunctionsDetector/indent-2.2.10/indent.c:512
 8049869:	a1 48 9b 05 08       	mov    0x8059b48,%eax
 804986e:	8b 40 04             	mov    0x4(%eax),%eax
test/unit/artifacts/cpp/modifiedFunctionsDetector/indent-2.2.10/indent.c:511
 8049871:	83 f8 0f             	cmp    $0xf,%eax
 8049874:	75 38                	jne    80498ae <handle_token_lparen+0x46e>
test/unit/artifacts/cpp/modifiedFunctionsDetector/indent-2.2.10/indent.c:513
 8049876:	a1 48 9b 05 08       	mov    0x8059b48,%eax
 804987b:	8b 40 14             	mov    0x14(%eax),%eax
test/unit/artifacts/cpp/modifiedFunctionsDetector/indent-2.2.10/indent.c:511
 804987e:	83 f8 0c             	cmp    $0xc,%eax
 8049881:	74 2b                	je     80498ae <handle_token_lparen+0x46e>
test/unit/artifacts/cpp/modifiedFunctionsDetector/indent-2.2.10/indent.c:515
 8049883:	a1 48 9b 05 08       	mov    0x8059b48,%eax
 8049888:	8b 15 48 9b 05 08    	mov    0x8059b48,%edx
 804988e:	8b 5a 2c             	mov    0x2c(%edx),%ebx
test/unit/artifacts/cpp/modifiedFunctionsDetector/indent-2.2.10/indent.c:516
 8049891:	8b 15 48 9b 05 08    	mov    0x8059b48,%edx
 8049897:	8b 52 7c             	mov    0x7c(%edx),%edx
 804989a:	be 01 00 00 00       	mov    $0x1,%esi
 804989f:	89 f7                	mov    %esi,%edi
 80498a1:	89 d1                	mov    %edx,%ecx
 80498a3:	d3 e7                	shl    %cl,%edi
 80498a5:	89 fa                	mov    %edi,%edx
test/unit/artifacts/cpp/modifiedFunctionsDetector/indent-2.2.10/indent.c:515
 80498a7:	09 da                	or     %ebx,%edx
 80498a9:	89 50 2c             	mov    %edx,0x2c(%eax)
test/unit/artifacts/cpp/modifiedFunctionsDetector/indent-2.2.10/indent.c:511
 80498ac:	eb 2b                	jmp    80498d9 <handle_token_lparen+0x499>
test/unit/artifacts/cpp/modifiedFunctionsDetector/indent-2.2.10/indent.c:520
 80498ae:	a1 48 9b 05 08       	mov    0x8059b48,%eax
 80498b3:	8b 15 48 9b 05 08    	mov    0x8059b48,%edx
 80498b9:	8b 5a 2c             	mov    0x2c(%edx),%ebx
test/unit/artifacts/cpp/modifiedFunctionsDetector/indent-2.2.10/indent.c:521
 80498bc:	8b 15 48 9b 05 08    	mov    0x8059b48,%edx
 80498c2:	8b 52 7c             	mov    0x7c(%edx),%edx
 80498c5:	be 01 00 00 00       	mov    $0x1,%esi
 80498ca:	89 f7                	mov    %esi,%edi
 80498cc:	89 d1                	mov    %edx,%ecx
 80498ce:	d3 e7                	shl    %cl,%edi
 80498d0:	89 fa                	mov    %edi,%edx
 80498d2:	f7 d2                	not    %edx
test/unit/artifacts/cpp/modifiedFunctionsDetector/indent-2.2.10/indent.c:520
 80498d4:	21 da                	and    %ebx,%edx
 80498d6:	89 50 2c             	mov    %edx,0x2c(%eax)
test/unit/artifacts/cpp/modifiedFunctionsDetector/indent-2.2.10/indent.c:523
 80498d9:	83 c4 1c             	add    $0x1c,%esp
 80498dc:	5b                   	pop    %ebx
 80498dd:	5e                   	pop    %esi
 80498de:	5f                   	pop    %edi
 80498df:	5d                   	pop    %ebp
 80498e0:	c3                   	ret    

080498e1 <handle_token_rparen>:
handle_token_rparen():
test/unit/artifacts/cpp/modifiedFunctionsDetector/indent-2.2.10/indent.c:536
 80498e1:	55                   	push   %ebp
 80498e2:	89 e5                	mov    %esp,%ebp
 80498e4:	57                   	push   %edi
 80498e5:	56                   	push   %esi
 80498e6:	53                   	push   %ebx
 80498e7:	83 ec 2c             	sub    $0x2c,%esp
test/unit/artifacts/cpp/modifiedFunctionsDetector/indent-2.2.10/indent.c:538
 80498ea:	a1 48 9b 05 08       	mov    0x8059b48,%eax
 80498ef:	8b 90 84 00 00 00    	mov    0x84(%eax),%edx
 80498f5:	83 ea 01             	sub    $0x1,%edx
 80498f8:	89 90 84 00 00 00    	mov    %edx,0x84(%eax)
test/unit/artifacts/cpp/modifiedFunctionsDetector/indent-2.2.10/indent.c:544
 80498fe:	a1 c0 9b 05 08       	mov    0x8059bc0,%eax
 8049903:	0f b6 00             	movzbl (%eax),%eax
 8049906:	3c 29                	cmp    $0x29,%al
 8049908:	0f 85 df 00 00 00    	jne    80499ed <handle_token_rparen+0x10c>
test/unit/artifacts/cpp/modifiedFunctionsDetector/indent-2.2.10/indent.c:545
 804990e:	a1 b8 99 05 08       	mov    0x80599b8,%eax
test/unit/artifacts/cpp/modifiedFunctionsDetector/indent-2.2.10/indent.c:544
 8049913:	85 c0                	test   %eax,%eax
 8049915:	0f 84 d2 00 00 00    	je     80499ed <handle_token_rparen+0x10c>
test/unit/artifacts/cpp/modifiedFunctionsDetector/indent-2.2.10/indent.c:546
 804991b:	a1 48 9b 05 08       	mov    0x8059b48,%eax
 8049920:	8b 40 4c             	mov    0x4c(%eax),%eax
test/unit/artifacts/cpp/modifiedFunctionsDetector/indent-2.2.10/indent.c:544
 8049923:	85 c0                	test   %eax,%eax
 8049925:	0f 85 c2 00 00 00    	jne    80499ed <handle_token_rparen+0x10c>
test/unit/artifacts/cpp/modifiedFunctionsDetector/indent-2.2.10/indent.c:547
 804992b:	a1 48 9b 05 08       	mov    0x8059b48,%eax
 8049930:	8b 40 68             	mov    0x68(%eax),%eax
test/unit/artifacts/cpp/modifiedFunctionsDetector/indent-2.2.10/indent.c:544
 8049933:	85 c0                	test   %eax,%eax
 8049935:	0f 84 b2 00 00 00    	je     80499ed <handle_token_rparen+0x10c>
test/unit/artifacts/cpp/modifiedFunctionsDetector/indent-2.2.10/indent.c:548
 804993b:	a1 48 9b 05 08       	mov    0x8059b48,%eax
 8049940:	0f b6 40 64          	movzbl 0x64(%eax),%eax
test/unit/artifacts/cpp/modifiedFunctionsDetector/indent-2.2.10/indent.c:544
 8049944:	84 c0                	test   %al,%al
 8049946:	0f 84 a1 00 00 00    	je     80499ed <handle_token_rparen+0x10c>
test/unit/artifacts/cpp/modifiedFunctionsDetector/indent-2.2.10/indent.c:549
 804994c:	a1 48 9b 05 08       	mov    0x8059b48,%eax
 8049951:	8b 80 84 00 00 00    	mov    0x84(%eax),%eax
test/unit/artifacts/cpp/modifiedFunctionsDetector/indent-2.2.10/indent.c:544
 8049957:	85 c0                	test   %eax,%eax
 8049959:	0f 85 8e 00 00 00    	jne    80499ed <handle_token_rparen+0x10c>
test/unit/artifacts/cpp/modifiedFunctionsDetector/indent-2.2.10/indent.c:551
 804995f:	8b 15 c0 98 05 08    	mov    0x80598c0,%edx
 8049965:	a1 c4 98 05 08       	mov    0x80598c4,%eax
 804996a:	39 c2                	cmp    %eax,%edx
 804996c:	75 1e                	jne    804998c <handle_token_rparen+0xab>
 804996e:	8b 15 b0 98 05 08    	mov    0x80598b0,%edx
 8049974:	a1 b4 98 05 08       	mov    0x80598b4,%eax
 8049979:	39 c2                	cmp    %eax,%edx
 804997b:	75 0f                	jne    804998c <handle_token_rparen+0xab>
 804997d:	8b 15 d0 98 05 08    	mov    0x80598d0,%edx
 8049983:	a1 d4 98 05 08       	mov    0x80598d4,%eax
 8049988:	39 c2                	cmp    %eax,%edx
 804998a:	74 1b                	je     80499a7 <handle_token_rparen+0xc6>
test/unit/artifacts/cpp/modifiedFunctionsDetector/indent-2.2.10/indent.c:553
 804998c:	8b 45 1c             	mov    0x1c(%ebp),%eax
 804998f:	89 44 24 08          	mov    %eax,0x8(%esp)
 8049993:	c7 44 24 04 24 99 05 	movl   $0x8059924,0x4(%esp)
 804999a:	08 
 804999b:	c7 04 24 01 00 00 00 	movl   $0x1,(%esp)
 80499a2:	e8 cb a7 00 00       	call   8054172 <dump_line>
test/unit/artifacts/cpp/modifiedFunctionsDetector/indent-2.2.10/indent.c:556
 80499a7:	a1 48 9b 05 08       	mov    0x8059b48,%eax
 80499ac:	8b 90 84 00 00 00    	mov    0x84(%eax),%edx
 80499b2:	a1 e4 99 05 08       	mov    0x80599e4,%eax
 80499b7:	0f af c2             	imul   %edx,%eax
 80499ba:	a3 24 99 05 08       	mov    %eax,0x8059924
test/unit/artifacts/cpp/modifiedFunctionsDetector/indent-2.2.10/indent.c:557
 80499bf:	a1 48 9b 05 08       	mov    0x8059b48,%eax
 80499c4:	8b 90 88 00 00 00    	mov    0x88(%eax),%edx
 80499ca:	a1 48 9b 05 08       	mov    0x8059b48,%eax
 80499cf:	8b 40 7c             	mov    0x7c(%eax),%eax
 80499d2:	83 e8 01             	sub    $0x1,%eax
 80499d5:	01 c0                	add    %eax,%eax
 80499d7:	01 c2                	add    %eax,%edx
 80499d9:	a1 24 99 05 08       	mov    0x8059924,%eax
 80499de:	66 89 02             	mov    %ax,(%edx)
test/unit/artifacts/cpp/modifiedFunctionsDetector/indent-2.2.10/indent.c:558
 80499e1:	a1 48 9b 05 08       	mov    0x8059b48,%eax
 80499e6:	c7 40 74 00 00 00 00 	movl   $0x0,0x74(%eax)
test/unit/artifacts/cpp/modifiedFunctionsDetector/indent-2.2.10/indent.c:562
 80499ed:	a1 48 9b 05 08       	mov    0x8059b48,%eax
test/unit/artifacts/cpp/modifiedFunctionsDetector/indent-2.2.10/indent.c:564
 80499f2:	8b 50 28             	mov    0x28(%eax),%edx
test/unit/artifacts/cpp/modifiedFunctionsDetector/indent-2.2.10/indent.c:563
 80499f5:	a1 48 9b 05 08       	mov    0x8059b48,%eax
 80499fa:	8b 40 7c             	mov    0x7c(%eax),%eax
 80499fd:	bb 01 00 00 00       	mov    $0x1,%ebx
 8049a02:	89 de                	mov    %ebx,%esi
 8049a04:	89 c1                	mov    %eax,%ecx
 8049a06:	d3 e6                	shl    %cl,%esi
 8049a08:	89 f0                	mov    %esi,%eax
test/unit/artifacts/cpp/modifiedFunctionsDetector/indent-2.2.10/indent.c:564
 8049a0a:	21 c2                	and    %eax,%edx
 8049a0c:	a1 48 9b 05 08       	mov    0x8059b48,%eax
 8049a11:	8b 40 30             	mov    0x30(%eax),%eax
 8049a14:	f7 d0                	not    %eax
test/unit/artifacts/cpp/modifiedFunctionsDetector/indent-2.2.10/indent.c:562
 8049a16:	21 d0                	and    %edx,%eax
 8049a18:	85 c0                	test   %eax,%eax
 8049a1a:	74 7f                	je     8049a9b <handle_token_rparen+0x1ba>
test/unit/artifacts/cpp/modifiedFunctionsDetector/indent-2.2.10/indent.c:566
 8049a1c:	a1 48 9b 05 08       	mov    0x8059b48,%eax
 8049a21:	c7 40 78 01 00 00 00 	movl   $0x1,0x78(%eax)
test/unit/artifacts/cpp/modifiedFunctionsDetector/indent-2.2.10/indent.c:567
 8049a28:	a1 48 9b 05 08       	mov    0x8059b48,%eax
 8049a2d:	8b 15 48 9b 05 08    	mov    0x8059b48,%edx
 8049a33:	8b 5a 28             	mov    0x28(%edx),%ebx
test/unit/artifacts/cpp/modifiedFunctionsDetector/indent-2.2.10/indent.c:568
 8049a36:	8b 15 48 9b 05 08    	mov    0x8059b48,%edx
 8049a3c:	8b 52 7c             	mov    0x7c(%edx),%edx
 8049a3f:	be 01 00 00 00       	mov    $0x1,%esi
 8049a44:	89 f7                	mov    %esi,%edi
 8049a46:	89 d1                	mov    %edx,%ecx
 8049a48:	d3 e7                	shl    %cl,%edi
 8049a4a:	89 fa                	mov    %edi,%edx
 8049a4c:	83 ea 01             	sub    $0x1,%edx
test/unit/artifacts/cpp/modifiedFunctionsDetector/indent-2.2.10/indent.c:567
 8049a4f:	21 da                	and    %ebx,%edx
 8049a51:	89 50 28             	mov    %edx,0x28(%eax)
test/unit/artifacts/cpp/modifiedFunctionsDetector/indent-2.2.10/indent.c:569
 8049a54:	a1 48 9b 05 08       	mov    0x8059b48,%eax
 8049a59:	8b 40 28             	mov    0x28(%eax),%eax
 8049a5c:	85 c0                	test   %eax,%eax
 8049a5e:	75 1b                	jne    8049a7b <handle_token_rparen+0x19a>
 8049a60:	a1 a0 99 05 08       	mov    0x80599a0,%eax
 8049a65:	85 c0                	test   %eax,%eax
 8049a67:	74 12                	je     8049a7b <handle_token_rparen+0x19a>
test/unit/artifacts/cpp/modifiedFunctionsDetector/indent-2.2.10/indent.c:571
 8049a69:	a1 48 9b 05 08       	mov    0x8059b48,%eax
 8049a6e:	c7 80 9c 00 00 00 01 	movl   $0x1,0x9c(%eax)
 8049a75:	00 00 00 
test/unit/artifacts/cpp/modifiedFunctionsDetector/indent-2.2.10/indent.c:569
 8049a78:	90                   	nop
 8049a79:	eb 57                	jmp    8049ad2 <handle_token_rparen+0x1f1>
test/unit/artifacts/cpp/modifiedFunctionsDetector/indent-2.2.10/indent.c:575
 8049a7b:	a1 48 9b 05 08       	mov    0x8059b48,%eax
 8049a80:	c7 80 9c 00 00 00 00 	movl   $0x0,0x9c(%eax)
 8049a87:	00 00 00 
test/unit/artifacts/cpp/modifiedFunctionsDetector/indent-2.2.10/indent.c:576
 8049a8a:	a1 48 9b 05 08       	mov    0x8059b48,%eax
 8049a8f:	c7 80 a0 00 00 00 1c 	movl   $0x1c,0xa0(%eax)
 8049a96:	00 00 00 
 8049a99:	eb 37                	jmp    8049ad2 <handle_token_rparen+0x1f1>
test/unit/artifacts/cpp/modifiedFunctionsDetector/indent-2.2.10/indent.c:579
 8049a9b:	a1 48 9b 05 08       	mov    0x8059b48,%eax
 8049aa0:	0f b6 40 64          	movzbl 0x64(%eax),%eax
 8049aa4:	84 c0                	test   %al,%al
 8049aa6:	74 2a                	je     8049ad2 <handle_token_rparen+0x1f1>
test/unit/artifacts/cpp/modifiedFunctionsDetector/indent-2.2.10/indent.c:580
 8049aa8:	a1 48 9b 05 08       	mov    0x8059b48,%eax
 8049aad:	8b 40 34             	mov    0x34(%eax),%eax
test/unit/artifacts/cpp/modifiedFunctionsDetector/indent-2.2.10/indent.c:579
 8049ab0:	85 c0                	test   %eax,%eax
 8049ab2:	75 1e                	jne    8049ad2 <handle_token_rparen+0x1f1>
test/unit/artifacts/cpp/modifiedFunctionsDetector/indent-2.2.10/indent.c:581
 8049ab4:	a1 48 9b 05 08       	mov    0x8059b48,%eax
 8049ab9:	8b 80 84 00 00 00    	mov    0x84(%eax),%eax
test/unit/artifacts/cpp/modifiedFunctionsDetector/indent-2.2.10/indent.c:579
 8049abf:	85 c0                	test   %eax,%eax
 8049ac1:	75 0f                	jne    8049ad2 <handle_token_rparen+0x1f1>
test/unit/artifacts/cpp/modifiedFunctionsDetector/indent-2.2.10/indent.c:583
 8049ac3:	a1 48 9b 05 08       	mov    0x8059b48,%eax
 8049ac8:	c7 80 9c 00 00 00 01 	movl   $0x1,0x9c(%eax)
 8049acf:	00 00 00 
test/unit/artifacts/cpp/modifiedFunctionsDetector/indent-2.2.10/indent.c:590
 8049ad2:	a1 48 9b 05 08       	mov    0x8059b48,%eax
 8049ad7:	8b 15 48 9b 05 08    	mov    0x8059b48,%edx
 8049add:	8b 5a 30             	mov    0x30(%edx),%ebx
test/unit/artifacts/cpp/modifiedFunctionsDetector/indent-2.2.10/indent.c:591
 8049ae0:	8b 15 48 9b 05 08    	mov    0x8059b48,%edx
 8049ae6:	8b 52 7c             	mov    0x7c(%edx),%edx
 8049ae9:	be 01 00 00 00       	mov    $0x1,%esi
 8049aee:	89 f7                	mov    %esi,%edi
 8049af0:	89 d1                	mov    %edx,%ecx
 8049af2:	d3 e7                	shl    %cl,%edi
 8049af4:	89 fa                	mov    %edi,%edx
 8049af6:	83 ea 01             	sub    $0x1,%edx
test/unit/artifacts/cpp/modifiedFunctionsDetector/indent-2.2.10/indent.c:590
 8049af9:	21 da                	and    %ebx,%edx
 8049afb:	89 50 30             	mov    %edx,0x30(%eax)
test/unit/artifacts/cpp/modifiedFunctionsDetector/indent-2.2.10/indent.c:593
 8049afe:	a1 48 9b 05 08       	mov    0x8059b48,%eax
 8049b03:	8b 50 7c             	mov    0x7c(%eax),%edx
 8049b06:	83 ea 01             	sub    $0x1,%edx
 8049b09:	89 50 7c             	mov    %edx,0x7c(%eax)
 8049b0c:	8b 40 7c             	mov    0x7c(%eax),%eax
 8049b0f:	85 c0                	test   %eax,%eax
 8049b11:	79 4b                	jns    8049b5e <handle_token_rparen+0x27d>
test/unit/artifacts/cpp/modifiedFunctionsDetector/indent-2.2.10/indent.c:595
 8049b13:	a1 48 9b 05 08       	mov    0x8059b48,%eax
 8049b18:	c7 40 7c 00 00 00 00 	movl   $0x0,0x7c(%eax)
test/unit/artifacts/cpp/modifiedFunctionsDetector/indent-2.2.10/indent.c:596
 8049b1f:	a1 c0 9b 05 08       	mov    0x8059bc0,%eax
 8049b24:	0f b6 00             	movzbl (%eax),%eax
 8049b27:	0f b6 c0             	movzbl %al,%eax
 8049b2a:	89 c6                	mov    %eax,%esi
 8049b2c:	c7 04 24 13 50 05 08 	movl   $0x8055013,(%esp)
 8049b33:	e8 64 f0 ff ff       	call   8048b9c <gettext@plt>
 8049b38:	89 c3                	mov    %eax,%ebx
 8049b3a:	c7 04 24 1c 50 05 08 	movl   $0x805501c,(%esp)
 8049b41:	e8 56 f0 ff ff       	call   8048b9c <gettext@plt>
 8049b46:	c7 44 24 0c 00 00 00 	movl   $0x0,0xc(%esp)
 8049b4d:	00 
 8049b4e:	89 74 24 08          	mov    %esi,0x8(%esp)
 8049b52:	89 5c 24 04          	mov    %ebx,0x4(%esp)
 8049b56:	89 04 24             	mov    %eax,(%esp)
 8049b59:	e8 01 89 00 00       	call   805245f <message>
test/unit/artifacts/cpp/modifiedFunctionsDetector/indent-2.2.10/indent.c:602
 8049b5e:	8b 15 c4 98 05 08    	mov    0x80598c4,%edx
 8049b64:	a1 c0 98 05 08       	mov    0x80598c0,%eax
 8049b69:	39 c2                	cmp    %eax,%edx
 8049b6b:	75 4b                	jne    8049bb8 <handle_token_rparen+0x2d7>
test/unit/artifacts/cpp/modifiedFunctionsDetector/indent-2.2.10/indent.c:604
 8049b6d:	a1 48 9b 05 08       	mov    0x8059b48,%eax
 8049b72:	8b 40 7c             	mov    0x7c(%eax),%eax
 8049b75:	89 45 e4             	mov    %eax,-0x1c(%ebp)
test/unit/artifacts/cpp/modifiedFunctionsDetector/indent-2.2.10/indent.c:606
 8049b78:	a1 48 9b 05 08       	mov    0x8059b48,%eax
 8049b7d:	8b 55 e4             	mov    -0x1c(%ebp),%edx
 8049b80:	89 90 80 00 00 00    	mov    %edx,0x80(%eax)
test/unit/artifacts/cpp/modifiedFunctionsDetector/indent-2.2.10/indent.c:607
 8049b86:	83 7d e4 00          	cmpl   $0x0,-0x1c(%ebp)
 8049b8a:	7e 22                	jle    8049bae <handle_token_rparen+0x2cd>
test/unit/artifacts/cpp/modifiedFunctionsDetector/indent-2.2.10/indent.c:609
 8049b8c:	a1 48 9b 05 08       	mov    0x8059b48,%eax
 8049b91:	8b 80 88 00 00 00    	mov    0x88(%eax),%eax
 8049b97:	8b 55 e4             	mov    -0x1c(%ebp),%edx
 8049b9a:	83 ea 01             	sub    $0x1,%edx
 8049b9d:	01 d2                	add    %edx,%edx
 8049b9f:	01 d0                	add    %edx,%eax
 8049ba1:	0f b7 00             	movzwl (%eax),%eax
 8049ba4:	98                   	cwtl   
 8049ba5:	f7 d8                	neg    %eax
 8049ba7:	a3 24 99 05 08       	mov    %eax,0x8059924
 8049bac:	eb 0a                	jmp    8049bb8 <handle_token_rparen+0x2d7>
test/unit/artifacts/cpp/modifiedFunctionsDetector/indent-2.2.10/indent.c:613
 8049bae:	c7 05 24 99 05 08 00 	movl   $0x0,0x8059924
 8049bb5:	00 00 00 
test/unit/artifacts/cpp/modifiedFunctionsDetector/indent-2.2.10/indent.c:617
 8049bb8:	a1 70 99 05 08       	mov    0x8059970,%eax
 8049bbd:	85 c0                	test   %eax,%eax
 8049bbf:	74 1c                	je     8049bdd <handle_token_rparen+0x2fc>
 8049bc1:	a1 c0 9b 05 08       	mov    0x8059bc0,%eax
 8049bc6:	0f b6 00             	movzbl (%eax),%eax
 8049bc9:	3c 5d                	cmp    $0x5d,%al
 8049bcb:	74 10                	je     8049bdd <handle_token_rparen+0x2fc>
test/unit/artifacts/cpp/modifiedFunctionsDetector/indent-2.2.10/indent.c:619
 8049bcd:	a1 c4 98 05 08       	mov    0x80598c4,%eax
 8049bd2:	c6 00 20             	movb   $0x20,(%eax)
 8049bd5:	83 c0 01             	add    $0x1,%eax
 8049bd8:	a3 c4 98 05 08       	mov    %eax,0x80598c4
test/unit/artifacts/cpp/modifiedFunctionsDetector/indent-2.2.10/indent.c:622
 8049bdd:	a1 c4 98 05 08       	mov    0x80598c4,%eax
 8049be2:	8b 15 c0 9b 05 08    	mov    0x8059bc0,%edx
 8049be8:	0f b6 12             	movzbl (%edx),%edx
 8049beb:	88 10                	mov    %dl,(%eax)
 8049bed:	83 c0 01             	add    $0x1,%eax
 8049bf0:	a3 c4 98 05 08       	mov    %eax,0x80598c4
test/unit/artifacts/cpp/modifiedFunctionsDetector/indent-2.2.10/indent.c:626
 8049bf5:	8b 45 0c             	mov    0xc(%ebp),%eax
 8049bf8:	0f b6 00             	movzbl (%eax),%eax
 8049bfb:	84 c0                	test   %al,%al
 8049bfd:	74 6d                	je     8049c6c <handle_token_rparen+0x38b>
 8049bff:	a1 48 9b 05 08       	mov    0x8059b48,%eax
 8049c04:	8b 40 7c             	mov    0x7c(%eax),%eax
 8049c07:	85 c0                	test   %eax,%eax
 8049c09:	75 61                	jne    8049c6c <handle_token_rparen+0x38b>
test/unit/artifacts/cpp/modifiedFunctionsDetector/indent-2.2.10/indent.c:634
 8049c0b:	a1 48 9b 05 08       	mov    0x8059b48,%eax
 8049c10:	8b 50 08             	mov    0x8(%eax),%edx
 8049c13:	a1 48 9b 05 08       	mov    0x8059b48,%eax
 8049c18:	8b 40 20             	mov    0x20(%eax),%eax
 8049c1b:	c1 e0 02             	shl    $0x2,%eax
 8049c1e:	8d 04 02             	lea    (%edx,%eax,1),%eax
 8049c21:	8b 00                	mov    (%eax),%eax
 8049c23:	83 f8 24             	cmp    $0x24,%eax
 8049c26:	74 06                	je     8049c2e <handle_token_rparen+0x34d>
test/unit/artifacts/cpp/modifiedFunctionsDetector/indent-2.2.10/indent.c:636
 8049c28:	8b 45 14             	mov    0x14(%ebp),%eax
 8049c2b:	c6 00 02             	movb   $0x2,(%eax)
test/unit/artifacts/cpp/modifiedFunctionsDetector/indent-2.2.10/indent.c:639
 8049c2e:	8b 45 0c             	mov    0xc(%ebp),%eax
 8049c31:	c6 00 00             	movb   $0x0,(%eax)
test/unit/artifacts/cpp/modifiedFunctionsDetector/indent-2.2.10/indent.c:640
 8049c34:	8b 45 08             	mov    0x8(%ebp),%eax
 8049c37:	c6 00 01             	movb   $0x1,(%eax)
test/unit/artifacts/cpp/modifiedFunctionsDetector/indent-2.2.10/indent.c:641
 8049c3a:	a1 48 9b 05 08       	mov    0x8059b48,%eax
 8049c3f:	c7 40 78 01 00 00 00 	movl   $0x1,0x78(%eax)
test/unit/artifacts/cpp/modifiedFunctionsDetector/indent-2.2.10/indent.c:644
 8049c46:	a1 48 9b 05 08       	mov    0x8059b48,%eax
 8049c4b:	c7 40 68 00 00 00 00 	movl   $0x0,0x68(%eax)
test/unit/artifacts/cpp/modifiedFunctionsDetector/indent-2.2.10/indent.c:648
 8049c52:	8b 45 10             	mov    0x10(%ebp),%eax
 8049c55:	8b 00                	mov    (%eax),%eax
 8049c57:	89 04 24             	mov    %eax,(%esp)
 8049c5a:	e8 d0 7b 00 00       	call   805182f <parse>
 8049c5f:	85 c0                	test   %eax,%eax
 8049c61:	74 09                	je     8049c6c <handle_token_rparen+0x38b>
test/unit/artifacts/cpp/modifiedFunctionsDetector/indent-2.2.10/indent.c:650
 8049c63:	8b 45 18             	mov    0x18(%ebp),%eax
 8049c66:	c7 00 02 00 00 00    	movl   $0x2,(%eax)
test/unit/artifacts/cpp/modifiedFunctionsDetector/indent-2.2.10/indent.c:658
 8049c6c:	a1 48 9b 05 08       	mov    0x8059b48,%eax
 8049c71:	8b 15 18 9a 05 08    	mov    0x8059a18,%edx
 8049c77:	89 90 94 00 00 00    	mov    %edx,0x94(%eax)
test/unit/artifacts/cpp/modifiedFunctionsDetector/indent-2.2.10/indent.c:659
 8049c7d:	83 c4 2c             	add    $0x2c,%esp
 8049c80:	5b                   	pop    %ebx
 8049c81:	5e                   	pop    %esi
 8049c82:	5f                   	pop    %edi
 8049c83:	5d                   	pop    %ebp
 8049c84:	c3                   	ret    

08049c85 <handle_token_unary_op>:
handle_token_unary_op():
test/unit/artifacts/cpp/modifiedFunctionsDetector/indent-2.2.10/indent.c:668
 8049c85:	55                   	push   %ebp
 8049c86:	89 e5                	mov    %esp,%ebp
 8049c88:	56                   	push   %esi
 8049c89:	53                   	push   %ebx
 8049c8a:	83 ec 20             	sub    $0x20,%esp
test/unit/artifacts/cpp/modifiedFunctionsDetector/indent-2.2.10/indent.c:671
 8049c8d:	a1 48 9b 05 08       	mov    0x8059b48,%eax
 8049c92:	8b 80 9c 00 00 00    	mov    0x9c(%eax),%eax
 8049c98:	85 c0                	test   %eax,%eax
 8049c9a:	74 2f                	je     8049ccb <handle_token_unary_op+0x46>
test/unit/artifacts/cpp/modifiedFunctionsDetector/indent-2.2.10/indent.c:673
 8049c9c:	a1 24 99 05 08       	mov    0x8059924,%eax
 8049ca1:	89 44 24 04          	mov    %eax,0x4(%esp)
 8049ca5:	c7 04 24 06 00 00 00 	movl   $0x6,(%esp)
 8049cac:	e8 12 92 00 00       	call   8052ec3 <set_buf_break>
test/unit/artifacts/cpp/modifiedFunctionsDetector/indent-2.2.10/indent.c:674
 8049cb1:	a1 c4 98 05 08       	mov    0x80598c4,%eax
 8049cb6:	c6 00 20             	movb   $0x20,(%eax)
 8049cb9:	83 c0 01             	add    $0x1,%eax
 8049cbc:	a3 c4 98 05 08       	mov    %eax,0x80598c4
test/unit/artifacts/cpp/modifiedFunctionsDetector/indent-2.2.10/indent.c:675
 8049cc1:	a1 c4 98 05 08       	mov    0x80598c4,%eax
 8049cc6:	c6 00 00             	movb   $0x0,(%eax)
 8049cc9:	eb 1a                	jmp    8049ce5 <handle_token_unary_op+0x60>
test/unit/artifacts/cpp/modifiedFunctionsDetector/indent-2.2.10/indent.c:677
 8049ccb:	83 7d 0c 00          	cmpl   $0x0,0xc(%ebp)
 8049ccf:	74 14                	je     8049ce5 <handle_token_unary_op+0x60>
test/unit/artifacts/cpp/modifiedFunctionsDetector/indent-2.2.10/indent.c:679
 8049cd1:	a1 24 99 05 08       	mov    0x8059924,%eax
 8049cd6:	89 44 24 04          	mov    %eax,0x4(%esp)
 8049cda:	8b 45 0c             	mov    0xc(%ebp),%eax
 8049cdd:	89 04 24             	mov    %eax,(%esp)
 8049ce0:	e8 de 91 00 00       	call   8052ec3 <set_buf_break>
test/unit/artifacts/cpp/modifiedFunctionsDetector/indent-2.2.10/indent.c:687
 8049ce5:	a1 c0 9b 05 08       	mov    0x8059bc0,%eax
 8049cea:	89 45 f0             	mov    %eax,-0x10(%ebp)
test/unit/artifacts/cpp/modifiedFunctionsDetector/indent-2.2.10/indent.c:688
 8049ced:	a1 c4 9b 05 08       	mov    0x8059bc4,%eax
 8049cf2:	89 45 ec             	mov    %eax,-0x14(%ebp)
test/unit/artifacts/cpp/modifiedFunctionsDetector/indent-2.2.10/indent.c:693
 8049cf5:	a1 48 9b 05 08       	mov    0x8059b48,%eax
 8049cfa:	8b 80 84 00 00 00    	mov    0x84(%eax),%eax
 8049d00:	85 c0                	test   %eax,%eax
 8049d02:	0f 85 89 00 00 00    	jne    8049d91 <handle_token_unary_op+0x10c>
test/unit/artifacts/cpp/modifiedFunctionsDetector/indent-2.2.10/indent.c:694
 8049d08:	a1 48 9b 05 08       	mov    0x8059b48,%eax
 8049d0d:	0f b6 40 64          	movzbl 0x64(%eax),%eax
test/unit/artifacts/cpp/modifiedFunctionsDetector/indent-2.2.10/indent.c:693
 8049d11:	84 c0                	test   %al,%al
 8049d13:	74 7c                	je     8049d91 <handle_token_unary_op+0x10c>
test/unit/artifacts/cpp/modifiedFunctionsDetector/indent-2.2.10/indent.c:694
 8049d15:	a1 88 9b 05 08       	mov    0x8059b88,%eax
test/unit/artifacts/cpp/modifiedFunctionsDetector/indent-2.2.10/indent.c:693
 8049d1a:	85 c0                	test   %eax,%eax
 8049d1c:	75 73                	jne    8049d91 <handle_token_unary_op+0x10c>
test/unit/artifacts/cpp/modifiedFunctionsDetector/indent-2.2.10/indent.c:695
 8049d1e:	a1 48 9b 05 08       	mov    0x8059b48,%eax
 8049d23:	8b 40 34             	mov    0x34(%eax),%eax
test/unit/artifacts/cpp/modifiedFunctionsDetector/indent-2.2.10/indent.c:693
 8049d26:	85 c0                	test   %eax,%eax
 8049d28:	75 67                	jne    8049d91 <handle_token_unary_op+0x10c>
test/unit/artifacts/cpp/modifiedFunctionsDetector/indent-2.2.10/indent.c:697
 8049d2a:	eb 2a                	jmp    8049d56 <handle_token_unary_op+0xd1>
test/unit/artifacts/cpp/modifiedFunctionsDetector/indent-2.2.10/indent.c:699
 8049d2c:	e8 23 f1 ff ff       	call   8048e54 <check_code_size>
test/unit/artifacts/cpp/modifiedFunctionsDetector/indent-2.2.10/indent.c:700
 8049d31:	a1 24 99 05 08       	mov    0x8059924,%eax
 8049d36:	89 44 24 04          	mov    %eax,0x4(%esp)
 8049d3a:	c7 04 24 05 00 00 00 	movl   $0x5,(%esp)
 8049d41:	e8 7d 91 00 00       	call   8052ec3 <set_buf_break>
test/unit/artifacts/cpp/modifiedFunctionsDetector/indent-2.2.10/indent.c:701
 8049d46:	a1 c4 98 05 08       	mov    0x80598c4,%eax
 8049d4b:	c6 00 20             	movb   $0x20,(%eax)
 8049d4e:	83 c0 01             	add    $0x1,%eax
 8049d51:	a3 c4 98 05 08       	mov    %eax,0x80598c4
test/unit/artifacts/cpp/modifiedFunctionsDetector/indent-2.2.10/indent.c:697
 8049d56:	a1 c4 98 05 08       	mov    0x80598c4,%eax
 8049d5b:	89 c2                	mov    %eax,%edx
 8049d5d:	a1 c0 98 05 08       	mov    0x80598c0,%eax
 8049d62:	89 d3                	mov    %edx,%ebx
 8049d64:	29 c3                	sub    %eax,%ebx
 8049d66:	8b 45 08             	mov    0x8(%ebp),%eax
 8049d69:	8b 00                	mov    (%eax),%eax
 8049d6b:	8b 15 c0 9b 05 08    	mov    0x8059bc0,%edx
 8049d71:	89 d1                	mov    %edx,%ecx
 8049d73:	8b 15 c4 9b 05 08    	mov    0x8059bc4,%edx
 8049d79:	89 ce                	mov    %ecx,%esi
 8049d7b:	29 d6                	sub    %edx,%esi
 8049d7d:	89 f2                	mov    %esi,%edx
 8049d7f:	01 d0                	add    %edx,%eax
 8049d81:	39 c3                	cmp    %eax,%ebx
 8049d83:	7c a7                	jl     8049d2c <handle_token_unary_op+0xa7>
test/unit/artifacts/cpp/modifiedFunctionsDetector/indent-2.2.10/indent.c:704
 8049d85:	a1 48 9b 05 08       	mov    0x8059b48,%eax
 8049d8a:	c7 40 74 00 00 00 00 	movl   $0x0,0x74(%eax)
test/unit/artifacts/cpp/modifiedFunctionsDetector/indent-2.2.10/indent.c:707
 8049d91:	8b 45 f0             	mov    -0x10(%ebp),%eax
 8049d94:	89 45 f4             	mov    %eax,-0xc(%ebp)
 8049d97:	eb 1e                	jmp    8049db7 <handle_token_unary_op+0x132>
test/unit/artifacts/cpp/modifiedFunctionsDetector/indent-2.2.10/indent.c:709
 8049d99:	e8 b6 f0 ff ff       	call   8048e54 <check_code_size>
test/unit/artifacts/cpp/modifiedFunctionsDetector/indent-2.2.10/indent.c:710
 8049d9e:	a1 c4 98 05 08       	mov    0x80598c4,%eax
 8049da3:	8b 55 f4             	mov    -0xc(%ebp),%edx
 8049da6:	0f b6 12             	movzbl (%edx),%edx
 8049da9:	88 10                	mov    %dl,(%eax)
 8049dab:	83 c0 01             	add    $0x1,%eax
 8049dae:	a3 c4 98 05 08       	mov    %eax,0x80598c4
test/unit/artifacts/cpp/modifiedFunctionsDetector/indent-2.2.10/indent.c:707
 8049db3:	83 45 f4 01          	addl   $0x1,-0xc(%ebp)
 8049db7:	8b 45 f4             	mov    -0xc(%ebp),%eax
 8049dba:	3b 45 ec             	cmp    -0x14(%ebp),%eax
 8049dbd:	72 da                	jb     8049d99 <handle_token_unary_op+0x114>
test/unit/artifacts/cpp/modifiedFunctionsDetector/indent-2.2.10/indent.c:713
 8049dbf:	a1 c4 98 05 08       	mov    0x80598c4,%eax
 8049dc4:	c6 00 00             	movb   $0x0,(%eax)
test/unit/artifacts/cpp/modifiedFunctionsDetector/indent-2.2.10/indent.c:716
 8049dc7:	a1 48 9b 05 08       	mov    0x8059b48,%eax
 8049dcc:	c7 80 9c 00 00 00 00 	movl   $0x0,0x9c(%eax)
 8049dd3:	00 00 00 
test/unit/artifacts/cpp/modifiedFunctionsDetector/indent-2.2.10/indent.c:717
 8049dd6:	83 c4 20             	add    $0x20,%esp
 8049dd9:	5b                   	pop    %ebx
 8049dda:	5e                   	pop    %esi
 8049ddb:	5d                   	pop    %ebp
 8049ddc:	c3                   	ret    

08049ddd <handle_token_binary_op>:
handle_token_binary_op():
test/unit/artifacts/cpp/modifiedFunctionsDetector/indent-2.2.10/indent.c:725
 8049ddd:	55                   	push   %ebp
 8049dde:	89 e5                	mov    %esp,%ebp
 8049de0:	83 ec 28             	sub    $0x28,%esp
test/unit/artifacts/cpp/modifiedFunctionsDetector/indent-2.2.10/indent.c:728
 8049de3:	a1 48 9b 05 08       	mov    0x8059b48,%eax
 8049de8:	8b 80 9c 00 00 00    	mov    0x9c(%eax),%eax
 8049dee:	85 c0                	test   %eax,%eax
 8049df0:	75 1b                	jne    8049e0d <handle_token_binary_op+0x30>
test/unit/artifacts/cpp/modifiedFunctionsDetector/indent-2.2.10/indent.c:729
 8049df2:	8b 15 c4 98 05 08    	mov    0x80598c4,%edx
 8049df8:	a1 c0 98 05 08       	mov    0x80598c0,%eax
test/unit/artifacts/cpp/modifiedFunctionsDetector/indent-2.2.10/indent.c:728
 8049dfd:	39 c2                	cmp    %eax,%edx
 8049dff:	76 3b                	jbe    8049e3c <handle_token_binary_op+0x5f>
test/unit/artifacts/cpp/modifiedFunctionsDetector/indent-2.2.10/indent.c:729
 8049e01:	a1 c4 98 05 08       	mov    0x80598c4,%eax
 8049e06:	0f b6 00             	movzbl (%eax),%eax
test/unit/artifacts/cpp/modifiedFunctionsDetector/indent-2.2.10/indent.c:728
 8049e09:	3c 20                	cmp    $0x20,%al
 8049e0b:	74 2f                	je     8049e3c <handle_token_binary_op+0x5f>
test/unit/artifacts/cpp/modifiedFunctionsDetector/indent-2.2.10/indent.c:731
 8049e0d:	a1 24 99 05 08       	mov    0x8059924,%eax
 8049e12:	89 44 24 04          	mov    %eax,0x4(%esp)
 8049e16:	c7 04 24 07 00 00 00 	movl   $0x7,(%esp)
 8049e1d:	e8 a1 90 00 00       	call   8052ec3 <set_buf_break>
test/unit/artifacts/cpp/modifiedFunctionsDetector/indent-2.2.10/indent.c:732
 8049e22:	a1 c4 98 05 08       	mov    0x80598c4,%eax
 8049e27:	c6 00 20             	movb   $0x20,(%eax)
 8049e2a:	83 c0 01             	add    $0x1,%eax
 8049e2d:	a3 c4 98 05 08       	mov    %eax,0x80598c4
test/unit/artifacts/cpp/modifiedFunctionsDetector/indent-2.2.10/indent.c:733
 8049e32:	a1 c4 98 05 08       	mov    0x80598c4,%eax
 8049e37:	c6 00 00             	movb   $0x0,(%eax)
test/unit/artifacts/cpp/modifiedFunctionsDetector/indent-2.2.10/indent.c:728
 8049e3a:	eb 1a                	jmp    8049e56 <handle_token_binary_op+0x79>
test/unit/artifacts/cpp/modifiedFunctionsDetector/indent-2.2.10/indent.c:735
 8049e3c:	83 7d 08 00          	cmpl   $0x0,0x8(%ebp)
 8049e40:	74 14                	je     8049e56 <handle_token_binary_op+0x79>
test/unit/artifacts/cpp/modifiedFunctionsDetector/indent-2.2.10/indent.c:737
 8049e42:	a1 24 99 05 08       	mov    0x8059924,%eax
 8049e47:	89 44 24 04          	mov    %eax,0x4(%esp)
 8049e4b:	8b 45 08             	mov    0x8(%ebp),%eax
 8049e4e:	89 04 24             	mov    %eax,(%esp)
 8049e51:	e8 6d 90 00 00       	call   8052ec3 <set_buf_break>
test/unit/artifacts/cpp/modifiedFunctionsDetector/indent-2.2.10/indent.c:745
 8049e56:	a1 c0 9b 05 08       	mov    0x8059bc0,%eax
 8049e5b:	89 45 f0             	mov    %eax,-0x10(%ebp)
test/unit/artifacts/cpp/modifiedFunctionsDetector/indent-2.2.10/indent.c:746
 8049e5e:	a1 c4 9b 05 08       	mov    0x8059bc4,%eax
 8049e63:	89 45 ec             	mov    %eax,-0x14(%ebp)
test/unit/artifacts/cpp/modifiedFunctionsDetector/indent-2.2.10/indent.c:748
 8049e66:	8b 45 f0             	mov    -0x10(%ebp),%eax
 8049e69:	89 45 f4             	mov    %eax,-0xc(%ebp)
 8049e6c:	eb 1e                	jmp    8049e8c <handle_token_binary_op+0xaf>
test/unit/artifacts/cpp/modifiedFunctionsDetector/indent-2.2.10/indent.c:750
 8049e6e:	e8 e1 ef ff ff       	call   8048e54 <check_code_size>
test/unit/artifacts/cpp/modifiedFunctionsDetector/indent-2.2.10/indent.c:751
 8049e73:	a1 c4 98 05 08       	mov    0x80598c4,%eax
 8049e78:	8b 55 f4             	mov    -0xc(%ebp),%edx
 8049e7b:	0f b6 12             	movzbl (%edx),%edx
 8049e7e:	88 10                	mov    %dl,(%eax)
 8049e80:	83 c0 01             	add    $0x1,%eax
 8049e83:	a3 c4 98 05 08       	mov    %eax,0x80598c4
test/unit/artifacts/cpp/modifiedFunctionsDetector/indent-2.2.10/indent.c:748
 8049e88:	83 45 f4 01          	addl   $0x1,-0xc(%ebp)
 8049e8c:	8b 45 f4             	mov    -0xc(%ebp),%eax
 8049e8f:	3b 45 ec             	cmp    -0x14(%ebp),%eax
 8049e92:	72 da                	jb     8049e6e <handle_token_binary_op+0x91>
test/unit/artifacts/cpp/modifiedFunctionsDetector/indent-2.2.10/indent.c:756
 8049e94:	a1 c0 9b 05 08       	mov    0x8059bc0,%eax
 8049e99:	0f b6 00             	movzbl (%eax),%eax
 8049e9c:	3c 3d                	cmp    $0x3d,%al
 8049e9e:	75 09                	jne    8049ea9 <handle_token_binary_op+0xcc>
test/unit/artifacts/cpp/modifiedFunctionsDetector/indent-2.2.10/indent.c:758
 8049ea0:	a1 48 9b 05 08       	mov    0x8059b48,%eax
 8049ea5:	c6 40 64 00          	movb   $0x0,0x64(%eax)
test/unit/artifacts/cpp/modifiedFunctionsDetector/indent-2.2.10/indent.c:763
 8049ea9:	a1 48 9b 05 08       	mov    0x8059b48,%eax
 8049eae:	c7 80 9c 00 00 00 01 	movl   $0x1,0x9c(%eax)
 8049eb5:	00 00 00 
test/unit/artifacts/cpp/modifiedFunctionsDetector/indent-2.2.10/indent.c:764
 8049eb8:	c9                   	leave  
 8049eb9:	c3                   	ret    

08049eba <handle_token_postop>:
handle_token_postop():
test/unit/artifacts/cpp/modifiedFunctionsDetector/indent-2.2.10/indent.c:771
 8049eba:	55                   	push   %ebp
 8049ebb:	89 e5                	mov    %esp,%ebp
test/unit/artifacts/cpp/modifiedFunctionsDetector/indent-2.2.10/indent.c:772
 8049ebd:	a1 c4 98 05 08       	mov    0x80598c4,%eax
 8049ec2:	8b 15 c0 9b 05 08    	mov    0x8059bc0,%edx
 8049ec8:	0f b6 12             	movzbl (%edx),%edx
 8049ecb:	88 10                	mov    %dl,(%eax)
 8049ecd:	83 c0 01             	add    $0x1,%eax
 8049ed0:	a3 c4 98 05 08       	mov    %eax,0x80598c4
test/unit/artifacts/cpp/modifiedFunctionsDetector/indent-2.2.10/indent.c:773
 8049ed5:	a1 c4 98 05 08       	mov    0x80598c4,%eax
 8049eda:	8b 15 c0 9b 05 08    	mov    0x8059bc0,%edx
 8049ee0:	83 c2 01             	add    $0x1,%edx
 8049ee3:	0f b6 12             	movzbl (%edx),%edx
 8049ee6:	88 10                	mov    %dl,(%eax)
 8049ee8:	83 c0 01             	add    $0x1,%eax
 8049eeb:	a3 c4 98 05 08       	mov    %eax,0x80598c4
test/unit/artifacts/cpp/modifiedFunctionsDetector/indent-2.2.10/indent.c:774
 8049ef0:	a1 48 9b 05 08       	mov    0x8059b48,%eax
 8049ef5:	c7 80 9c 00 00 00 01 	movl   $0x1,0x9c(%eax)
 8049efc:	00 00 00 
test/unit/artifacts/cpp/modifiedFunctionsDetector/indent-2.2.10/indent.c:775
 8049eff:	5d                   	pop    %ebp
 8049f00:	c3                   	ret    

08049f01 <handle_token_question>:
handle_token_question():
test/unit/artifacts/cpp/modifiedFunctionsDetector/indent-2.2.10/indent.c:783
 8049f01:	55                   	push   %ebp
 8049f02:	89 e5                	mov    %esp,%ebp
 8049f04:	83 ec 18             	sub    $0x18,%esp
test/unit/artifacts/cpp/modifiedFunctionsDetector/indent-2.2.10/indent.c:784
 8049f07:	a1 18 99 05 08       	mov    0x8059918,%eax
 8049f0c:	83 c0 01             	add    $0x1,%eax
 8049f0f:	a3 18 99 05 08       	mov    %eax,0x8059918
test/unit/artifacts/cpp/modifiedFunctionsDetector/indent-2.2.10/indent.c:788
 8049f14:	a1 48 9b 05 08       	mov    0x8059b48,%eax
 8049f19:	8b 80 9c 00 00 00    	mov    0x9c(%eax),%eax
 8049f1f:	85 c0                	test   %eax,%eax
 8049f21:	74 27                	je     8049f4a <handle_token_question+0x49>
test/unit/artifacts/cpp/modifiedFunctionsDetector/indent-2.2.10/indent.c:790
 8049f23:	a1 24 99 05 08       	mov    0x8059924,%eax
 8049f28:	89 44 24 04          	mov    %eax,0x4(%esp)
 8049f2c:	c7 04 24 0c 00 00 00 	movl   $0xc,(%esp)
 8049f33:	e8 8b 8f 00 00       	call   8052ec3 <set_buf_break>
test/unit/artifacts/cpp/modifiedFunctionsDetector/indent-2.2.10/indent.c:791
 8049f38:	a1 c4 98 05 08       	mov    0x80598c4,%eax
 8049f3d:	c6 00 20             	movb   $0x20,(%eax)
 8049f40:	83 c0 01             	add    $0x1,%eax
 8049f43:	a3 c4 98 05 08       	mov    %eax,0x80598c4
 8049f48:	eb 1a                	jmp    8049f64 <handle_token_question+0x63>
test/unit/artifacts/cpp/modifiedFunctionsDetector/indent-2.2.10/indent.c:793
 8049f4a:	83 7d 08 00          	cmpl   $0x0,0x8(%ebp)
 8049f4e:	74 14                	je     8049f64 <handle_token_question+0x63>
test/unit/artifacts/cpp/modifiedFunctionsDetector/indent-2.2.10/indent.c:795
 8049f50:	a1 24 99 05 08       	mov    0x8059924,%eax
 8049f55:	89 44 24 04          	mov    %eax,0x4(%esp)
 8049f59:	8b 45 08             	mov    0x8(%ebp),%eax
 8049f5c:	89 04 24             	mov    %eax,(%esp)
 8049f5f:	e8 5f 8f 00 00       	call   8052ec3 <set_buf_break>
test/unit/artifacts/cpp/modifiedFunctionsDetector/indent-2.2.10/indent.c:802
 8049f64:	a1 c4 98 05 08       	mov    0x80598c4,%eax
 8049f69:	c6 00 3f             	movb   $0x3f,(%eax)
 8049f6c:	83 c0 01             	add    $0x1,%eax
 8049f6f:	a3 c4 98 05 08       	mov    %eax,0x80598c4
test/unit/artifacts/cpp/modifiedFunctionsDetector/indent-2.2.10/indent.c:803
 8049f74:	a1 48 9b 05 08       	mov    0x8059b48,%eax
 8049f79:	c7 80 9c 00 00 00 01 	movl   $0x1,0x9c(%eax)
 8049f80:	00 00 00 
test/unit/artifacts/cpp/modifiedFunctionsDetector/indent-2.2.10/indent.c:804
 8049f83:	a1 c4 98 05 08       	mov    0x80598c4,%eax
 8049f88:	c6 00 00             	movb   $0x0,(%eax)
test/unit/artifacts/cpp/modifiedFunctionsDetector/indent-2.2.10/indent.c:805
 8049f8b:	c9                   	leave  
 8049f8c:	c3                   	ret    

08049f8d <handle_token_casestmt>:
handle_token_casestmt():
test/unit/artifacts/cpp/modifiedFunctionsDetector/indent-2.2.10/indent.c:814
 8049f8d:	55                   	push   %ebp
 8049f8e:	89 e5                	mov    %esp,%ebp
 8049f90:	83 ec 18             	sub    $0x18,%esp
test/unit/artifacts/cpp/modifiedFunctionsDetector/indent-2.2.10/indent.c:815
 8049f93:	8b 45 08             	mov    0x8(%ebp),%eax
 8049f96:	c6 00 01             	movb   $0x1,(%eax)
test/unit/artifacts/cpp/modifiedFunctionsDetector/indent-2.2.10/indent.c:819
 8049f99:	c7 04 24 09 00 00 00 	movl   $0x9,(%esp)
 8049fa0:	e8 8a 78 00 00       	call   805182f <parse>
 8049fa5:	85 c0                	test   %eax,%eax
 8049fa7:	74 09                	je     8049fb2 <handle_token_casestmt+0x25>
test/unit/artifacts/cpp/modifiedFunctionsDetector/indent-2.2.10/indent.c:821
 8049fa9:	8b 45 0c             	mov    0xc(%ebp),%eax
 8049fac:	c7 00 02 00 00 00    	movl   $0x2,(%eax)
test/unit/artifacts/cpp/modifiedFunctionsDetector/indent-2.2.10/indent.c:825
 8049fb2:	c9                   	leave  
 8049fb3:	c3                   	ret    

08049fb4 <handle_token_colon>:
handle_token_colon():
test/unit/artifacts/cpp/modifiedFunctionsDetector/indent-2.2.10/indent.c:837
 8049fb4:	55                   	push   %ebp
 8049fb5:	89 e5                	mov    %esp,%ebp
 8049fb7:	83 ec 28             	sub    $0x28,%esp
test/unit/artifacts/cpp/modifiedFunctionsDetector/indent-2.2.10/indent.c:840
 8049fba:	a1 18 99 05 08       	mov    0x8059918,%eax
 8049fbf:	85 c0                	test   %eax,%eax
 8049fc1:	0f 8e 89 00 00 00    	jle    804a050 <handle_token_colon+0x9c>
test/unit/artifacts/cpp/modifiedFunctionsDetector/indent-2.2.10/indent.c:844
 8049fc7:	a1 18 99 05 08       	mov    0x8059918,%eax
 8049fcc:	83 e8 01             	sub    $0x1,%eax
 8049fcf:	a3 18 99 05 08       	mov    %eax,0x8059918
test/unit/artifacts/cpp/modifiedFunctionsDetector/indent-2.2.10/indent.c:845
 8049fd4:	a1 48 9b 05 08       	mov    0x8059b48,%eax
 8049fd9:	8b 80 9c 00 00 00    	mov    0x9c(%eax),%eax
 8049fdf:	85 c0                	test   %eax,%eax
 8049fe1:	74 27                	je     804a00a <handle_token_colon+0x56>
test/unit/artifacts/cpp/modifiedFunctionsDetector/indent-2.2.10/indent.c:847
 8049fe3:	a1 24 99 05 08       	mov    0x8059924,%eax
 8049fe8:	89 44 24 04          	mov    %eax,0x4(%esp)
 8049fec:	c7 04 24 0d 00 00 00 	movl   $0xd,(%esp)
 8049ff3:	e8 cb 8e 00 00       	call   8052ec3 <set_buf_break>
test/unit/artifacts/cpp/modifiedFunctionsDetector/indent-2.2.10/indent.c:848
 8049ff8:	a1 c4 98 05 08       	mov    0x80598c4,%eax
 8049ffd:	c6 00 20             	movb   $0x20,(%eax)
 804a000:	83 c0 01             	add    $0x1,%eax
 804a003:	a3 c4 98 05 08       	mov    %eax,0x80598c4
 804a008:	eb 1a                	jmp    804a024 <handle_token_colon+0x70>
test/unit/artifacts/cpp/modifiedFunctionsDetector/indent-2.2.10/indent.c:850
 804a00a:	83 7d 14 00          	cmpl   $0x0,0x14(%ebp)
 804a00e:	74 14                	je     804a024 <handle_token_colon+0x70>
test/unit/artifacts/cpp/modifiedFunctionsDetector/indent-2.2.10/indent.c:852
 804a010:	a1 24 99 05 08       	mov    0x8059924,%eax
 804a015:	89 44 24 04          	mov    %eax,0x4(%esp)
 804a019:	8b 45 14             	mov    0x14(%ebp),%eax
 804a01c:	89 04 24             	mov    %eax,(%esp)
 804a01f:	e8 9f 8e 00 00       	call   8052ec3 <set_buf_break>
test/unit/artifacts/cpp/modifiedFunctionsDetector/indent-2.2.10/indent.c:859
 804a024:	a1 c4 98 05 08       	mov    0x80598c4,%eax
 804a029:	c6 00 3a             	movb   $0x3a,(%eax)
 804a02c:	83 c0 01             	add    $0x1,%eax
 804a02f:	a3 c4 98 05 08       	mov    %eax,0x80598c4
test/unit/artifacts/cpp/modifiedFunctionsDetector/indent-2.2.10/indent.c:860
 804a034:	a1 c4 98 05 08       	mov    0x80598c4,%eax
 804a039:	c6 00 00             	movb   $0x0,(%eax)
test/unit/artifacts/cpp/modifiedFunctionsDetector/indent-2.2.10/indent.c:861
 804a03c:	a1 48 9b 05 08       	mov    0x8059b48,%eax
 804a041:	c7 80 9c 00 00 00 01 	movl   $0x1,0x9c(%eax)
 804a048:	00 00 00 
 804a04b:	e9 87 02 00 00       	jmp    804a2d7 <handle_token_colon+0x323>
test/unit/artifacts/cpp/modifiedFunctionsDetector/indent-2.2.10/indent.c:878
 804a050:	a1 48 9b 05 08       	mov    0x8059b48,%eax
 804a055:	0f b6 40 64          	movzbl 0x64(%eax),%eax
 804a059:	84 c0                	test   %al,%al
 804a05b:	0f 84 b0 01 00 00    	je     804a211 <handle_token_colon+0x25d>
test/unit/artifacts/cpp/modifiedFunctionsDetector/indent-2.2.10/indent.c:880
 804a061:	a1 c4 98 05 08       	mov    0x80598c4,%eax
 804a066:	89 c2                	mov    %eax,%edx
 804a068:	a1 c0 98 05 08       	mov    0x80598c0,%eax
 804a06d:	89 d1                	mov    %edx,%ecx
 804a06f:	29 c1                	sub    %eax,%ecx
 804a071:	89 c8                	mov    %ecx,%eax
 804a073:	83 f8 06             	cmp    $0x6,%eax
 804a076:	7e 4e                	jle    804a0c6 <handle_token_colon+0x112>
 804a078:	a1 50 9b 05 08       	mov    0x8059b50,%eax
 804a07d:	83 e8 08             	sub    $0x8,%eax
 804a080:	c7 44 24 08 08 00 00 	movl   $0x8,0x8(%esp)
 804a087:	00 
 804a088:	c7 44 24 04 24 50 05 	movl   $0x8055024,0x4(%esp)
 804a08f:	08 
 804a090:	89 04 24             	mov    %eax,(%esp)
 804a093:	e8 a4 ec ff ff       	call   8048d3c <strncmp@plt>
 804a098:	85 c0                	test   %eax,%eax
 804a09a:	75 2a                	jne    804a0c6 <handle_token_colon+0x112>
test/unit/artifacts/cpp/modifiedFunctionsDetector/indent-2.2.10/indent.c:882
 804a09c:	e8 4b eb ff ff       	call   8048bec <__ctype_b_loc@plt>
 804a0a1:	8b 10                	mov    (%eax),%edx
 804a0a3:	a1 50 9b 05 08       	mov    0x8059b50,%eax
 804a0a8:	0f b6 00             	movzbl (%eax),%eax
 804a0ab:	0f be c0             	movsbl %al,%eax
 804a0ae:	01 c0                	add    %eax,%eax
 804a0b0:	8d 04 02             	lea    (%edx,%eax,1),%eax
 804a0b3:	0f b7 00             	movzwl (%eax),%eax
 804a0b6:	0f b7 c0             	movzwl %ax,%eax
 804a0b9:	25 00 08 00 00       	and    $0x800,%eax
test/unit/artifacts/cpp/modifiedFunctionsDetector/indent-2.2.10/indent.c:880
 804a0be:	85 c0                	test   %eax,%eax
 804a0c0:	0f 84 ea 00 00 00    	je     804a1b0 <handle_token_colon+0x1fc>
test/unit/artifacts/cpp/modifiedFunctionsDetector/indent-2.2.10/indent.c:883
 804a0c6:	a1 c4 98 05 08       	mov    0x80598c4,%eax
 804a0cb:	89 c2                	mov    %eax,%edx
 804a0cd:	a1 c0 98 05 08       	mov    0x80598c0,%eax
 804a0d2:	89 d1                	mov    %edx,%ecx
 804a0d4:	29 c1                	sub    %eax,%ecx
 804a0d6:	89 c8                	mov    %ecx,%eax
test/unit/artifacts/cpp/modifiedFunctionsDetector/indent-2.2.10/indent.c:880
 804a0d8:	83 f8 08             	cmp    $0x8,%eax
 804a0db:	7e 4e                	jle    804a12b <handle_token_colon+0x177>
 804a0dd:	a1 50 9b 05 08       	mov    0x8059b50,%eax
 804a0e2:	83 e8 0a             	sub    $0xa,%eax
 804a0e5:	c7 44 24 08 0a 00 00 	movl   $0xa,0x8(%esp)
 804a0ec:	00 
 804a0ed:	c7 44 24 04 2d 50 05 	movl   $0x805502d,0x4(%esp)
 804a0f4:	08 
 804a0f5:	89 04 24             	mov    %eax,(%esp)
 804a0f8:	e8 3f ec ff ff       	call   8048d3c <strncmp@plt>
 804a0fd:	85 c0                	test   %eax,%eax
 804a0ff:	75 2a                	jne    804a12b <handle_token_colon+0x177>
test/unit/artifacts/cpp/modifiedFunctionsDetector/indent-2.2.10/indent.c:885
 804a101:	e8 e6 ea ff ff       	call   8048bec <__ctype_b_loc@plt>
 804a106:	8b 10                	mov    (%eax),%edx
 804a108:	a1 50 9b 05 08       	mov    0x8059b50,%eax
 804a10d:	0f b6 00             	movzbl (%eax),%eax
 804a110:	0f be c0             	movsbl %al,%eax
 804a113:	01 c0                	add    %eax,%eax
 804a115:	8d 04 02             	lea    (%edx,%eax,1),%eax
 804a118:	0f b7 00             	movzwl (%eax),%eax
 804a11b:	0f b7 c0             	movzwl %ax,%eax
 804a11e:	25 00 08 00 00       	and    $0x800,%eax
test/unit/artifacts/cpp/modifiedFunctionsDetector/indent-2.2.10/indent.c:880
 804a123:	85 c0                	test   %eax,%eax
 804a125:	0f 84 85 00 00 00    	je     804a1b0 <handle_token_colon+0x1fc>
test/unit/artifacts/cpp/modifiedFunctionsDetector/indent-2.2.10/indent.c:886
 804a12b:	a1 c4 98 05 08       	mov    0x80598c4,%eax
 804a130:	89 c2                	mov    %eax,%edx
 804a132:	a1 c0 98 05 08       	mov    0x80598c0,%eax
 804a137:	89 d1                	mov    %edx,%ecx
 804a139:	29 c1                	sub    %eax,%ecx
 804a13b:	89 c8                	mov    %ecx,%eax
test/unit/artifacts/cpp/modifiedFunctionsDetector/indent-2.2.10/indent.c:880
 804a13d:	83 f8 05             	cmp    $0x5,%eax
 804a140:	7e 4a                	jle    804a18c <handle_token_colon+0x1d8>
 804a142:	a1 50 9b 05 08       	mov    0x8059b50,%eax
 804a147:	83 e8 07             	sub    $0x7,%eax
 804a14a:	c7 44 24 08 07 00 00 	movl   $0x7,0x8(%esp)
 804a151:	00 
 804a152:	c7 44 24 04 38 50 05 	movl   $0x8055038,0x4(%esp)
 804a159:	08 
 804a15a:	89 04 24             	mov    %eax,(%esp)
 804a15d:	e8 da eb ff ff       	call   8048d3c <strncmp@plt>
 804a162:	85 c0                	test   %eax,%eax
 804a164:	75 26                	jne    804a18c <handle_token_colon+0x1d8>
test/unit/artifacts/cpp/modifiedFunctionsDetector/indent-2.2.10/indent.c:888
 804a166:	e8 81 ea ff ff       	call   8048bec <__ctype_b_loc@plt>
 804a16b:	8b 10                	mov    (%eax),%edx
 804a16d:	a1 50 9b 05 08       	mov    0x8059b50,%eax
 804a172:	0f b6 00             	movzbl (%eax),%eax
 804a175:	0f be c0             	movsbl %al,%eax
 804a178:	01 c0                	add    %eax,%eax
 804a17a:	8d 04 02             	lea    (%edx,%eax,1),%eax
 804a17d:	0f b7 00             	movzwl (%eax),%eax
 804a180:	0f b7 c0             	movzwl %ax,%eax
 804a183:	25 00 08 00 00       	and    $0x800,%eax
test/unit/artifacts/cpp/modifiedFunctionsDetector/indent-2.2.10/indent.c:880
 804a188:	85 c0                	test   %eax,%eax
 804a18a:	74 24                	je     804a1b0 <handle_token_colon+0x1fc>
test/unit/artifacts/cpp/modifiedFunctionsDetector/indent-2.2.10/indent.c:890
 804a18c:	a1 c4 98 05 08       	mov    0x80598c4,%eax
 804a191:	c6 00 3a             	movb   $0x3a,(%eax)
 804a194:	83 c0 01             	add    $0x1,%eax
 804a197:	a3 c4 98 05 08       	mov    %eax,0x80598c4
test/unit/artifacts/cpp/modifiedFunctionsDetector/indent-2.2.10/indent.c:891
 804a19c:	a1 48 9b 05 08       	mov    0x8059b48,%eax
 804a1a1:	c7 80 9c 00 00 00 00 	movl   $0x0,0x9c(%eax)
 804a1a8:	00 00 00 
test/unit/artifacts/cpp/modifiedFunctionsDetector/indent-2.2.10/indent.c:892
 804a1ab:	e9 27 01 00 00       	jmp    804a2d7 <handle_token_colon+0x323>
test/unit/artifacts/cpp/modifiedFunctionsDetector/indent-2.2.10/indent.c:894
 804a1b0:	a1 c0 98 05 08       	mov    0x80598c0,%eax
 804a1b5:	0f b6 00             	movzbl (%eax),%eax
 804a1b8:	3c 20                	cmp    $0x20,%al
 804a1ba:	75 55                	jne    804a211 <handle_token_colon+0x25d>
test/unit/artifacts/cpp/modifiedFunctionsDetector/indent-2.2.10/indent.c:906
 804a1bc:	a1 c0 98 05 08       	mov    0x80598c0,%eax
 804a1c1:	89 45 f0             	mov    %eax,-0x10(%ebp)
test/unit/artifacts/cpp/modifiedFunctionsDetector/indent-2.2.10/indent.c:907
 804a1c4:	8b 15 c0 98 05 08    	mov    0x80598c0,%edx
 804a1ca:	8b 45 10             	mov    0x10(%ebp),%eax
 804a1cd:	8b 00                	mov    (%eax),%eax
 804a1cf:	8d 04 02             	lea    (%edx,%eax,1),%eax
 804a1d2:	89 45 ec             	mov    %eax,-0x14(%ebp)
test/unit/artifacts/cpp/modifiedFunctionsDetector/indent-2.2.10/indent.c:909
 804a1d5:	eb 13                	jmp    804a1ea <handle_token_colon+0x236>
test/unit/artifacts/cpp/modifiedFunctionsDetector/indent-2.2.10/indent.c:911
 804a1d7:	8b 45 ec             	mov    -0x14(%ebp),%eax
 804a1da:	0f b6 10             	movzbl (%eax),%edx
 804a1dd:	8b 45 f0             	mov    -0x10(%ebp),%eax
 804a1e0:	88 10                	mov    %dl,(%eax)
 804a1e2:	83 45 f0 01          	addl   $0x1,-0x10(%ebp)
 804a1e6:	83 45 ec 01          	addl   $0x1,-0x14(%ebp)
test/unit/artifacts/cpp/modifiedFunctionsDetector/indent-2.2.10/indent.c:909
 804a1ea:	a1 c4 98 05 08       	mov    0x80598c4,%eax
 804a1ef:	39 45 ec             	cmp    %eax,-0x14(%ebp)
 804a1f2:	72 e3                	jb     804a1d7 <handle_token_colon+0x223>
test/unit/artifacts/cpp/modifiedFunctionsDetector/indent-2.2.10/indent.c:914
 804a1f4:	8b 15 c4 98 05 08    	mov    0x80598c4,%edx
 804a1fa:	8b 45 10             	mov    0x10(%ebp),%eax
 804a1fd:	8b 00                	mov    (%eax),%eax
 804a1ff:	f7 d8                	neg    %eax
 804a201:	8d 04 02             	lea    (%edx,%eax,1),%eax
 804a204:	a3 c4 98 05 08       	mov    %eax,0x80598c4
test/unit/artifacts/cpp/modifiedFunctionsDetector/indent-2.2.10/indent.c:915
 804a209:	a1 c4 98 05 08       	mov    0x80598c4,%eax
 804a20e:	c6 00 00             	movb   $0x0,(%eax)
test/unit/artifacts/cpp/modifiedFunctionsDetector/indent-2.2.10/indent.c:923
 804a211:	a1 48 9b 05 08       	mov    0x8059b48,%eax
 804a216:	c7 40 68 00 00 00 00 	movl   $0x0,0x68(%eax)
test/unit/artifacts/cpp/modifiedFunctionsDetector/indent-2.2.10/indent.c:925
 804a21d:	a1 c0 98 05 08       	mov    0x80598c0,%eax
 804a222:	89 45 f4             	mov    %eax,-0xc(%ebp)
 804a225:	eb 1e                	jmp    804a245 <handle_token_colon+0x291>
test/unit/artifacts/cpp/modifiedFunctionsDetector/indent-2.2.10/indent.c:927
 804a227:	e8 b9 ec ff ff       	call   8048ee5 <check_lab_size>
test/unit/artifacts/cpp/modifiedFunctionsDetector/indent-2.2.10/indent.c:928
 804a22c:	a1 b4 98 05 08       	mov    0x80598b4,%eax
 804a231:	8b 55 f4             	mov    -0xc(%ebp),%edx
 804a234:	0f b6 12             	movzbl (%edx),%edx
 804a237:	88 10                	mov    %dl,(%eax)
 804a239:	83 c0 01             	add    $0x1,%eax
 804a23c:	a3 b4 98 05 08       	mov    %eax,0x80598b4
test/unit/artifacts/cpp/modifiedFunctionsDetector/indent-2.2.10/indent.c:925
 804a241:	83 45 f4 01          	addl   $0x1,-0xc(%ebp)
 804a245:	8b 45 f4             	mov    -0xc(%ebp),%eax
 804a248:	0f b6 00             	movzbl (%eax),%eax
 804a24b:	84 c0                	test   %al,%al
 804a24d:	75 d8                	jne    804a227 <handle_token_colon+0x273>
test/unit/artifacts/cpp/modifiedFunctionsDetector/indent-2.2.10/indent.c:931
 804a24f:	a1 c0 98 05 08       	mov    0x80598c0,%eax
 804a254:	a3 c4 98 05 08       	mov    %eax,0x80598c4
test/unit/artifacts/cpp/modifiedFunctionsDetector/indent-2.2.10/indent.c:932
 804a259:	8b 45 18             	mov    0x18(%ebp),%eax
 804a25c:	89 04 24             	mov    %eax,(%esp)
 804a25f:	e8 4e 92 00 00       	call   80534b2 <clear_buf_break_list>
test/unit/artifacts/cpp/modifiedFunctionsDetector/indent-2.2.10/indent.c:937
 804a264:	a1 b4 98 05 08       	mov    0x80598b4,%eax
 804a269:	c6 00 3a             	movb   $0x3a,(%eax)
 804a26c:	83 c0 01             	add    $0x1,%eax
 804a26f:	a3 b4 98 05 08       	mov    %eax,0x80598b4
test/unit/artifacts/cpp/modifiedFunctionsDetector/indent-2.2.10/indent.c:938
 804a274:	a1 24 99 05 08       	mov    0x8059924,%eax
 804a279:	89 44 24 04          	mov    %eax,0x4(%esp)
 804a27d:	c7 04 24 0e 00 00 00 	movl   $0xe,(%esp)
 804a284:	e8 3a 8c 00 00       	call   8052ec3 <set_buf_break>
test/unit/artifacts/cpp/modifiedFunctionsDetector/indent-2.2.10/indent.c:939
 804a289:	a1 b4 98 05 08       	mov    0x80598b4,%eax
 804a28e:	c6 00 20             	movb   $0x20,(%eax)
 804a291:	83 c0 01             	add    $0x1,%eax
 804a294:	a3 b4 98 05 08       	mov    %eax,0x80598b4
test/unit/artifacts/cpp/modifiedFunctionsDetector/indent-2.2.10/indent.c:940
 804a299:	a1 b4 98 05 08       	mov    0x80598b4,%eax
 804a29e:	c6 00 00             	movb   $0x0,(%eax)
test/unit/artifacts/cpp/modifiedFunctionsDetector/indent-2.2.10/indent.c:946
 804a2a1:	a1 48 9b 05 08       	mov    0x8059b48,%eax
 804a2a6:	8b 55 08             	mov    0x8(%ebp),%edx
 804a2a9:	0f b6 12             	movzbl (%edx),%edx
 804a2ac:	0f b6 d2             	movzbl %dl,%edx
 804a2af:	89 90 90 00 00 00    	mov    %edx,0x90(%eax)
 804a2b5:	8b 80 90 00 00 00    	mov    0x90(%eax),%eax
 804a2bb:	89 c2                	mov    %eax,%edx
 804a2bd:	8b 45 0c             	mov    0xc(%ebp),%eax
 804a2c0:	88 10                	mov    %dl,(%eax)
test/unit/artifacts/cpp/modifiedFunctionsDetector/indent-2.2.10/indent.c:947
 804a2c2:	8b 45 08             	mov    0x8(%ebp),%eax
 804a2c5:	c6 00 00             	movb   $0x0,(%eax)
test/unit/artifacts/cpp/modifiedFunctionsDetector/indent-2.2.10/indent.c:948
 804a2c8:	a1 48 9b 05 08       	mov    0x8059b48,%eax
 804a2cd:	c7 80 9c 00 00 00 00 	movl   $0x0,0x9c(%eax)
 804a2d4:	00 00 00 
test/unit/artifacts/cpp/modifiedFunctionsDetector/indent-2.2.10/indent.c:950
 804a2d7:	c9                   	leave  
 804a2d8:	c3                   	ret    

0804a2d9 <handle_token_doublecolon>:
handle_token_doublecolon():
test/unit/artifacts/cpp/modifiedFunctionsDetector/indent-2.2.10/indent.c:957
 804a2d9:	55                   	push   %ebp
 804a2da:	89 e5                	mov    %esp,%ebp
test/unit/artifacts/cpp/modifiedFunctionsDetector/indent-2.2.10/indent.c:958
 804a2dc:	a1 c4 98 05 08       	mov    0x80598c4,%eax
 804a2e1:	c6 00 3a             	movb   $0x3a,(%eax)
 804a2e4:	83 c0 01             	add    $0x1,%eax
 804a2e7:	a3 c4 98 05 08       	mov    %eax,0x80598c4
test/unit/artifacts/cpp/modifiedFunctionsDetector/indent-2.2.10/indent.c:959
 804a2ec:	a1 c4 98 05 08       	mov    0x80598c4,%eax
 804a2f1:	c6 00 3a             	movb   $0x3a,(%eax)
 804a2f4:	83 c0 01             	add    $0x1,%eax
 804a2f7:	a3 c4 98 05 08       	mov    %eax,0x80598c4
test/unit/artifacts/cpp/modifiedFunctionsDetector/indent-2.2.10/indent.c:960
 804a2fc:	a1 48 9b 05 08       	mov    0x8059b48,%eax
 804a301:	c7 80 9c 00 00 00 00 	movl   $0x0,0x9c(%eax)
 804a308:	00 00 00 
test/unit/artifacts/cpp/modifiedFunctionsDetector/indent-2.2.10/indent.c:961
 804a30b:	a1 48 9b 05 08       	mov    0x8059b48,%eax
 804a310:	c7 80 a0 00 00 00 1b 	movl   $0x1b,0xa0(%eax)
 804a317:	00 00 00 
test/unit/artifacts/cpp/modifiedFunctionsDetector/indent-2.2.10/indent.c:962
 804a31a:	a1 48 9b 05 08       	mov    0x8059b48,%eax
 804a31f:	c7 40 78 01 00 00 00 	movl   $0x1,0x78(%eax)
test/unit/artifacts/cpp/modifiedFunctionsDetector/indent-2.2.10/indent.c:963
 804a326:	a1 48 9b 05 08       	mov    0x8059b48,%eax
 804a32b:	c7 40 44 01 00 00 00 	movl   $0x1,0x44(%eax)
test/unit/artifacts/cpp/modifiedFunctionsDetector/indent-2.2.10/indent.c:964
 804a332:	5d                   	pop    %ebp
 804a333:	c3                   	ret    

0804a334 <handle_token_semicolon>:
handle_token_semicolon():
test/unit/artifacts/cpp/modifiedFunctionsDetector/indent-2.2.10/indent.c:977
 804a334:	55                   	push   %ebp
 804a335:	89 e5                	mov    %esp,%ebp
 804a337:	83 ec 18             	sub    $0x18,%esp
test/unit/artifacts/cpp/modifiedFunctionsDetector/indent-2.2.10/indent.c:978
 804a33a:	a1 48 9b 05 08       	mov    0x8059b48,%eax
 804a33f:	c7 40 4c 00 00 00 00 	movl   $0x0,0x4c(%eax)
test/unit/artifacts/cpp/modifiedFunctionsDetector/indent-2.2.10/indent.c:979
 804a346:	a1 48 9b 05 08       	mov    0x8059b48,%eax
 804a34b:	c7 40 44 00 00 00 00 	movl   $0x0,0x44(%eax)
test/unit/artifacts/cpp/modifiedFunctionsDetector/indent-2.2.10/indent.c:980
 804a352:	8b 45 08             	mov    0x8(%ebp),%eax
 804a355:	c6 00 00             	movb   $0x0,(%eax)
test/unit/artifacts/cpp/modifiedFunctionsDetector/indent-2.2.10/indent.c:981
 804a358:	c7 05 18 99 05 08 00 	movl   $0x0,0x8059918
 804a35f:	00 00 00 
test/unit/artifacts/cpp/modifiedFunctionsDetector/indent-2.2.10/indent.c:990
 804a362:	a1 48 9b 05 08       	mov    0x8059b48,%eax
 804a367:	c7 40 28 00 00 00 00 	movl   $0x0,0x28(%eax)
test/unit/artifacts/cpp/modifiedFunctionsDetector/indent-2.2.10/indent.c:991
 804a36e:	a1 48 9b 05 08       	mov    0x8059b48,%eax
 804a373:	c7 40 30 00 00 00 00 	movl   $0x0,0x30(%eax)
test/unit/artifacts/cpp/modifiedFunctionsDetector/indent-2.2.10/indent.c:992
 804a37a:	a1 48 9b 05 08       	mov    0x8059b48,%eax
 804a37f:	c7 40 34 00 00 00 00 	movl   $0x0,0x34(%eax)
test/unit/artifacts/cpp/modifiedFunctionsDetector/indent-2.2.10/indent.c:993
 804a386:	a1 48 9b 05 08       	mov    0x8059b48,%eax
 804a38b:	c7 40 38 00 00 00 00 	movl   $0x0,0x38(%eax)
test/unit/artifacts/cpp/modifiedFunctionsDetector/indent-2.2.10/indent.c:994
 804a392:	a1 48 9b 05 08       	mov    0x8059b48,%eax
 804a397:	8b 90 bc 00 00 00    	mov    0xbc(%eax),%edx
 804a39d:	83 ea 01             	sub    $0x1,%edx
 804a3a0:	89 90 bc 00 00 00    	mov    %edx,0xbc(%eax)
test/unit/artifacts/cpp/modifiedFunctionsDetector/indent-2.2.10/indent.c:996
 804a3a6:	a1 48 9b 05 08       	mov    0x8059b48,%eax
 804a3ab:	0f b6 40 64          	movzbl 0x64(%eax),%eax
 804a3af:	84 c0                	test   %al,%al
 804a3b1:	74 76                	je     804a429 <handle_token_semicolon+0xf5>
test/unit/artifacts/cpp/modifiedFunctionsDetector/indent-2.2.10/indent.c:997
 804a3b3:	8b 15 c0 98 05 08    	mov    0x80598c0,%edx
 804a3b9:	a1 c4 98 05 08       	mov    0x80598c4,%eax
test/unit/artifacts/cpp/modifiedFunctionsDetector/indent-2.2.10/indent.c:996
 804a3be:	39 c2                	cmp    %eax,%edx
 804a3c0:	75 67                	jne    804a429 <handle_token_semicolon+0xf5>
test/unit/artifacts/cpp/modifiedFunctionsDetector/indent-2.2.10/indent.c:997
 804a3c2:	a1 88 9b 05 08       	mov    0x8059b88,%eax
test/unit/artifacts/cpp/modifiedFunctionsDetector/indent-2.2.10/indent.c:996
 804a3c7:	85 c0                	test   %eax,%eax
 804a3c9:	75 5e                	jne    804a429 <handle_token_semicolon+0xf5>
test/unit/artifacts/cpp/modifiedFunctionsDetector/indent-2.2.10/indent.c:998
 804a3cb:	a1 48 9b 05 08       	mov    0x8059b48,%eax
 804a3d0:	8b 40 34             	mov    0x34(%eax),%eax
test/unit/artifacts/cpp/modifiedFunctionsDetector/indent-2.2.10/indent.c:996
 804a3d3:	85 c0                	test   %eax,%eax
 804a3d5:	75 52                	jne    804a429 <handle_token_semicolon+0xf5>
test/unit/artifacts/cpp/modifiedFunctionsDetector/indent-2.2.10/indent.c:1000
 804a3d7:	eb 2a                	jmp    804a403 <handle_token_semicolon+0xcf>
test/unit/artifacts/cpp/modifiedFunctionsDetector/indent-2.2.10/indent.c:1002
 804a3d9:	e8 76 ea ff ff       	call   8048e54 <check_code_size>
test/unit/artifacts/cpp/modifiedFunctionsDetector/indent-2.2.10/indent.c:1003
 804a3de:	a1 24 99 05 08       	mov    0x8059924,%eax
 804a3e3:	89 44 24 04          	mov    %eax,0x4(%esp)
 804a3e7:	c7 04 24 05 00 00 00 	movl   $0x5,(%esp)
 804a3ee:	e8 d0 8a 00 00       	call   8052ec3 <set_buf_break>
test/unit/artifacts/cpp/modifiedFunctionsDetector/indent-2.2.10/indent.c:1004
 804a3f3:	a1 c4 98 05 08       	mov    0x80598c4,%eax
 804a3f8:	c6 00 20             	movb   $0x20,(%eax)
 804a3fb:	83 c0 01             	add    $0x1,%eax
 804a3fe:	a3 c4 98 05 08       	mov    %eax,0x80598c4
test/unit/artifacts/cpp/modifiedFunctionsDetector/indent-2.2.10/indent.c:1000
 804a403:	a1 c4 98 05 08       	mov    0x80598c4,%eax
 804a408:	89 c2                	mov    %eax,%edx
 804a40a:	a1 c0 98 05 08       	mov    0x80598c0,%eax
 804a40f:	29 c2                	sub    %eax,%edx
 804a411:	8b 45 14             	mov    0x14(%ebp),%eax
 804a414:	8b 00                	mov    (%eax),%eax
 804a416:	83 e8 01             	sub    $0x1,%eax
 804a419:	39 c2                	cmp    %eax,%edx
 804a41b:	7c bc                	jl     804a3d9 <handle_token_semicolon+0xa5>
test/unit/artifacts/cpp/modifiedFunctionsDetector/indent-2.2.10/indent.c:1007
 804a41d:	a1 48 9b 05 08       	mov    0x8059b48,%eax
 804a422:	c7 40 74 00 00 00 00 	movl   $0x0,0x74(%eax)
test/unit/artifacts/cpp/modifiedFunctionsDetector/indent-2.2.10/indent.c:1010
 804a429:	a1 c4 98 05 08       	mov    0x80598c4,%eax
 804a42e:	c6 00 00             	movb   $0x0,(%eax)
test/unit/artifacts/cpp/modifiedFunctionsDetector/indent-2.2.10/indent.c:1015
 804a431:	a1 48 9b 05 08       	mov    0x8059b48,%eax
 804a436:	8b 15 48 9b 05 08    	mov    0x8059b48,%edx
 804a43c:	8b 52 58             	mov    0x58(%edx),%edx
 804a43f:	85 d2                	test   %edx,%edx
 804a441:	0f 9f c2             	setg   %dl
 804a444:	88 50 64             	mov    %dl,0x64(%eax)
test/unit/artifacts/cpp/modifiedFunctionsDetector/indent-2.2.10/indent.c:1021
 804a447:	8b 45 18             	mov    0x18(%ebp),%eax
 804a44a:	0f b6 00             	movzbl (%eax),%eax
 804a44d:	84 c0                	test   %al,%al
 804a44f:	74 19                	je     804a46a <handle_token_semicolon+0x136>
 804a451:	a1 50 99 05 08       	mov    0x8059950,%eax
 804a456:	85 c0                	test   %eax,%eax
 804a458:	74 10                	je     804a46a <handle_token_semicolon+0x136>
test/unit/artifacts/cpp/modifiedFunctionsDetector/indent-2.2.10/indent.c:1023
 804a45a:	a1 c4 98 05 08       	mov    0x80598c4,%eax
 804a45f:	c6 00 20             	movb   $0x20,(%eax)
 804a462:	83 c0 01             	add    $0x1,%eax
 804a465:	a3 c4 98 05 08       	mov    %eax,0x80598c4
test/unit/artifacts/cpp/modifiedFunctionsDetector/indent-2.2.10/indent.c:1026
 804a46a:	a1 c4 98 05 08       	mov    0x80598c4,%eax
 804a46f:	c6 00 3b             	movb   $0x3b,(%eax)
 804a472:	83 c0 01             	add    $0x1,%eax
 804a475:	a3 c4 98 05 08       	mov    %eax,0x80598c4
test/unit/artifacts/cpp/modifiedFunctionsDetector/indent-2.2.10/indent.c:1027
 804a47a:	a1 c4 98 05 08       	mov    0x80598c4,%eax
 804a47f:	c6 00 00             	movb   $0x0,(%eax)
test/unit/artifacts/cpp/modifiedFunctionsDetector/indent-2.2.10/indent.c:1028
 804a482:	a1 48 9b 05 08       	mov    0x8059b48,%eax
 804a487:	c7 80 9c 00 00 00 01 	movl   $0x1,0x9c(%eax)
 804a48e:	00 00 00 
test/unit/artifacts/cpp/modifiedFunctionsDetector/indent-2.2.10/indent.c:1032
 804a491:	a1 48 9b 05 08       	mov    0x8059b48,%eax
 804a496:	8b 15 48 9b 05 08    	mov    0x8059b48,%edx
 804a49c:	8b 52 7c             	mov    0x7c(%edx),%edx
 804a49f:	85 d2                	test   %edx,%edx
 804a4a1:	0f 9f c2             	setg   %dl
 804a4a4:	0f b6 d2             	movzbl %dl,%edx
 804a4a7:	89 50 68             	mov    %edx,0x68(%eax)
test/unit/artifacts/cpp/modifiedFunctionsDetector/indent-2.2.10/indent.c:1034
 804a4aa:	8b 45 10             	mov    0x10(%ebp),%eax
 804a4ad:	0f b6 00             	movzbl (%eax),%eax
 804a4b0:	84 c0                	test   %al,%al
 804a4b2:	75 1f                	jne    804a4d3 <handle_token_semicolon+0x19f>
test/unit/artifacts/cpp/modifiedFunctionsDetector/indent-2.2.10/indent.c:1038
 804a4b4:	c7 04 24 0c 00 00 00 	movl   $0xc,(%esp)
 804a4bb:	e8 6f 73 00 00       	call   805182f <parse>
 804a4c0:	85 c0                	test   %eax,%eax
 804a4c2:	74 09                	je     804a4cd <handle_token_semicolon+0x199>
test/unit/artifacts/cpp/modifiedFunctionsDetector/indent-2.2.10/indent.c:1040
 804a4c4:	8b 45 1c             	mov    0x1c(%ebp),%eax
 804a4c7:	c7 00 02 00 00 00    	movl   $0x2,(%eax)
test/unit/artifacts/cpp/modifiedFunctionsDetector/indent-2.2.10/indent.c:1044
 804a4cd:	8b 45 0c             	mov    0xc(%ebp),%eax
 804a4d0:	c6 00 01             	movb   $0x1,(%eax)
test/unit/artifacts/cpp/modifiedFunctionsDetector/indent-2.2.10/indent.c:1046
 804a4d3:	c9                   	leave  
 804a4d4:	c3                   	ret    

0804a4d5 <handle_token_lbrace>:
handle_token_lbrace():
test/unit/artifacts/cpp/modifiedFunctionsDetector/indent-2.2.10/indent.c:1057
 804a4d5:	55                   	push   %ebp
 804a4d6:	89 e5                	mov    %esp,%ebp
 804a4d8:	53                   	push   %ebx
 804a4d9:	83 ec 24             	sub    $0x24,%esp
test/unit/artifacts/cpp/modifiedFunctionsDetector/indent-2.2.10/indent.c:1058
 804a4dc:	a1 48 9b 05 08       	mov    0x8059b48,%eax
 804a4e1:	c7 40 44 00 00 00 00 	movl   $0x0,0x44(%eax)
test/unit/artifacts/cpp/modifiedFunctionsDetector/indent-2.2.10/indent.c:1060
 804a4e8:	a1 48 9b 05 08       	mov    0x8059b48,%eax
 804a4ed:	8b 40 34             	mov    0x34(%eax),%eax
 804a4f0:	85 c0                	test   %eax,%eax
 804a4f2:	75 17                	jne    804a50b <handle_token_lbrace+0x36>
test/unit/artifacts/cpp/modifiedFunctionsDetector/indent-2.2.10/indent.c:1062
 804a4f4:	8b 45 08             	mov    0x8(%ebp),%eax
 804a4f7:	c6 00 01             	movb   $0x1,(%eax)
test/unit/artifacts/cpp/modifiedFunctionsDetector/indent-2.2.10/indent.c:1064
 804a4fa:	a1 48 9b 05 08       	mov    0x8059b48,%eax
 804a4ff:	c7 40 68 00 00 00 00 	movl   $0x0,0x68(%eax)
 804a506:	e9 f4 00 00 00       	jmp    804a5ff <handle_token_lbrace+0x12a>
test/unit/artifacts/cpp/modifiedFunctionsDetector/indent-2.2.10/indent.c:1070
 804a50b:	a1 50 9b 05 08       	mov    0x8059b50,%eax
 804a510:	89 45 f4             	mov    %eax,-0xc(%ebp)
 804a513:	eb 01                	jmp    804a516 <handle_token_lbrace+0x41>
test/unit/artifacts/cpp/modifiedFunctionsDetector/indent-2.2.10/indent.c:1108
 804a515:	90                   	nop
test/unit/artifacts/cpp/modifiedFunctionsDetector/indent-2.2.10/indent.c:1074
 804a516:	8b 45 f4             	mov    -0xc(%ebp),%eax
 804a519:	89 04 24             	mov    %eax,(%esp)
 804a51c:	e8 5b 80 00 00       	call   805257c <skip_horiz_space>
 804a521:	89 45 f4             	mov    %eax,-0xc(%ebp)
test/unit/artifacts/cpp/modifiedFunctionsDetector/indent-2.2.10/indent.c:1076
 804a524:	8b 45 f4             	mov    -0xc(%ebp),%eax
 804a527:	0f b6 00             	movzbl (%eax),%eax
 804a52a:	3c 0a                	cmp    $0xa,%al
 804a52c:	74 17                	je     804a545 <handle_token_lbrace+0x70>
 804a52e:	8b 45 f4             	mov    -0xc(%ebp),%eax
 804a531:	0f b6 00             	movzbl (%eax),%eax
 804a534:	3c 2f                	cmp    $0x2f,%al
 804a536:	75 1e                	jne    804a556 <handle_token_lbrace+0x81>
 804a538:	8b 45 f4             	mov    -0xc(%ebp),%eax
 804a53b:	83 c0 01             	add    $0x1,%eax
 804a53e:	0f b6 00             	movzbl (%eax),%eax
 804a541:	3c 2f                	cmp    $0x2f,%al
 804a543:	75 11                	jne    804a556 <handle_token_lbrace+0x81>
test/unit/artifacts/cpp/modifiedFunctionsDetector/indent-2.2.10/indent.c:1078
 804a545:	a1 48 9b 05 08       	mov    0x8059b48,%eax
 804a54a:	c7 40 68 00 00 00 00 	movl   $0x0,0x68(%eax)
test/unit/artifacts/cpp/modifiedFunctionsDetector/indent-2.2.10/indent.c:1079
 804a551:	e9 81 00 00 00       	jmp    804a5d7 <handle_token_lbrace+0x102>
test/unit/artifacts/cpp/modifiedFunctionsDetector/indent-2.2.10/indent.c:1081
 804a556:	8b 45 f4             	mov    -0xc(%ebp),%eax
 804a559:	0f b6 00             	movzbl (%eax),%eax
 804a55c:	3c 2f                	cmp    $0x2f,%al
 804a55e:	75 77                	jne    804a5d7 <handle_token_lbrace+0x102>
 804a560:	8b 45 f4             	mov    -0xc(%ebp),%eax
 804a563:	83 c0 01             	add    $0x1,%eax
 804a566:	0f b6 00             	movzbl (%eax),%eax
 804a569:	3c 2a                	cmp    $0x2a,%al
 804a56b:	75 6a                	jne    804a5d7 <handle_token_lbrace+0x102>
test/unit/artifacts/cpp/modifiedFunctionsDetector/indent-2.2.10/indent.c:1083
 804a56d:	83 45 f4 02          	addl   $0x2,-0xc(%ebp)
test/unit/artifacts/cpp/modifiedFunctionsDetector/indent-2.2.10/indent.c:1086
 804a571:	eb 04                	jmp    804a577 <handle_token_lbrace+0xa2>
test/unit/artifacts/cpp/modifiedFunctionsDetector/indent-2.2.10/indent.c:1088
 804a573:	83 45 f4 01          	addl   $0x1,-0xc(%ebp)
test/unit/artifacts/cpp/modifiedFunctionsDetector/indent-2.2.10/indent.c:1086
 804a577:	8b 45 f4             	mov    -0xc(%ebp),%eax
 804a57a:	0f b6 00             	movzbl (%eax),%eax
 804a57d:	84 c0                	test   %al,%al
 804a57f:	74 21                	je     804a5a2 <handle_token_lbrace+0xcd>
 804a581:	8b 45 f4             	mov    -0xc(%ebp),%eax
 804a584:	0f b6 00             	movzbl (%eax),%eax
 804a587:	3c 0a                	cmp    $0xa,%al
 804a589:	74 17                	je     804a5a2 <handle_token_lbrace+0xcd>
 804a58b:	8b 45 f4             	mov    -0xc(%ebp),%eax
 804a58e:	0f b6 00             	movzbl (%eax),%eax
 804a591:	3c 2a                	cmp    $0x2a,%al
 804a593:	75 de                	jne    804a573 <handle_token_lbrace+0x9e>
 804a595:	8b 45 f4             	mov    -0xc(%ebp),%eax
 804a598:	83 c0 01             	add    $0x1,%eax
 804a59b:	0f b6 00             	movzbl (%eax),%eax
 804a59e:	3c 2f                	cmp    $0x2f,%al
 804a5a0:	75 d1                	jne    804a573 <handle_token_lbrace+0x9e>
test/unit/artifacts/cpp/modifiedFunctionsDetector/indent-2.2.10/indent.c:1091
 804a5a2:	8b 45 f4             	mov    -0xc(%ebp),%eax
 804a5a5:	0f b6 00             	movzbl (%eax),%eax
 804a5a8:	84 c0                	test   %al,%al
 804a5aa:	74 0a                	je     804a5b6 <handle_token_lbrace+0xe1>
 804a5ac:	8b 45 f4             	mov    -0xc(%ebp),%eax
 804a5af:	0f b6 00             	movzbl (%eax),%eax
 804a5b2:	3c 0a                	cmp    $0xa,%al
 804a5b4:	75 0e                	jne    804a5c4 <handle_token_lbrace+0xef>
test/unit/artifacts/cpp/modifiedFunctionsDetector/indent-2.2.10/indent.c:1093
 804a5b6:	a1 48 9b 05 08       	mov    0x8059b48,%eax
 804a5bb:	c7 40 68 00 00 00 00 	movl   $0x0,0x68(%eax)
test/unit/artifacts/cpp/modifiedFunctionsDetector/indent-2.2.10/indent.c:1094
 804a5c2:	eb 13                	jmp    804a5d7 <handle_token_lbrace+0x102>
test/unit/artifacts/cpp/modifiedFunctionsDetector/indent-2.2.10/indent.c:1096
 804a5c4:	83 45 f4 02          	addl   $0x2,-0xc(%ebp)
test/unit/artifacts/cpp/modifiedFunctionsDetector/indent-2.2.10/indent.c:1098
 804a5c8:	8b 45 f4             	mov    -0xc(%ebp),%eax
 804a5cb:	0f b6 00             	movzbl (%eax),%eax
 804a5ce:	84 c0                	test   %al,%al
 804a5d0:	0f 85 3f ff ff ff    	jne    804a515 <handle_token_lbrace+0x40>
test/unit/artifacts/cpp/modifiedFunctionsDetector/indent-2.2.10/indent.c:1100
 804a5d6:	90                   	nop
test/unit/artifacts/cpp/modifiedFunctionsDetector/indent-2.2.10/indent.c:1110
 804a5d7:	a1 48 9b 05 08       	mov    0x8059b48,%eax
 804a5dc:	8b 40 38             	mov    0x38(%eax),%eax
 804a5df:	85 c0                	test   %eax,%eax
 804a5e1:	7f 0e                	jg     804a5f1 <handle_token_lbrace+0x11c>
test/unit/artifacts/cpp/modifiedFunctionsDetector/indent-2.2.10/indent.c:1112
 804a5e3:	a1 48 9b 05 08       	mov    0x8059b48,%eax
 804a5e8:	c7 40 38 01 00 00 00 	movl   $0x1,0x38(%eax)
 804a5ef:	eb 0e                	jmp    804a5ff <handle_token_lbrace+0x12a>
test/unit/artifacts/cpp/modifiedFunctionsDetector/indent-2.2.10/indent.c:1116
 804a5f1:	a1 48 9b 05 08       	mov    0x8059b48,%eax
 804a5f6:	8b 50 38             	mov    0x38(%eax),%edx
 804a5f9:	83 c2 01             	add    $0x1,%edx
 804a5fc:	89 50 38             	mov    %edx,0x38(%eax)
test/unit/artifacts/cpp/modifiedFunctionsDetector/indent-2.2.10/indent.c:1120
 804a5ff:	8b 15 c0 98 05 08    	mov    0x80598c0,%edx
 804a605:	a1 c4 98 05 08       	mov    0x80598c4,%eax
 804a60a:	39 c2                	cmp    %eax,%edx
 804a60c:	0f 84 ec 00 00 00    	je     804a6fe <handle_token_lbrace+0x229>
 804a612:	a1 48 9b 05 08       	mov    0x8059b48,%eax
 804a617:	8b 40 34             	mov    0x34(%eax),%eax
 804a61a:	83 f8 01             	cmp    $0x1,%eax
 804a61d:	0f 84 db 00 00 00    	je     804a6fe <handle_token_lbrace+0x229>
test/unit/artifacts/cpp/modifiedFunctionsDetector/indent-2.2.10/indent.c:1122
 804a623:	a1 48 9b 05 08       	mov    0x8059b48,%eax
 804a628:	0f b6 40 64          	movzbl 0x64(%eax),%eax
 804a62c:	84 c0                	test   %al,%al
 804a62e:	75 09                	jne    804a639 <handle_token_lbrace+0x164>
 804a630:	a1 18 9a 05 08       	mov    0x8059a18,%eax
 804a635:	85 c0                	test   %eax,%eax
 804a637:	74 1f                	je     804a658 <handle_token_lbrace+0x183>
test/unit/artifacts/cpp/modifiedFunctionsDetector/indent-2.2.10/indent.c:1123
 804a639:	a1 48 9b 05 08       	mov    0x8059b48,%eax
 804a63e:	0f b6 40 64          	movzbl 0x64(%eax),%eax
test/unit/artifacts/cpp/modifiedFunctionsDetector/indent-2.2.10/indent.c:1122
 804a642:	84 c0                	test   %al,%al
 804a644:	74 3e                	je     804a684 <handle_token_lbrace+0x1af>
test/unit/artifacts/cpp/modifiedFunctionsDetector/indent-2.2.10/indent.c:1124
 804a646:	a1 10 9a 05 08       	mov    0x8059a10,%eax
test/unit/artifacts/cpp/modifiedFunctionsDetector/indent-2.2.10/indent.c:1122
 804a64b:	85 c0                	test   %eax,%eax
 804a64d:	75 35                	jne    804a684 <handle_token_lbrace+0x1af>
test/unit/artifacts/cpp/modifiedFunctionsDetector/indent-2.2.10/indent.c:1125
 804a64f:	a1 14 9a 05 08       	mov    0x8059a14,%eax
test/unit/artifacts/cpp/modifiedFunctionsDetector/indent-2.2.10/indent.c:1122
 804a654:	85 c0                	test   %eax,%eax
 804a656:	75 2c                	jne    804a684 <handle_token_lbrace+0x1af>
test/unit/artifacts/cpp/modifiedFunctionsDetector/indent-2.2.10/indent.c:1127
 804a658:	8b 45 14             	mov    0x14(%ebp),%eax
 804a65b:	89 44 24 08          	mov    %eax,0x8(%esp)
 804a65f:	c7 44 24 04 24 99 05 	movl   $0x8059924,0x4(%esp)
 804a666:	08 
 804a667:	c7 04 24 01 00 00 00 	movl   $0x1,(%esp)
 804a66e:	e8 ff 9a 00 00       	call   8054172 <dump_line>
test/unit/artifacts/cpp/modifiedFunctionsDetector/indent-2.2.10/indent.c:1128
 804a673:	a1 48 9b 05 08       	mov    0x8059b48,%eax
 804a678:	c7 80 9c 00 00 00 00 	movl   $0x0,0x9c(%eax)
 804a67f:	00 00 00 
test/unit/artifacts/cpp/modifiedFunctionsDetector/indent-2.2.10/indent.c:1122
 804a682:	eb 7a                	jmp    804a6fe <handle_token_lbrace+0x229>
test/unit/artifacts/cpp/modifiedFunctionsDetector/indent-2.2.10/indent.c:1132
 804a684:	a1 48 9b 05 08       	mov    0x8059b48,%eax
 804a689:	8b 40 6c             	mov    0x6c(%eax),%eax
 804a68c:	85 c0                	test   %eax,%eax
 804a68e:	74 5f                	je     804a6ef <handle_token_lbrace+0x21a>
test/unit/artifacts/cpp/modifiedFunctionsDetector/indent-2.2.10/indent.c:1133
 804a690:	a1 48 9b 05 08       	mov    0x8059b48,%eax
 804a695:	8b 40 4c             	mov    0x4c(%eax),%eax
test/unit/artifacts/cpp/modifiedFunctionsDetector/indent-2.2.10/indent.c:1132
 804a698:	85 c0                	test   %eax,%eax
 804a69a:	75 53                	jne    804a6ef <handle_token_lbrace+0x21a>
test/unit/artifacts/cpp/modifiedFunctionsDetector/indent-2.2.10/indent.c:1135
 804a69c:	a1 48 9b 05 08       	mov    0x8059b48,%eax
 804a6a1:	c7 40 60 00 00 00 00 	movl   $0x0,0x60(%eax)
test/unit/artifacts/cpp/modifiedFunctionsDetector/indent-2.2.10/indent.c:1137
 804a6a8:	a1 14 9a 05 08       	mov    0x8059a14,%eax
 804a6ad:	85 c0                	test   %eax,%eax
 804a6af:	75 1d                	jne    804a6ce <handle_token_lbrace+0x1f9>
test/unit/artifacts/cpp/modifiedFunctionsDetector/indent-2.2.10/indent.c:1139
 804a6b1:	8b 45 14             	mov    0x14(%ebp),%eax
 804a6b4:	89 44 24 08          	mov    %eax,0x8(%esp)
 804a6b8:	c7 44 24 04 24 99 05 	movl   $0x8059924,0x4(%esp)
 804a6bf:	08 
 804a6c0:	c7 04 24 01 00 00 00 	movl   $0x1,(%esp)
 804a6c7:	e8 a6 9a 00 00       	call   8054172 <dump_line>
 804a6cc:	eb 10                	jmp    804a6de <handle_token_lbrace+0x209>
test/unit/artifacts/cpp/modifiedFunctionsDetector/indent-2.2.10/indent.c:1143
 804a6ce:	a1 c4 98 05 08       	mov    0x80598c4,%eax
 804a6d3:	c6 00 20             	movb   $0x20,(%eax)
 804a6d6:	83 c0 01             	add    $0x1,%eax
 804a6d9:	a3 c4 98 05 08       	mov    %eax,0x80598c4
test/unit/artifacts/cpp/modifiedFunctionsDetector/indent-2.2.10/indent.c:1146
 804a6de:	a1 48 9b 05 08       	mov    0x8059b48,%eax
 804a6e3:	c7 80 9c 00 00 00 00 	movl   $0x0,0x9c(%eax)
 804a6ea:	00 00 00 
test/unit/artifacts/cpp/modifiedFunctionsDetector/indent-2.2.10/indent.c:1132
 804a6ed:	eb 0f                	jmp    804a6fe <handle_token_lbrace+0x229>
test/unit/artifacts/cpp/modifiedFunctionsDetector/indent-2.2.10/indent.c:1150
 804a6ef:	a1 48 9b 05 08       	mov    0x8059b48,%eax
 804a6f4:	c7 80 9c 00 00 00 01 	movl   $0x1,0x9c(%eax)
 804a6fb:	00 00 00 
test/unit/artifacts/cpp/modifiedFunctionsDetector/indent-2.2.10/indent.c:1155
 804a6fe:	a1 48 9b 05 08       	mov    0x8059b48,%eax
 804a703:	8b 40 6c             	mov    0x6c(%eax),%eax
 804a706:	85 c0                	test   %eax,%eax
 804a708:	74 0a                	je     804a714 <handle_token_lbrace+0x23f>
test/unit/artifacts/cpp/modifiedFunctionsDetector/indent-2.2.10/indent.c:1157
 804a70a:	c7 05 f8 98 05 08 00 	movl   $0x0,0x80598f8
 804a711:	00 00 00 
test/unit/artifacts/cpp/modifiedFunctionsDetector/indent-2.2.10/indent.c:1160
 804a714:	8b 15 c0 98 05 08    	mov    0x80598c0,%edx
 804a71a:	a1 c4 98 05 08       	mov    0x80598c4,%eax
 804a71f:	39 c2                	cmp    %eax,%edx
 804a721:	75 0c                	jne    804a72f <handle_token_lbrace+0x25a>
test/unit/artifacts/cpp/modifiedFunctionsDetector/indent-2.2.10/indent.c:1162
 804a723:	a1 48 9b 05 08       	mov    0x8059b48,%eax
 804a728:	c7 40 74 00 00 00 00 	movl   $0x0,0x74(%eax)
test/unit/artifacts/cpp/modifiedFunctionsDetector/indent-2.2.10/indent.c:1166
 804a72f:	a1 48 9b 05 08       	mov    0x8059b48,%eax
 804a734:	0f b6 40 64          	movzbl 0x64(%eax),%eax
 804a738:	84 c0                	test   %al,%al
 804a73a:	74 70                	je     804a7ac <handle_token_lbrace+0x2d7>
 804a73c:	a1 48 9b 05 08       	mov    0x8059b48,%eax
 804a741:	8b 40 4c             	mov    0x4c(%eax),%eax
 804a744:	85 c0                	test   %eax,%eax
 804a746:	74 64                	je     804a7ac <handle_token_lbrace+0x2d7>
test/unit/artifacts/cpp/modifiedFunctionsDetector/indent-2.2.10/indent.c:1170
 804a748:	a1 48 9b 05 08       	mov    0x8059b48,%eax
 804a74d:	8b 50 58             	mov    0x58(%eax),%edx
 804a750:	a1 14 99 05 08       	mov    0x8059914,%eax
 804a755:	39 c2                	cmp    %eax,%edx
 804a757:	7c 2e                	jl     804a787 <handle_token_lbrace+0x2b2>
test/unit/artifacts/cpp/modifiedFunctionsDetector/indent-2.2.10/indent.c:1172
 804a759:	a1 14 99 05 08       	mov    0x8059914,%eax
 804a75e:	01 c0                	add    %eax,%eax
 804a760:	a3 14 99 05 08       	mov    %eax,0x8059914
test/unit/artifacts/cpp/modifiedFunctionsDetector/indent-2.2.10/indent.c:1174
 804a765:	a1 14 99 05 08       	mov    0x8059914,%eax
 804a76a:	8d 14 85 00 00 00 00 	lea    0x0(,%eax,4),%edx
 804a771:	a1 10 99 05 08       	mov    0x8059910,%eax
 804a776:	89 54 24 04          	mov    %edx,0x4(%esp)
 804a77a:	89 04 24             	mov    %eax,(%esp)
 804a77d:	e8 8c 7c 00 00       	call   805240e <xrealloc>
test/unit/artifacts/cpp/modifiedFunctionsDetector/indent-2.2.10/indent.c:1173
 804a782:	a3 10 99 05 08       	mov    %eax,0x8059910
test/unit/artifacts/cpp/modifiedFunctionsDetector/indent-2.2.10/indent.c:1178
 804a787:	8b 0d 10 99 05 08    	mov    0x8059910,%ecx
 804a78d:	a1 48 9b 05 08       	mov    0x8059b48,%eax
 804a792:	8b 50 58             	mov    0x58(%eax),%edx
 804a795:	89 d3                	mov    %edx,%ebx
 804a797:	c1 e3 02             	shl    $0x2,%ebx
 804a79a:	8d 1c 19             	lea    (%ecx,%ebx,1),%ebx
 804a79d:	8b 4d 0c             	mov    0xc(%ebp),%ecx
 804a7a0:	8b 09                	mov    (%ecx),%ecx
 804a7a2:	89 0b                	mov    %ecx,(%ebx)
 804a7a4:	83 c2 01             	add    $0x1,%edx
 804a7a7:	89 50 58             	mov    %edx,0x58(%eax)
test/unit/artifacts/cpp/modifiedFunctionsDetector/indent-2.2.10/indent.c:1166
 804a7aa:	eb 21                	jmp    804a7cd <handle_token_lbrace+0x2f8>
test/unit/artifacts/cpp/modifiedFunctionsDetector/indent-2.2.10/indent.c:1182
 804a7ac:	a1 48 9b 05 08       	mov    0x8059b48,%eax
 804a7b1:	c6 40 64 00          	movb   $0x0,0x64(%eax)
test/unit/artifacts/cpp/modifiedFunctionsDetector/indent-2.2.10/indent.c:1183
 804a7b5:	a1 48 9b 05 08       	mov    0x8059b48,%eax
 804a7ba:	c7 40 5c 00 00 00 00 	movl   $0x0,0x5c(%eax)
test/unit/artifacts/cpp/modifiedFunctionsDetector/indent-2.2.10/indent.c:1190
 804a7c1:	a1 48 9b 05 08       	mov    0x8059b48,%eax
 804a7c6:	c7 40 6c 00 00 00 00 	movl   $0x0,0x6c(%eax)
test/unit/artifacts/cpp/modifiedFunctionsDetector/indent-2.2.10/indent.c:1193
 804a7cd:	8b 45 0c             	mov    0xc(%ebp),%eax
 804a7d0:	c7 00 00 00 00 00    	movl   $0x0,(%eax)
test/unit/artifacts/cpp/modifiedFunctionsDetector/indent-2.2.10/indent.c:1199
 804a7d6:	a1 48 9b 05 08       	mov    0x8059b48,%eax
 804a7db:	c7 40 4c 00 00 00 00 	movl   $0x0,0x4c(%eax)
test/unit/artifacts/cpp/modifiedFunctionsDetector/indent-2.2.10/indent.c:1203
 804a7e2:	c7 04 24 0d 00 00 00 	movl   $0xd,(%esp)
 804a7e9:	e8 41 70 00 00       	call   805182f <parse>
 804a7ee:	85 c0                	test   %eax,%eax
 804a7f0:	74 09                	je     804a7fb <handle_token_lbrace+0x326>
test/unit/artifacts/cpp/modifiedFunctionsDetector/indent-2.2.10/indent.c:1205
 804a7f2:	8b 45 10             	mov    0x10(%ebp),%eax
 804a7f5:	c7 00 02 00 00 00    	movl   $0x2,(%eax)
test/unit/artifacts/cpp/modifiedFunctionsDetector/indent-2.2.10/indent.c:1209
 804a7fb:	a1 24 99 05 08       	mov    0x8059924,%eax
 804a800:	89 44 24 04          	mov    %eax,0x4(%esp)
 804a804:	c7 04 24 10 00 00 00 	movl   $0x10,(%esp)
 804a80b:	e8 b3 86 00 00       	call   8052ec3 <set_buf_break>
test/unit/artifacts/cpp/modifiedFunctionsDetector/indent-2.2.10/indent.c:1211
 804a810:	a1 48 9b 05 08       	mov    0x8059b48,%eax
 804a815:	8b 80 9c 00 00 00    	mov    0x9c(%eax),%eax
 804a81b:	85 c0                	test   %eax,%eax
 804a81d:	74 1f                	je     804a83e <handle_token_lbrace+0x369>
 804a81f:	8b 15 c0 98 05 08    	mov    0x80598c0,%edx
 804a825:	a1 c4 98 05 08       	mov    0x80598c4,%eax
 804a82a:	39 c2                	cmp    %eax,%edx
 804a82c:	74 10                	je     804a83e <handle_token_lbrace+0x369>
test/unit/artifacts/cpp/modifiedFunctionsDetector/indent-2.2.10/indent.c:1215
 804a82e:	a1 c4 98 05 08       	mov    0x80598c4,%eax
 804a833:	c6 00 20             	movb   $0x20,(%eax)
 804a836:	83 c0 01             	add    $0x1,%eax
 804a839:	a3 c4 98 05 08       	mov    %eax,0x80598c4
test/unit/artifacts/cpp/modifiedFunctionsDetector/indent-2.2.10/indent.c:1218
 804a83e:	a1 48 9b 05 08       	mov    0x8059b48,%eax
 804a843:	c7 80 9c 00 00 00 00 	movl   $0x0,0x9c(%eax)
 804a84a:	00 00 00 
test/unit/artifacts/cpp/modifiedFunctionsDetector/indent-2.2.10/indent.c:1219
 804a84d:	a1 c4 98 05 08       	mov    0x80598c4,%eax
 804a852:	c6 00 7b             	movb   $0x7b,(%eax)
 804a855:	83 c0 01             	add    $0x1,%eax
 804a858:	a3 c4 98 05 08       	mov    %eax,0x80598c4
test/unit/artifacts/cpp/modifiedFunctionsDetector/indent-2.2.10/indent.c:1220
 804a85d:	a1 c4 98 05 08       	mov    0x80598c4,%eax
 804a862:	c6 00 00             	movb   $0x0,(%eax)
test/unit/artifacts/cpp/modifiedFunctionsDetector/indent-2.2.10/indent.c:1222
 804a865:	a1 48 9b 05 08       	mov    0x8059b48,%eax
 804a86a:	c7 80 bc 00 00 00 00 	movl   $0x0,0xbc(%eax)
 804a871:	00 00 00 
test/unit/artifacts/cpp/modifiedFunctionsDetector/indent-2.2.10/indent.c:1224
 804a874:	a1 48 9b 05 08       	mov    0x8059b48,%eax
 804a879:	8b 40 34             	mov    0x34(%eax),%eax
 804a87c:	85 c0                	test   %eax,%eax
 804a87e:	0f 84 c1 00 00 00    	je     804a945 <handle_token_lbrace+0x470>
test/unit/artifacts/cpp/modifiedFunctionsDetector/indent-2.2.10/indent.c:1225
 804a884:	a1 48 9b 05 08       	mov    0x8059b48,%eax
 804a889:	8b 40 38             	mov    0x38(%eax),%eax
test/unit/artifacts/cpp/modifiedFunctionsDetector/indent-2.2.10/indent.c:1224
 804a88c:	83 f8 01             	cmp    $0x1,%eax
 804a88f:	0f 8e b0 00 00 00    	jle    804a945 <handle_token_lbrace+0x470>
test/unit/artifacts/cpp/modifiedFunctionsDetector/indent-2.2.10/indent.c:1230
 804a895:	a1 48 9b 05 08       	mov    0x8059b48,%eax
 804a89a:	8b 50 7c             	mov    0x7c(%eax),%edx
 804a89d:	83 c2 01             	add    $0x1,%edx
 804a8a0:	89 50 7c             	mov    %edx,0x7c(%eax)
 804a8a3:	8b 50 7c             	mov    0x7c(%eax),%edx
test/unit/artifacts/cpp/modifiedFunctionsDetector/indent-2.2.10/indent.c:1231
 804a8a6:	a1 48 9b 05 08       	mov    0x8059b48,%eax
test/unit/artifacts/cpp/modifiedFunctionsDetector/indent-2.2.10/indent.c:1230
 804a8ab:	8b 80 8c 00 00 00    	mov    0x8c(%eax),%eax
 804a8b1:	39 c2                	cmp    %eax,%edx
 804a8b3:	7c 4a                	jl     804a8ff <handle_token_lbrace+0x42a>
test/unit/artifacts/cpp/modifiedFunctionsDetector/indent-2.2.10/indent.c:1233
 804a8b5:	a1 48 9b 05 08       	mov    0x8059b48,%eax
 804a8ba:	8b 15 48 9b 05 08    	mov    0x8059b48,%edx
 804a8c0:	8b 92 8c 00 00 00    	mov    0x8c(%edx),%edx
 804a8c6:	01 d2                	add    %edx,%edx
 804a8c8:	89 90 8c 00 00 00    	mov    %edx,0x8c(%eax)
test/unit/artifacts/cpp/modifiedFunctionsDetector/indent-2.2.10/indent.c:1234
 804a8ce:	8b 1d 48 9b 05 08    	mov    0x8059b48,%ebx
test/unit/artifacts/cpp/modifiedFunctionsDetector/indent-2.2.10/indent.c:1237
 804a8d4:	a1 48 9b 05 08       	mov    0x8059b48,%eax
test/unit/artifacts/cpp/modifiedFunctionsDetector/indent-2.2.10/indent.c:1235
 804a8d9:	8b 80 8c 00 00 00    	mov    0x8c(%eax),%eax
 804a8df:	8d 14 00             	lea    (%eax,%eax,1),%edx
 804a8e2:	a1 48 9b 05 08       	mov    0x8059b48,%eax
 804a8e7:	8b 80 88 00 00 00    	mov    0x88(%eax),%eax
 804a8ed:	89 54 24 04          	mov    %edx,0x4(%esp)
 804a8f1:	89 04 24             	mov    %eax,(%esp)
 804a8f4:	e8 15 7b 00 00       	call   805240e <xrealloc>
test/unit/artifacts/cpp/modifiedFunctionsDetector/indent-2.2.10/indent.c:1234
 804a8f9:	89 83 88 00 00 00    	mov    %eax,0x88(%ebx)
test/unit/artifacts/cpp/modifiedFunctionsDetector/indent-2.2.10/indent.c:1241
 804a8ff:	a1 48 9b 05 08       	mov    0x8059b48,%eax
 804a904:	8b 90 84 00 00 00    	mov    0x84(%eax),%edx
 804a90a:	83 c2 01             	add    $0x1,%edx
 804a90d:	89 90 84 00 00 00    	mov    %edx,0x84(%eax)
test/unit/artifacts/cpp/modifiedFunctionsDetector/indent-2.2.10/indent.c:1242
 804a913:	a1 48 9b 05 08       	mov    0x8059b48,%eax
 804a918:	8b 90 88 00 00 00    	mov    0x88(%eax),%edx
 804a91e:	a1 48 9b 05 08       	mov    0x8059b48,%eax
 804a923:	8b 40 7c             	mov    0x7c(%eax),%eax
 804a926:	83 e8 01             	sub    $0x1,%eax
 804a929:	01 c0                	add    %eax,%eax
 804a92b:	01 c2                	add    %eax,%edx
 804a92d:	a1 c4 98 05 08       	mov    0x80598c4,%eax
 804a932:	89 c1                	mov    %eax,%ecx
 804a934:	a1 c0 98 05 08       	mov    0x80598c0,%eax
 804a939:	89 cb                	mov    %ecx,%ebx
 804a93b:	66 29 c3             	sub    %ax,%bx
 804a93e:	89 d8                	mov    %ebx,%eax
 804a940:	66 89 02             	mov    %ax,(%edx)
test/unit/artifacts/cpp/modifiedFunctionsDetector/indent-2.2.10/indent.c:1224
 804a943:	eb 28                	jmp    804a96d <handle_token_lbrace+0x498>
test/unit/artifacts/cpp/modifiedFunctionsDetector/indent-2.2.10/indent.c:1245
 804a945:	a1 48 9b 05 08       	mov    0x8059b48,%eax
 804a94a:	8b 40 34             	mov    0x34(%eax),%eax
 804a94d:	85 c0                	test   %eax,%eax
 804a94f:	74 1c                	je     804a96d <handle_token_lbrace+0x498>
test/unit/artifacts/cpp/modifiedFunctionsDetector/indent-2.2.10/indent.c:1246
 804a951:	a1 48 9b 05 08       	mov    0x8059b48,%eax
 804a956:	8b 40 38             	mov    0x38(%eax),%eax
test/unit/artifacts/cpp/modifiedFunctionsDetector/indent-2.2.10/indent.c:1245
 804a959:	83 f8 01             	cmp    $0x1,%eax
 804a95c:	75 0f                	jne    804a96d <handle_token_lbrace+0x498>
test/unit/artifacts/cpp/modifiedFunctionsDetector/indent-2.2.10/indent.c:1250
 804a95e:	a1 48 9b 05 08       	mov    0x8059b48,%eax
 804a963:	c7 80 9c 00 00 00 01 	movl   $0x1,0x9c(%eax)
 804a96a:	00 00 00 
test/unit/artifacts/cpp/modifiedFunctionsDetector/indent-2.2.10/indent.c:1256
 804a96d:	83 c4 24             	add    $0x24,%esp
 804a970:	5b                   	pop    %ebx
 804a971:	5d                   	pop    %ebp
 804a972:	c3                   	ret    

0804a973 <handle_token_rbrace>:
handle_token_rbrace():
test/unit/artifacts/cpp/modifiedFunctionsDetector/indent-2.2.10/indent.c:1267
 804a973:	55                   	push   %ebp
 804a974:	89 e5                	mov    %esp,%ebp
 804a976:	56                   	push   %esi
 804a977:	53                   	push   %ebx
 804a978:	83 ec 10             	sub    $0x10,%esp
test/unit/artifacts/cpp/modifiedFunctionsDetector/indent-2.2.10/indent.c:1269
 804a97b:	a1 48 9b 05 08       	mov    0x8059b48,%eax
 804a980:	8b 50 08             	mov    0x8(%eax),%edx
 804a983:	a1 48 9b 05 08       	mov    0x8059b48,%eax
 804a988:	8b 40 20             	mov    0x20(%eax),%eax
 804a98b:	c1 e0 02             	shl    $0x2,%eax
 804a98e:	8d 04 02             	lea    (%edx,%eax,1),%eax
 804a991:	8b 00                	mov    (%eax),%eax
 804a993:	83 f8 18             	cmp    $0x18,%eax
 804a996:	75 0c                	jne    804a9a4 <handle_token_rbrace+0x31>
test/unit/artifacts/cpp/modifiedFunctionsDetector/indent-2.2.10/indent.c:1270
 804a998:	a1 48 9b 05 08       	mov    0x8059b48,%eax
 804a99d:	8b 40 34             	mov    0x34(%eax),%eax
test/unit/artifacts/cpp/modifiedFunctionsDetector/indent-2.2.10/indent.c:1269
 804a9a0:	85 c0                	test   %eax,%eax
 804a9a2:	74 1d                	je     804a9c1 <handle_token_rbrace+0x4e>
test/unit/artifacts/cpp/modifiedFunctionsDetector/indent-2.2.10/indent.c:1272
 804a9a4:	a1 48 9b 05 08       	mov    0x8059b48,%eax
 804a9a9:	8b 50 08             	mov    0x8(%eax),%edx
 804a9ac:	a1 48 9b 05 08       	mov    0x8059b48,%eax
 804a9b1:	8b 40 20             	mov    0x20(%eax),%eax
 804a9b4:	c1 e0 02             	shl    $0x2,%eax
 804a9b7:	8d 04 02             	lea    (%edx,%eax,1),%eax
 804a9ba:	8b 00                	mov    (%eax),%eax
test/unit/artifacts/cpp/modifiedFunctionsDetector/indent-2.2.10/indent.c:1269
 804a9bc:	83 f8 09             	cmp    $0x9,%eax
 804a9bf:	75 19                	jne    804a9da <handle_token_rbrace+0x67>
test/unit/artifacts/cpp/modifiedFunctionsDetector/indent-2.2.10/indent.c:1274
 804a9c1:	c7 04 24 0c 00 00 00 	movl   $0xc,(%esp)
 804a9c8:	e8 62 6e 00 00       	call   805182f <parse>
 804a9cd:	85 c0                	test   %eax,%eax
 804a9cf:	74 09                	je     804a9da <handle_token_rbrace+0x67>
test/unit/artifacts/cpp/modifiedFunctionsDetector/indent-2.2.10/indent.c:1276
 804a9d1:	8b 45 10             	mov    0x10(%ebp),%eax
 804a9d4:	c7 00 02 00 00 00    	movl   $0x2,(%eax)
test/unit/artifacts/cpp/modifiedFunctionsDetector/indent-2.2.10/indent.c:1280
 804a9da:	a1 48 9b 05 08       	mov    0x8059b48,%eax
 804a9df:	c7 80 bc 00 00 00 00 	movl   $0x0,0xbc(%eax)
 804a9e6:	00 00 00 
test/unit/artifacts/cpp/modifiedFunctionsDetector/indent-2.2.10/indent.c:1281
 804a9e9:	a1 48 9b 05 08       	mov    0x8059b48,%eax
 804a9ee:	c7 40 74 00 00 00 00 	movl   $0x0,0x74(%eax)
test/unit/artifacts/cpp/modifiedFunctionsDetector/indent-2.2.10/indent.c:1282
 804a9f5:	a1 48 9b 05 08       	mov    0x8059b48,%eax
 804a9fa:	c7 40 68 00 00 00 00 	movl   $0x0,0x68(%eax)
test/unit/artifacts/cpp/modifiedFunctionsDetector/indent-2.2.10/indent.c:1284
 804aa01:	a1 48 9b 05 08       	mov    0x8059b48,%eax
 804aa06:	8b 50 38             	mov    0x38(%eax),%edx
 804aa09:	83 fa 01             	cmp    $0x1,%edx
 804aa0c:	0f 94 c1             	sete   %cl
 804aa0f:	83 ea 01             	sub    $0x1,%edx
 804aa12:	89 50 38             	mov    %edx,0x38(%eax)
 804aa15:	84 c9                	test   %cl,%cl
 804aa17:	74 60                	je     804aa79 <handle_token_rbrace+0x106>
test/unit/artifacts/cpp/modifiedFunctionsDetector/indent-2.2.10/indent.c:1285
 804aa19:	8b 15 c0 98 05 08    	mov    0x80598c0,%edx
 804aa1f:	a1 c4 98 05 08       	mov    0x80598c4,%eax
test/unit/artifacts/cpp/modifiedFunctionsDetector/indent-2.2.10/indent.c:1284
 804aa24:	39 c2                	cmp    %eax,%edx
 804aa26:	74 51                	je     804aa79 <handle_token_rbrace+0x106>
test/unit/artifacts/cpp/modifiedFunctionsDetector/indent-2.2.10/indent.c:1290
 804aa28:	a1 48 9b 05 08       	mov    0x8059b48,%eax
 804aa2d:	8b 80 c0 00 00 00    	mov    0xc0(%eax),%eax
 804aa33:	85 c0                	test   %eax,%eax
 804aa35:	79 1d                	jns    804aa54 <handle_token_rbrace+0xe1>
test/unit/artifacts/cpp/modifiedFunctionsDetector/indent-2.2.10/indent.c:1295
 804aa37:	8b 45 14             	mov    0x14(%ebp),%eax
 804aa3a:	89 44 24 08          	mov    %eax,0x8(%esp)
 804aa3e:	c7 44 24 04 24 99 05 	movl   $0x8059924,0x4(%esp)
 804aa45:	08 
 804aa46:	c7 04 24 01 00 00 00 	movl   $0x1,(%esp)
 804aa4d:	e8 20 97 00 00       	call   8054172 <dump_line>
 804aa52:	eb 25                	jmp    804aa79 <handle_token_rbrace+0x106>
test/unit/artifacts/cpp/modifiedFunctionsDetector/indent-2.2.10/indent.c:1300
 804aa54:	a1 24 99 05 08       	mov    0x8059924,%eax
 804aa59:	89 44 24 04          	mov    %eax,0x4(%esp)
 804aa5d:	c7 04 24 11 00 00 00 	movl   $0x11,(%esp)
 804aa64:	e8 5a 84 00 00       	call   8052ec3 <set_buf_break>
test/unit/artifacts/cpp/modifiedFunctionsDetector/indent-2.2.10/indent.c:1301
 804aa69:	a1 c4 98 05 08       	mov    0x80598c4,%eax
 804aa6e:	c6 00 20             	movb   $0x20,(%eax)
 804aa71:	83 c0 01             	add    $0x1,%eax
 804aa74:	a3 c4 98 05 08       	mov    %eax,0x80598c4
test/unit/artifacts/cpp/modifiedFunctionsDetector/indent-2.2.10/indent.c:1305
 804aa79:	a1 c4 98 05 08       	mov    0x80598c4,%eax
 804aa7e:	c6 00 7d             	movb   $0x7d,(%eax)
 804aa81:	83 c0 01             	add    $0x1,%eax
 804aa84:	a3 c4 98 05 08       	mov    %eax,0x80598c4
test/unit/artifacts/cpp/modifiedFunctionsDetector/indent-2.2.10/indent.c:1306
 804aa89:	a1 48 9b 05 08       	mov    0x8059b48,%eax
 804aa8e:	c7 80 9c 00 00 00 01 	movl   $0x1,0x9c(%eax)
 804aa95:	00 00 00 
test/unit/artifacts/cpp/modifiedFunctionsDetector/indent-2.2.10/indent.c:1308
 804aa98:	a1 48 9b 05 08       	mov    0x8059b48,%eax
 804aa9d:	8b 40 34             	mov    0x34(%eax),%eax
 804aaa0:	85 c0                	test   %eax,%eax
 804aaa2:	0f 84 86 00 00 00    	je     804ab2e <handle_token_rbrace+0x1bb>
test/unit/artifacts/cpp/modifiedFunctionsDetector/indent-2.2.10/indent.c:1309
 804aaa8:	a1 48 9b 05 08       	mov    0x8059b48,%eax
 804aaad:	8b 40 38             	mov    0x38(%eax),%eax
test/unit/artifacts/cpp/modifiedFunctionsDetector/indent-2.2.10/indent.c:1308
 804aab0:	85 c0                	test   %eax,%eax
 804aab2:	7e 7a                	jle    804ab2e <handle_token_rbrace+0x1bb>
test/unit/artifacts/cpp/modifiedFunctionsDetector/indent-2.2.10/indent.c:1313
 804aab4:	a1 48 9b 05 08       	mov    0x8059b48,%eax
 804aab9:	8b 90 84 00 00 00    	mov    0x84(%eax),%edx
 804aabf:	83 ea 01             	sub    $0x1,%edx
 804aac2:	89 90 84 00 00 00    	mov    %edx,0x84(%eax)
test/unit/artifacts/cpp/modifiedFunctionsDetector/indent-2.2.10/indent.c:1315
 804aac8:	a1 48 9b 05 08       	mov    0x8059b48,%eax
 804aacd:	8b 50 7c             	mov    0x7c(%eax),%edx
 804aad0:	83 ea 01             	sub    $0x1,%edx
 804aad3:	89 50 7c             	mov    %edx,0x7c(%eax)
 804aad6:	8b 40 7c             	mov    0x7c(%eax),%eax
 804aad9:	85 c0                	test   %eax,%eax
 804aadb:	0f 89 af 00 00 00    	jns    804ab90 <handle_token_rbrace+0x21d>
test/unit/artifacts/cpp/modifiedFunctionsDetector/indent-2.2.10/indent.c:1317
 804aae1:	a1 48 9b 05 08       	mov    0x8059b48,%eax
 804aae6:	c7 40 7c 00 00 00 00 	movl   $0x0,0x7c(%eax)
test/unit/artifacts/cpp/modifiedFunctionsDetector/indent-2.2.10/indent.c:1318
 804aaed:	a1 c0 9b 05 08       	mov    0x8059bc0,%eax
 804aaf2:	0f b6 00             	movzbl (%eax),%eax
 804aaf5:	0f b6 c0             	movzbl %al,%eax
 804aaf8:	89 c6                	mov    %eax,%esi
 804aafa:	c7 04 24 13 50 05 08 	movl   $0x8055013,(%esp)
 804ab01:	e8 96 e0 ff ff       	call   8048b9c <gettext@plt>
 804ab06:	89 c3                	mov    %eax,%ebx
 804ab08:	c7 04 24 1c 50 05 08 	movl   $0x805501c,(%esp)
 804ab0f:	e8 88 e0 ff ff       	call   8048b9c <gettext@plt>
 804ab14:	c7 44 24 0c 00 00 00 	movl   $0x0,0xc(%esp)
 804ab1b:	00 
 804ab1c:	89 74 24 08          	mov    %esi,0x8(%esp)
 804ab20:	89 5c 24 04          	mov    %ebx,0x4(%esp)
 804ab24:	89 04 24             	mov    %eax,(%esp)
 804ab27:	e8 33 79 00 00       	call   805245f <message>
test/unit/artifacts/cpp/modifiedFunctionsDetector/indent-2.2.10/indent.c:1308
 804ab2c:	eb 63                	jmp    804ab91 <handle_token_rbrace+0x21e>
test/unit/artifacts/cpp/modifiedFunctionsDetector/indent-2.2.10/indent.c:1322
 804ab2e:	a1 48 9b 05 08       	mov    0x8059b48,%eax
 804ab33:	8b 40 58             	mov    0x58(%eax),%eax
 804ab36:	85 c0                	test   %eax,%eax
 804ab38:	7e 57                	jle    804ab91 <handle_token_rbrace+0x21e>
test/unit/artifacts/cpp/modifiedFunctionsDetector/indent-2.2.10/indent.c:1327
 804ab3a:	8b 15 10 99 05 08    	mov    0x8059910,%edx
 804ab40:	a1 48 9b 05 08       	mov    0x8059b48,%eax
 804ab45:	8b 48 58             	mov    0x58(%eax),%ecx
 804ab48:	83 e9 01             	sub    $0x1,%ecx
 804ab4b:	89 48 58             	mov    %ecx,0x58(%eax)
 804ab4e:	8b 40 58             	mov    0x58(%eax),%eax
 804ab51:	c1 e0 02             	shl    $0x2,%eax
 804ab54:	8d 04 02             	lea    (%edx,%eax,1),%eax
 804ab57:	8b 10                	mov    (%eax),%edx
 804ab59:	8b 45 0c             	mov    0xc(%ebp),%eax
 804ab5c:	89 10                	mov    %edx,(%eax)
test/unit/artifacts/cpp/modifiedFunctionsDetector/indent-2.2.10/indent.c:1329
 804ab5e:	a1 48 9b 05 08       	mov    0x8059b48,%eax
 804ab63:	8b 40 58             	mov    0x58(%eax),%eax
 804ab66:	85 c0                	test   %eax,%eax
 804ab68:	75 1b                	jne    804ab85 <handle_token_rbrace+0x212>
test/unit/artifacts/cpp/modifiedFunctionsDetector/indent-2.2.10/indent.c:1330
 804ab6a:	a1 48 9b 05 08       	mov    0x8059b48,%eax
 804ab6f:	8b 40 6c             	mov    0x6c(%eax),%eax
test/unit/artifacts/cpp/modifiedFunctionsDetector/indent-2.2.10/indent.c:1329
 804ab72:	85 c0                	test   %eax,%eax
 804ab74:	75 0f                	jne    804ab85 <handle_token_rbrace+0x212>
test/unit/artifacts/cpp/modifiedFunctionsDetector/indent-2.2.10/indent.c:1332
 804ab76:	a1 48 9b 05 08       	mov    0x8059b48,%eax
 804ab7b:	c7 80 bc 00 00 00 02 	movl   $0x2,0xbc(%eax)
 804ab82:	00 00 00 
test/unit/artifacts/cpp/modifiedFunctionsDetector/indent-2.2.10/indent.c:1335
 804ab85:	a1 48 9b 05 08       	mov    0x8059b48,%eax
 804ab8a:	c6 40 64 01          	movb   $0x1,0x64(%eax)
 804ab8e:	eb 01                	jmp    804ab91 <handle_token_rbrace+0x21e>
test/unit/artifacts/cpp/modifiedFunctionsDetector/indent-2.2.10/indent.c:1308
 804ab90:	90                   	nop
test/unit/artifacts/cpp/modifiedFunctionsDetector/indent-2.2.10/indent.c:1342
 804ab91:	c7 05 f8 98 05 08 00 	movl   $0x0,0x80598f8
 804ab98:	00 00 00 
test/unit/artifacts/cpp/modifiedFunctionsDetector/indent-2.2.10/indent.c:1344
 804ab9b:	c7 04 24 0e 00 00 00 	movl   $0xe,(%esp)
 804aba2:	e8 88 6c 00 00       	call   805182f <parse>
 804aba7:	85 c0                	test   %eax,%eax
 804aba9:	74 09                	je     804abb4 <handle_token_rbrace+0x241>
test/unit/artifacts/cpp/modifiedFunctionsDetector/indent-2.2.10/indent.c:1346
 804abab:	8b 45 10             	mov    0x10(%ebp),%eax
 804abae:	c7 00 02 00 00 00    	movl   $0x2,(%eax)
test/unit/artifacts/cpp/modifiedFunctionsDetector/indent-2.2.10/indent.c:1349
 804abb4:	8b 15 48 9b 05 08    	mov    0x8059b48,%edx
test/unit/artifacts/cpp/modifiedFunctionsDetector/indent-2.2.10/indent.c:1350
 804abba:	a1 a4 99 05 08       	mov    0x80599a4,%eax
 804abbf:	85 c0                	test   %eax,%eax
 804abc1:	74 1d                	je     804abe0 <handle_token_rbrace+0x26d>
test/unit/artifacts/cpp/modifiedFunctionsDetector/indent-2.2.10/indent.c:1351
 804abc3:	a1 48 9b 05 08       	mov    0x8059b48,%eax
 804abc8:	8b 48 08             	mov    0x8(%eax),%ecx
 804abcb:	a1 48 9b 05 08       	mov    0x8059b48,%eax
 804abd0:	8b 40 20             	mov    0x20(%eax),%eax
 804abd3:	c1 e0 02             	shl    $0x2,%eax
 804abd6:	8d 04 01             	lea    (%ecx,%eax,1),%eax
 804abd9:	8b 00                	mov    (%eax),%eax
test/unit/artifacts/cpp/modifiedFunctionsDetector/indent-2.2.10/indent.c:1350
 804abdb:	83 f8 26             	cmp    $0x26,%eax
 804abde:	74 26                	je     804ac06 <handle_token_rbrace+0x293>
test/unit/artifacts/cpp/modifiedFunctionsDetector/indent-2.2.10/indent.c:1352
 804abe0:	a1 a8 99 05 08       	mov    0x80599a8,%eax
test/unit/artifacts/cpp/modifiedFunctionsDetector/indent-2.2.10/indent.c:1350
 804abe5:	85 c0                	test   %eax,%eax
 804abe7:	74 24                	je     804ac0d <handle_token_rbrace+0x29a>
test/unit/artifacts/cpp/modifiedFunctionsDetector/indent-2.2.10/indent.c:1353
 804abe9:	a1 48 9b 05 08       	mov    0x8059b48,%eax
 804abee:	8b 48 08             	mov    0x8(%eax),%ecx
 804abf1:	a1 48 9b 05 08       	mov    0x8059b48,%eax
 804abf6:	8b 40 20             	mov    0x20(%eax),%eax
 804abf9:	c1 e0 02             	shl    $0x2,%eax
 804abfc:	8d 04 01             	lea    (%ecx,%eax,1),%eax
 804abff:	8b 00                	mov    (%eax),%eax
test/unit/artifacts/cpp/modifiedFunctionsDetector/indent-2.2.10/indent.c:1350
 804ac01:	83 f8 24             	cmp    $0x24,%eax
 804ac04:	75 07                	jne    804ac0d <handle_token_rbrace+0x29a>
 804ac06:	b8 01 00 00 00       	mov    $0x1,%eax
 804ac0b:	eb 05                	jmp    804ac12 <handle_token_rbrace+0x29f>
 804ac0d:	b8 00 00 00 00       	mov    $0x0,%eax
test/unit/artifacts/cpp/modifiedFunctionsDetector/indent-2.2.10/indent.c:1349
 804ac12:	89 82 94 00 00 00    	mov    %eax,0x94(%edx)
test/unit/artifacts/cpp/modifiedFunctionsDetector/indent-2.2.10/indent.c:1355
 804ac18:	a1 48 9b 05 08       	mov    0x8059b48,%eax
 804ac1d:	8b 50 08             	mov    0x8(%eax),%edx
 804ac20:	a1 48 9b 05 08       	mov    0x8059b48,%eax
 804ac25:	8b 40 20             	mov    0x20(%eax),%eax
 804ac28:	c1 e0 02             	shl    $0x2,%eax
 804ac2b:	8d 04 02             	lea    (%edx,%eax,1),%eax
 804ac2e:	8b 00                	mov    (%eax),%eax
 804ac30:	83 f8 21             	cmp    $0x21,%eax
 804ac33:	75 2d                	jne    804ac62 <handle_token_rbrace+0x2ef>
test/unit/artifacts/cpp/modifiedFunctionsDetector/indent-2.2.10/indent.c:1357
 804ac35:	a1 48 9b 05 08       	mov    0x8059b48,%eax
 804ac3a:	8b 40 14             	mov    0x14(%eax),%eax
 804ac3d:	83 f8 05             	cmp    $0x5,%eax
 804ac40:	74 20                	je     804ac62 <handle_token_rbrace+0x2ef>
test/unit/artifacts/cpp/modifiedFunctionsDetector/indent-2.2.10/indent.c:1358
 804ac42:	a1 48 9b 05 08       	mov    0x8059b48,%eax
 804ac47:	8b 40 14             	mov    0x14(%eax),%eax
test/unit/artifacts/cpp/modifiedFunctionsDetector/indent-2.2.10/indent.c:1357
 804ac4a:	83 f8 06             	cmp    $0x6,%eax
 804ac4d:	74 13                	je     804ac62 <handle_token_rbrace+0x2ef>
test/unit/artifacts/cpp/modifiedFunctionsDetector/indent-2.2.10/indent.c:1359
 804ac4f:	a1 48 9b 05 08       	mov    0x8059b48,%eax
 804ac54:	8b 40 14             	mov    0x14(%eax),%eax
test/unit/artifacts/cpp/modifiedFunctionsDetector/indent-2.2.10/indent.c:1357
 804ac57:	83 f8 07             	cmp    $0x7,%eax
 804ac5a:	74 06                	je     804ac62 <handle_token_rbrace+0x2ef>
test/unit/artifacts/cpp/modifiedFunctionsDetector/indent-2.2.10/indent.c:1361
 804ac5c:	8b 45 08             	mov    0x8(%ebp),%eax
 804ac5f:	c6 00 01             	movb   $0x1,(%eax)
test/unit/artifacts/cpp/modifiedFunctionsDetector/indent-2.2.10/indent.c:1376
 804ac62:	a1 48 9b 05 08       	mov    0x8059b48,%eax
 804ac67:	8b 50 08             	mov    0x8(%eax),%edx
 804ac6a:	a1 48 9b 05 08       	mov    0x8059b48,%eax
 804ac6f:	8b 40 20             	mov    0x20(%eax),%eax
 804ac72:	c1 e0 02             	shl    $0x2,%eax
 804ac75:	8d 04 02             	lea    (%edx,%eax,1),%eax
 804ac78:	8b 00                	mov    (%eax),%eax
 804ac7a:	83 f8 26             	cmp    $0x26,%eax
 804ac7d:	74 2f                	je     804acae <handle_token_rbrace+0x33b>
test/unit/artifacts/cpp/modifiedFunctionsDetector/indent-2.2.10/indent.c:1377
 804ac7f:	a1 48 9b 05 08       	mov    0x8059b48,%eax
 804ac84:	8b 50 08             	mov    0x8(%eax),%edx
 804ac87:	a1 48 9b 05 08       	mov    0x8059b48,%eax
 804ac8c:	8b 40 20             	mov    0x20(%eax),%eax
 804ac8f:	c1 e0 02             	shl    $0x2,%eax
 804ac92:	8d 04 02             	lea    (%edx,%eax,1),%eax
 804ac95:	8b 00                	mov    (%eax),%eax
test/unit/artifacts/cpp/modifiedFunctionsDetector/indent-2.2.10/indent.c:1376
 804ac97:	83 f8 24             	cmp    $0x24,%eax
 804ac9a:	75 18                	jne    804acb4 <handle_token_rbrace+0x341>
test/unit/artifacts/cpp/modifiedFunctionsDetector/indent-2.2.10/indent.c:1378
 804ac9c:	a1 a8 99 05 08       	mov    0x80599a8,%eax
test/unit/artifacts/cpp/modifiedFunctionsDetector/indent-2.2.10/indent.c:1376
 804aca1:	85 c0                	test   %eax,%eax
 804aca3:	75 0f                	jne    804acb4 <handle_token_rbrace+0x341>
test/unit/artifacts/cpp/modifiedFunctionsDetector/indent-2.2.10/indent.c:1378
 804aca5:	a1 18 9a 05 08       	mov    0x8059a18,%eax
test/unit/artifacts/cpp/modifiedFunctionsDetector/indent-2.2.10/indent.c:1376
 804acaa:	85 c0                	test   %eax,%eax
 804acac:	75 06                	jne    804acb4 <handle_token_rbrace+0x341>
test/unit/artifacts/cpp/modifiedFunctionsDetector/indent-2.2.10/indent.c:1380
 804acae:	8b 45 08             	mov    0x8(%ebp),%eax
 804acb1:	c6 00 01             	movb   $0x1,(%eax)
test/unit/artifacts/cpp/modifiedFunctionsDetector/indent-2.2.10/indent.c:1383
 804acb4:	a1 48 9b 05 08       	mov    0x8059b48,%eax
 804acb9:	0f b6 40 64          	movzbl 0x64(%eax),%eax
 804acbd:	84 c0                	test   %al,%al
 804acbf:	75 49                	jne    804ad0a <handle_token_rbrace+0x397>
 804acc1:	a1 48 9b 05 08       	mov    0x8059b48,%eax
 804acc6:	8b 40 20             	mov    0x20(%eax),%eax
 804acc9:	85 c0                	test   %eax,%eax
 804accb:	7f 3d                	jg     804ad0a <handle_token_rbrace+0x397>
test/unit/artifacts/cpp/modifiedFunctionsDetector/indent-2.2.10/indent.c:1384
 804accd:	a1 cc 99 05 08       	mov    0x80599cc,%eax
test/unit/artifacts/cpp/modifiedFunctionsDetector/indent-2.2.10/indent.c:1383
 804acd2:	85 c0                	test   %eax,%eax
 804acd4:	74 34                	je     804ad0a <handle_token_rbrace+0x397>
test/unit/artifacts/cpp/modifiedFunctionsDetector/indent-2.2.10/indent.c:1384
 804acd6:	a1 48 9b 05 08       	mov    0x8059b48,%eax
 804acdb:	8b 40 58             	mov    0x58(%eax),%eax
test/unit/artifacts/cpp/modifiedFunctionsDetector/indent-2.2.10/indent.c:1383
 804acde:	85 c0                	test   %eax,%eax
 804ace0:	7f 28                	jg     804ad0a <handle_token_rbrace+0x397>
test/unit/artifacts/cpp/modifiedFunctionsDetector/indent-2.2.10/indent.c:1386
 804ace2:	c7 05 fc 98 05 08 01 	movl   $0x1,0x80598fc
 804ace9:	00 00 00 
test/unit/artifacts/cpp/modifiedFunctionsDetector/indent-2.2.10/indent.c:1388
 804acec:	a1 48 9b 05 08       	mov    0x8059b48,%eax
 804acf1:	0f b6 40 64          	movzbl 0x64(%eax),%eax
test/unit/artifacts/cpp/modifiedFunctionsDetector/indent-2.2.10/indent.c:1387
 804acf5:	84 c0                	test   %al,%al
 804acf7:	74 07                	je     804ad00 <handle_token_rbrace+0x38d>
 804acf9:	b8 18 00 00 00       	mov    $0x18,%eax
 804acfe:	eb 05                	jmp    804ad05 <handle_token_rbrace+0x392>
 804ad00:	b8 0e 00 00 00       	mov    $0xe,%eax
 804ad05:	a3 a0 9b 05 08       	mov    %eax,0x8059ba0
test/unit/artifacts/cpp/modifiedFunctionsDetector/indent-2.2.10/indent.c:1390
 804ad0a:	83 c4 10             	add    $0x10,%esp
 804ad0d:	5b                   	pop    %ebx
 804ad0e:	5e                   	pop    %esi
 804ad0f:	5d                   	pop    %ebp
 804ad10:	c3                   	ret    

0804ad11 <handle_token_swstmt>:
handle_token_swstmt():
test/unit/artifacts/cpp/modifiedFunctionsDetector/indent-2.2.10/indent.c:1399
 804ad11:	55                   	push   %ebp
 804ad12:	89 e5                	mov    %esp,%ebp
test/unit/artifacts/cpp/modifiedFunctionsDetector/indent-2.2.10/indent.c:1401
 804ad14:	8b 45 08             	mov    0x8(%ebp),%eax
 804ad17:	c6 00 01             	movb   $0x1,(%eax)
test/unit/artifacts/cpp/modifiedFunctionsDetector/indent-2.2.10/indent.c:1402
 804ad1a:	8b 45 0c             	mov    0xc(%ebp),%eax
 804ad1d:	c7 00 15 00 00 00    	movl   $0x15,(%eax)
test/unit/artifacts/cpp/modifiedFunctionsDetector/indent-2.2.10/indent.c:1404
 804ad23:	a1 48 9b 05 08       	mov    0x8059b48,%eax
 804ad28:	c6 40 64 00          	movb   $0x0,0x64(%eax)
test/unit/artifacts/cpp/modifiedFunctionsDetector/indent-2.2.10/indent.c:1405
 804ad2c:	5d                   	pop    %ebp
 804ad2d:	c3                   	ret    

0804ad2e <handle_token_sp_paren>:
handle_token_sp_paren():
test/unit/artifacts/cpp/modifiedFunctionsDetector/indent-2.2.10/indent.c:1414
 804ad2e:	55                   	push   %ebp
 804ad2f:	89 e5                	mov    %esp,%ebp
test/unit/artifacts/cpp/modifiedFunctionsDetector/indent-2.2.10/indent.c:1416
 804ad31:	8b 45 08             	mov    0x8(%ebp),%eax
 804ad34:	c6 00 01             	movb   $0x1,(%eax)
test/unit/artifacts/cpp/modifiedFunctionsDetector/indent-2.2.10/indent.c:1419
 804ad37:	a1 c0 9b 05 08       	mov    0x8059bc0,%eax
test/unit/artifacts/cpp/modifiedFunctionsDetector/indent-2.2.10/indent.c:1420
 804ad3c:	0f b6 00             	movzbl (%eax),%eax
test/unit/artifacts/cpp/modifiedFunctionsDetector/indent-2.2.10/indent.c:1419
 804ad3f:	3c 69                	cmp    $0x69,%al
 804ad41:	74 1a                	je     804ad5d <handle_token_sp_paren+0x2f>
test/unit/artifacts/cpp/modifiedFunctionsDetector/indent-2.2.10/indent.c:1420
 804ad43:	a1 c0 9b 05 08       	mov    0x8059bc0,%eax
 804ad48:	0f b6 00             	movzbl (%eax),%eax
test/unit/artifacts/cpp/modifiedFunctionsDetector/indent-2.2.10/indent.c:1419
 804ad4b:	3c 77                	cmp    $0x77,%al
 804ad4d:	75 07                	jne    804ad56 <handle_token_sp_paren+0x28>
 804ad4f:	b8 1e 00 00 00       	mov    $0x1e,%eax
 804ad54:	eb 05                	jmp    804ad5b <handle_token_sp_paren+0x2d>
 804ad56:	b8 1f 00 00 00       	mov    $0x1f,%eax
 804ad5b:	eb 05                	jmp    804ad62 <handle_token_sp_paren+0x34>
 804ad5d:	b8 1c 00 00 00       	mov    $0x1c,%eax
 804ad62:	8b 55 0c             	mov    0xc(%ebp),%edx
 804ad65:	89 02                	mov    %eax,(%edx)
test/unit/artifacts/cpp/modifiedFunctionsDetector/indent-2.2.10/indent.c:1421
 804ad67:	5d                   	pop    %ebp
 804ad68:	c3                   	ret    

0804ad69 <handle_token_nparen>:
handle_token_nparen():
test/unit/artifacts/cpp/modifiedFunctionsDetector/indent-2.2.10/indent.c:1432
 804ad69:	55                   	push   %ebp
 804ad6a:	89 e5                	mov    %esp,%ebp
 804ad6c:	53                   	push   %ebx
 804ad6d:	83 ec 14             	sub    $0x14,%esp
test/unit/artifacts/cpp/modifiedFunctionsDetector/indent-2.2.10/indent.c:1433
 804ad70:	a1 48 9b 05 08       	mov    0x8059b48,%eax
 804ad75:	c7 40 68 00 00 00 00 	movl   $0x0,0x68(%eax)
test/unit/artifacts/cpp/modifiedFunctionsDetector/indent-2.2.10/indent.c:1434
 804ad7c:	a1 c0 9b 05 08       	mov    0x8059bc0,%eax
 804ad81:	0f b6 00             	movzbl (%eax),%eax
 804ad84:	3c 65                	cmp    $0x65,%al
 804ad86:	0f 85 c2 00 00 00    	jne    804ae4e <handle_token_nparen+0xe5>
test/unit/artifacts/cpp/modifiedFunctionsDetector/indent-2.2.10/indent.c:1436
 804ad8c:	8b 15 c4 98 05 08    	mov    0x80598c4,%edx
 804ad92:	a1 c0 98 05 08       	mov    0x80598c0,%eax
 804ad97:	39 c2                	cmp    %eax,%edx
 804ad99:	0f 84 81 00 00 00    	je     804ae20 <handle_token_nparen+0xb7>
 804ad9f:	a1 a4 99 05 08       	mov    0x80599a4,%eax
 804ada4:	85 c0                	test   %eax,%eax
 804ada6:	74 0f                	je     804adb7 <handle_token_nparen+0x4e>
 804ada8:	a1 c4 98 05 08       	mov    0x80598c4,%eax
 804adad:	83 e8 01             	sub    $0x1,%eax
 804adb0:	0f b6 00             	movzbl (%eax),%eax
 804adb3:	3c 7d                	cmp    $0x7d,%al
 804adb5:	74 69                	je     804ae20 <handle_token_nparen+0xb7>
test/unit/artifacts/cpp/modifiedFunctionsDetector/indent-2.2.10/indent.c:1438
 804adb7:	a1 40 99 05 08       	mov    0x8059940,%eax
 804adbc:	85 c0                	test   %eax,%eax
 804adbe:	74 36                	je     804adf6 <handle_token_nparen+0x8d>
test/unit/artifacts/cpp/modifiedFunctionsDetector/indent-2.2.10/indent.c:1440
 804adc0:	c7 04 24 40 50 05 08 	movl   $0x8055040,(%esp)
 804adc7:	e8 d0 dd ff ff       	call   8048b9c <gettext@plt>
 804adcc:	89 c3                	mov    %eax,%ebx
 804adce:	c7 04 24 1c 50 05 08 	movl   $0x805501c,(%esp)
 804add5:	e8 c2 dd ff ff       	call   8048b9c <gettext@plt>
 804adda:	c7 44 24 0c 00 00 00 	movl   $0x0,0xc(%esp)
 804ade1:	00 
 804ade2:	c7 44 24 08 00 00 00 	movl   $0x0,0x8(%esp)
 804ade9:	00 
 804adea:	89 5c 24 04          	mov    %ebx,0x4(%esp)
 804adee:	89 04 24             	mov    %eax,(%esp)
 804adf1:	e8 69 76 00 00       	call   805245f <message>
test/unit/artifacts/cpp/modifiedFunctionsDetector/indent-2.2.10/indent.c:1443
 804adf6:	8b 45 14             	mov    0x14(%ebp),%eax
 804adf9:	89 44 24 08          	mov    %eax,0x8(%esp)
 804adfd:	c7 44 24 04 24 99 05 	movl   $0x8059924,0x4(%esp)
 804ae04:	08 
 804ae05:	c7 04 24 01 00 00 00 	movl   $0x1,(%esp)
 804ae0c:	e8 61 93 00 00       	call   8054172 <dump_line>
test/unit/artifacts/cpp/modifiedFunctionsDetector/indent-2.2.10/indent.c:1444
 804ae11:	a1 48 9b 05 08       	mov    0x8059b48,%eax
 804ae16:	c7 80 9c 00 00 00 00 	movl   $0x0,0x9c(%eax)
 804ae1d:	00 00 00 
test/unit/artifacts/cpp/modifiedFunctionsDetector/indent-2.2.10/indent.c:1449
 804ae20:	8b 45 08             	mov    0x8(%ebp),%eax
 804ae23:	c6 00 01             	movb   $0x1,(%eax)
test/unit/artifacts/cpp/modifiedFunctionsDetector/indent-2.2.10/indent.c:1451
 804ae26:	8b 45 10             	mov    0x10(%ebp),%eax
 804ae29:	c6 00 01             	movb   $0x1,(%eax)
test/unit/artifacts/cpp/modifiedFunctionsDetector/indent-2.2.10/indent.c:1453
 804ae2c:	c7 04 24 22 00 00 00 	movl   $0x22,(%esp)
 804ae33:	e8 f7 69 00 00       	call   805182f <parse>
 804ae38:	85 c0                	test   %eax,%eax
 804ae3a:	0f 84 ad 00 00 00    	je     804aeed <handle_token_nparen+0x184>
test/unit/artifacts/cpp/modifiedFunctionsDetector/indent-2.2.10/indent.c:1455
 804ae40:	8b 45 0c             	mov    0xc(%ebp),%eax
 804ae43:	c7 00 02 00 00 00    	movl   $0x2,(%eax)
 804ae49:	e9 a0 00 00 00       	jmp    804aeee <handle_token_nparen+0x185>
test/unit/artifacts/cpp/modifiedFunctionsDetector/indent-2.2.10/indent.c:1460
 804ae4e:	8b 15 c4 98 05 08    	mov    0x80598c4,%edx
 804ae54:	a1 c0 98 05 08       	mov    0x80598c0,%eax
 804ae59:	39 c2                	cmp    %eax,%edx
 804ae5b:	74 69                	je     804aec6 <handle_token_nparen+0x15d>
test/unit/artifacts/cpp/modifiedFunctionsDetector/indent-2.2.10/indent.c:1464
 804ae5d:	a1 40 99 05 08       	mov    0x8059940,%eax
 804ae62:	85 c0                	test   %eax,%eax
 804ae64:	74 36                	je     804ae9c <handle_token_nparen+0x133>
test/unit/artifacts/cpp/modifiedFunctionsDetector/indent-2.2.10/indent.c:1466
 804ae66:	c7 04 24 40 50 05 08 	movl   $0x8055040,(%esp)
 804ae6d:	e8 2a dd ff ff       	call   8048b9c <gettext@plt>
 804ae72:	89 c3                	mov    %eax,%ebx
 804ae74:	c7 04 24 1c 50 05 08 	movl   $0x805501c,(%esp)
 804ae7b:	e8 1c dd ff ff       	call   8048b9c <gettext@plt>
 804ae80:	c7 44 24 0c 00 00 00 	movl   $0x0,0xc(%esp)
 804ae87:	00 
 804ae88:	c7 44 24 08 00 00 00 	movl   $0x0,0x8(%esp)
 804ae8f:	00 
 804ae90:	89 5c 24 04          	mov    %ebx,0x4(%esp)
 804ae94:	89 04 24             	mov    %eax,(%esp)
 804ae97:	e8 c3 75 00 00       	call   805245f <message>
test/unit/artifacts/cpp/modifiedFunctionsDetector/indent-2.2.10/indent.c:1469
 804ae9c:	8b 45 14             	mov    0x14(%ebp),%eax
 804ae9f:	89 44 24 08          	mov    %eax,0x8(%esp)
 804aea3:	c7 44 24 04 24 99 05 	movl   $0x8059924,0x4(%esp)
 804aeaa:	08 
 804aeab:	c7 04 24 01 00 00 00 	movl   $0x1,(%esp)
 804aeb2:	e8 bb 92 00 00       	call   8054172 <dump_line>
test/unit/artifacts/cpp/modifiedFunctionsDetector/indent-2.2.10/indent.c:1470
 804aeb7:	a1 48 9b 05 08       	mov    0x8059b48,%eax
 804aebc:	c7 80 9c 00 00 00 00 	movl   $0x0,0x9c(%eax)
 804aec3:	00 00 00 
test/unit/artifacts/cpp/modifiedFunctionsDetector/indent-2.2.10/indent.c:1473
 804aec6:	8b 45 08             	mov    0x8(%ebp),%eax
 804aec9:	c6 00 01             	movb   $0x1,(%eax)
test/unit/artifacts/cpp/modifiedFunctionsDetector/indent-2.2.10/indent.c:1475
 804aecc:	8b 45 10             	mov    0x10(%ebp),%eax
 804aecf:	c6 00 00             	movb   $0x0,(%eax)
test/unit/artifacts/cpp/modifiedFunctionsDetector/indent-2.2.10/indent.c:1477
 804aed2:	c7 04 24 23 00 00 00 	movl   $0x23,(%esp)
 804aed9:	e8 51 69 00 00       	call   805182f <parse>
 804aede:	85 c0                	test   %eax,%eax
 804aee0:	74 0c                	je     804aeee <handle_token_nparen+0x185>
test/unit/artifacts/cpp/modifiedFunctionsDetector/indent-2.2.10/indent.c:1479
 804aee2:	8b 45 0c             	mov    0xc(%ebp),%eax
 804aee5:	c7 00 02 00 00 00    	movl   $0x2,(%eax)
 804aeeb:	eb 01                	jmp    804aeee <handle_token_nparen+0x185>
test/unit/artifacts/cpp/modifiedFunctionsDetector/indent-2.2.10/indent.c:1455
 804aeed:	90                   	nop
test/unit/artifacts/cpp/modifiedFunctionsDetector/indent-2.2.10/indent.c:1482
 804aeee:	83 c4 14             	add    $0x14,%esp
 804aef1:	5b                   	pop    %ebx
 804aef2:	5d                   	pop    %ebp
 804aef3:	c3                   	ret    

0804aef4 <handle_token_overloaded>:
handle_token_overloaded():
test/unit/artifacts/cpp/modifiedFunctionsDetector/indent-2.2.10/indent.c:1490
 804aef4:	55                   	push   %ebp
 804aef5:	89 e5                	mov    %esp,%ebp
 804aef7:	83 ec 28             	sub    $0x28,%esp
test/unit/artifacts/cpp/modifiedFunctionsDetector/indent-2.2.10/indent.c:1493
 804aefa:	a1 48 9b 05 08       	mov    0x8059b48,%eax
 804aeff:	8b 80 9c 00 00 00    	mov    0x9c(%eax),%eax
 804af05:	85 c0                	test   %eax,%eax
 804af07:	74 27                	je     804af30 <handle_token_overloaded+0x3c>
test/unit/artifacts/cpp/modifiedFunctionsDetector/indent-2.2.10/indent.c:1495
 804af09:	a1 24 99 05 08       	mov    0x8059924,%eax
 804af0e:	89 44 24 04          	mov    %eax,0x4(%esp)
 804af12:	c7 04 24 12 00 00 00 	movl   $0x12,(%esp)
 804af19:	e8 a5 7f 00 00       	call   8052ec3 <set_buf_break>
test/unit/artifacts/cpp/modifiedFunctionsDetector/indent-2.2.10/indent.c:1496
 804af1e:	a1 c4 98 05 08       	mov    0x80598c4,%eax
 804af23:	c6 00 20             	movb   $0x20,(%eax)
 804af26:	83 c0 01             	add    $0x1,%eax
 804af29:	a3 c4 98 05 08       	mov    %eax,0x80598c4
 804af2e:	eb 1a                	jmp    804af4a <handle_token_overloaded+0x56>
test/unit/artifacts/cpp/modifiedFunctionsDetector/indent-2.2.10/indent.c:1498
 804af30:	83 7d 08 00          	cmpl   $0x0,0x8(%ebp)
 804af34:	74 14                	je     804af4a <handle_token_overloaded+0x56>
test/unit/artifacts/cpp/modifiedFunctionsDetector/indent-2.2.10/indent.c:1500
 804af36:	a1 24 99 05 08       	mov    0x8059924,%eax
 804af3b:	89 44 24 04          	mov    %eax,0x4(%esp)
 804af3f:	8b 45 08             	mov    0x8(%ebp),%eax
 804af42:	89 04 24             	mov    %eax,(%esp)
 804af45:	e8 79 7f 00 00       	call   8052ec3 <set_buf_break>
test/unit/artifacts/cpp/modifiedFunctionsDetector/indent-2.2.10/indent.c:1507
 804af4a:	a1 48 9b 05 08       	mov    0x8059b48,%eax
 804af4f:	c7 80 9c 00 00 00 01 	movl   $0x1,0x9c(%eax)
 804af56:	00 00 00 
test/unit/artifacts/cpp/modifiedFunctionsDetector/indent-2.2.10/indent.c:1509
 804af59:	a1 c0 9b 05 08       	mov    0x8059bc0,%eax
 804af5e:	89 45 f4             	mov    %eax,-0xc(%ebp)
 804af61:	eb 1e                	jmp    804af81 <handle_token_overloaded+0x8d>
test/unit/artifacts/cpp/modifiedFunctionsDetector/indent-2.2.10/indent.c:1511
 804af63:	e8 ec de ff ff       	call   8048e54 <check_code_size>
test/unit/artifacts/cpp/modifiedFunctionsDetector/indent-2.2.10/indent.c:1512
 804af68:	a1 c4 98 05 08       	mov    0x80598c4,%eax
 804af6d:	8b 55 f4             	mov    -0xc(%ebp),%edx
 804af70:	0f b6 12             	movzbl (%edx),%edx
 804af73:	88 10                	mov    %dl,(%eax)
 804af75:	83 c0 01             	add    $0x1,%eax
 804af78:	a3 c4 98 05 08       	mov    %eax,0x80598c4
test/unit/artifacts/cpp/modifiedFunctionsDetector/indent-2.2.10/indent.c:1509
 804af7d:	83 45 f4 01          	addl   $0x1,-0xc(%ebp)
 804af81:	a1 c4 9b 05 08       	mov    0x8059bc4,%eax
 804af86:	39 45 f4             	cmp    %eax,-0xc(%ebp)
 804af89:	72 d8                	jb     804af63 <handle_token_overloaded+0x6f>
test/unit/artifacts/cpp/modifiedFunctionsDetector/indent-2.2.10/indent.c:1515
 804af8b:	a1 c4 98 05 08       	mov    0x80598c4,%eax
 804af90:	c6 00 00             	movb   $0x0,(%eax)
test/unit/artifacts/cpp/modifiedFunctionsDetector/indent-2.2.10/indent.c:1516
 804af93:	c9                   	leave  
 804af94:	c3                   	ret    

0804af95 <handle_token_decl>:
handle_token_decl():
test/unit/artifacts/cpp/modifiedFunctionsDetector/indent-2.2.10/indent.c:1526
 804af95:	55                   	push   %ebp
 804af96:	89 e5                	mov    %esp,%ebp
 804af98:	83 ec 28             	sub    $0x28,%esp
test/unit/artifacts/cpp/modifiedFunctionsDetector/indent-2.2.10/indent.c:1534
 804af9b:	a1 48 9b 05 08       	mov    0x8059b48,%eax
 804afa0:	8b 40 04             	mov    0x4(%eax),%eax
 804afa3:	83 f8 03             	cmp    $0x3,%eax
 804afa6:	0f 85 a5 00 00 00    	jne    804b051 <handle_token_decl+0xbc>
test/unit/artifacts/cpp/modifiedFunctionsDetector/indent-2.2.10/indent.c:1535
 804afac:	a1 48 9b 05 08       	mov    0x8059b48,%eax
 804afb1:	8b 40 6c             	mov    0x6c(%eax),%eax
test/unit/artifacts/cpp/modifiedFunctionsDetector/indent-2.2.10/indent.c:1534
 804afb4:	85 c0                	test   %eax,%eax
 804afb6:	0f 84 95 00 00 00    	je     804b051 <handle_token_decl+0xbc>
test/unit/artifacts/cpp/modifiedFunctionsDetector/indent-2.2.10/indent.c:1536
 804afbc:	a1 48 9b 05 08       	mov    0x8059b48,%eax
 804afc1:	8b 40 44             	mov    0x44(%eax),%eax
test/unit/artifacts/cpp/modifiedFunctionsDetector/indent-2.2.10/indent.c:1534
 804afc4:	85 c0                	test   %eax,%eax
 804afc6:	0f 84 85 00 00 00    	je     804b051 <handle_token_decl+0xbc>
test/unit/artifacts/cpp/modifiedFunctionsDetector/indent-2.2.10/indent.c:1537
 804afcc:	a1 c0 9b 05 08       	mov    0x8059bc0,%eax
 804afd1:	c7 44 24 08 05 00 00 	movl   $0x5,0x8(%esp)
 804afd8:	00 
 804afd9:	c7 44 24 04 4c 50 05 	movl   $0x805504c,0x4(%esp)
 804afe0:	08 
 804afe1:	89 04 24             	mov    %eax,(%esp)
 804afe4:	e8 53 dd ff ff       	call   8048d3c <strncmp@plt>
test/unit/artifacts/cpp/modifiedFunctionsDetector/indent-2.2.10/indent.c:1534
 804afe9:	85 c0                	test   %eax,%eax
 804afeb:	75 64                	jne    804b051 <handle_token_decl+0xbc>
test/unit/artifacts/cpp/modifiedFunctionsDetector/indent-2.2.10/indent.c:1540
 804afed:	a1 24 99 05 08       	mov    0x8059924,%eax
 804aff2:	89 44 24 04          	mov    %eax,0x4(%esp)
 804aff6:	c7 04 24 13 00 00 00 	movl   $0x13,(%esp)
 804affd:	e8 c1 7e 00 00       	call   8052ec3 <set_buf_break>
test/unit/artifacts/cpp/modifiedFunctionsDetector/indent-2.2.10/indent.c:1541
 804b002:	a1 c4 98 05 08       	mov    0x80598c4,%eax
 804b007:	c6 00 20             	movb   $0x20,(%eax)
 804b00a:	83 c0 01             	add    $0x1,%eax
 804b00d:	a3 c4 98 05 08       	mov    %eax,0x80598c4
test/unit/artifacts/cpp/modifiedFunctionsDetector/indent-2.2.10/indent.c:1543
 804b012:	a1 c0 9b 05 08       	mov    0x8059bc0,%eax
 804b017:	89 45 f4             	mov    %eax,-0xc(%ebp)
 804b01a:	eb 1e                	jmp    804b03a <handle_token_decl+0xa5>
test/unit/artifacts/cpp/modifiedFunctionsDetector/indent-2.2.10/indent.c:1545
 804b01c:	e8 33 de ff ff       	call   8048e54 <check_code_size>
test/unit/artifacts/cpp/modifiedFunctionsDetector/indent-2.2.10/indent.c:1546
 804b021:	a1 c4 98 05 08       	mov    0x80598c4,%eax
 804b026:	8b 55 f4             	mov    -0xc(%ebp),%edx
 804b029:	0f b6 12             	movzbl (%edx),%edx
 804b02c:	88 10                	mov    %dl,(%eax)
 804b02e:	83 c0 01             	add    $0x1,%eax
 804b031:	a3 c4 98 05 08       	mov    %eax,0x80598c4
test/unit/artifacts/cpp/modifiedFunctionsDetector/indent-2.2.10/indent.c:1543
 804b036:	83 45 f4 01          	addl   $0x1,-0xc(%ebp)
 804b03a:	a1 c4 9b 05 08       	mov    0x8059bc4,%eax
 804b03f:	39 45 f4             	cmp    %eax,-0xc(%ebp)
 804b042:	72 d8                	jb     804b01c <handle_token_decl+0x87>
test/unit/artifacts/cpp/modifiedFunctionsDetector/indent-2.2.10/indent.c:1549
 804b044:	a1 c4 98 05 08       	mov    0x80598c4,%eax
 804b049:	c6 00 00             	movb   $0x0,(%eax)
test/unit/artifacts/cpp/modifiedFunctionsDetector/indent-2.2.10/indent.c:1534
 804b04c:	e9 4f 01 00 00       	jmp    804b1a0 <handle_token_decl+0x20b>
test/unit/artifacts/cpp/modifiedFunctionsDetector/indent-2.2.10/indent.c:1554
 804b051:	a1 48 9b 05 08       	mov    0x8059b48,%eax
 804b056:	8b 40 30             	mov    0x30(%eax),%eax
 804b059:	85 c0                	test   %eax,%eax
 804b05b:	75 19                	jne    804b076 <handle_token_decl+0xe1>
test/unit/artifacts/cpp/modifiedFunctionsDetector/indent-2.2.10/indent.c:1556
 804b05d:	c7 04 24 18 00 00 00 	movl   $0x18,(%esp)
 804b064:	e8 c6 67 00 00       	call   805182f <parse>
 804b069:	85 c0                	test   %eax,%eax
 804b06b:	74 09                	je     804b076 <handle_token_decl+0xe1>
test/unit/artifacts/cpp/modifiedFunctionsDetector/indent-2.2.10/indent.c:1558
 804b06d:	8b 45 0c             	mov    0xc(%ebp),%eax
 804b070:	c7 00 02 00 00 00    	movl   $0x2,(%eax)
test/unit/artifacts/cpp/modifiedFunctionsDetector/indent-2.2.10/indent.c:1562
 804b076:	a1 48 9b 05 08       	mov    0x8059b48,%eax
 804b07b:	8b 40 04             	mov    0x4(%eax),%eax
 804b07e:	83 f8 03             	cmp    $0x3,%eax
 804b081:	75 52                	jne    804b0d5 <handle_token_decl+0x140>
test/unit/artifacts/cpp/modifiedFunctionsDetector/indent-2.2.10/indent.c:1563
 804b083:	a1 48 9b 05 08       	mov    0x8059b48,%eax
 804b088:	8b 40 20             	mov    0x20(%eax),%eax
test/unit/artifacts/cpp/modifiedFunctionsDetector/indent-2.2.10/indent.c:1562
 804b08b:	83 f8 01             	cmp    $0x1,%eax
 804b08e:	7f 45                	jg     804b0d5 <handle_token_decl+0x140>
test/unit/artifacts/cpp/modifiedFunctionsDetector/indent-2.2.10/indent.c:1565
 804b090:	a1 48 9b 05 08       	mov    0x8059b48,%eax
 804b095:	c7 40 6c 01 00 00 00 	movl   $0x1,0x6c(%eax)
test/unit/artifacts/cpp/modifiedFunctionsDetector/indent-2.2.10/indent.c:1567
 804b09c:	8b 15 c0 98 05 08    	mov    0x80598c0,%edx
 804b0a2:	a1 c4 98 05 08       	mov    0x80598c4,%eax
 804b0a7:	39 c2                	cmp    %eax,%edx
 804b0a9:	74 2a                	je     804b0d5 <handle_token_decl+0x140>
test/unit/artifacts/cpp/modifiedFunctionsDetector/indent-2.2.10/indent.c:1569
 804b0ab:	8b 45 10             	mov    0x10(%ebp),%eax
 804b0ae:	89 44 24 08          	mov    %eax,0x8(%esp)
 804b0b2:	c7 44 24 04 24 99 05 	movl   $0x8059924,0x4(%esp)
 804b0b9:	08 
 804b0ba:	c7 04 24 01 00 00 00 	movl   $0x1,(%esp)
 804b0c1:	e8 ac 90 00 00       	call   8054172 <dump_line>
test/unit/artifacts/cpp/modifiedFunctionsDetector/indent-2.2.10/indent.c:1570
 804b0c6:	a1 48 9b 05 08       	mov    0x8059b48,%eax
 804b0cb:	c7 80 9c 00 00 00 00 	movl   $0x0,0x9c(%eax)
 804b0d2:	00 00 00 
test/unit/artifacts/cpp/modifiedFunctionsDetector/indent-2.2.10/indent.c:1574
 804b0d5:	a1 48 9b 05 08       	mov    0x8059b48,%eax
 804b0da:	8b 40 6c             	mov    0x6c(%eax),%eax
 804b0dd:	85 c0                	test   %eax,%eax
 804b0df:	74 3e                	je     804b11f <handle_token_decl+0x18a>
test/unit/artifacts/cpp/modifiedFunctionsDetector/indent-2.2.10/indent.c:1575
 804b0e1:	a1 48 9b 05 08       	mov    0x8059b48,%eax
 804b0e6:	8b 40 58             	mov    0x58(%eax),%eax
test/unit/artifacts/cpp/modifiedFunctionsDetector/indent-2.2.10/indent.c:1574
 804b0e9:	85 c0                	test   %eax,%eax
 804b0eb:	75 32                	jne    804b11f <handle_token_decl+0x18a>
test/unit/artifacts/cpp/modifiedFunctionsDetector/indent-2.2.10/indent.c:1576
 804b0ed:	a1 48 9b 05 08       	mov    0x8059b48,%eax
 804b0f2:	8b 40 7c             	mov    0x7c(%eax),%eax
test/unit/artifacts/cpp/modifiedFunctionsDetector/indent-2.2.10/indent.c:1574
 804b0f5:	85 c0                	test   %eax,%eax
 804b0f7:	75 26                	jne    804b11f <handle_token_decl+0x18a>
test/unit/artifacts/cpp/modifiedFunctionsDetector/indent-2.2.10/indent.c:1578
 804b0f9:	8b 15 48 9b 05 08    	mov    0x8059b48,%edx
 804b0ff:	a1 48 9b 05 08       	mov    0x8059b48,%eax
test/unit/artifacts/cpp/modifiedFunctionsDetector/indent-2.2.10/indent.c:1579
 804b104:	8b 0d e8 99 05 08    	mov    0x80599e8,%ecx
test/unit/artifacts/cpp/modifiedFunctionsDetector/indent-2.2.10/indent.c:1578
 804b10a:	89 48 60             	mov    %ecx,0x60(%eax)
 804b10d:	8b 40 60             	mov    0x60(%eax),%eax
 804b110:	89 42 70             	mov    %eax,0x70(%edx)
test/unit/artifacts/cpp/modifiedFunctionsDetector/indent-2.2.10/indent.c:1581
 804b113:	a1 48 9b 05 08       	mov    0x8059b48,%eax
 804b118:	c7 40 74 00 00 00 00 	movl   $0x0,0x74(%eax)
test/unit/artifacts/cpp/modifiedFunctionsDetector/indent-2.2.10/indent.c:1587
 804b11f:	a1 48 9b 05 08       	mov    0x8059b48,%eax
 804b124:	8b 80 84 00 00 00    	mov    0x84(%eax),%eax
 804b12a:	85 c0                	test   %eax,%eax
 804b12c:	75 0c                	jne    804b13a <handle_token_decl+0x1a5>
test/unit/artifacts/cpp/modifiedFunctionsDetector/indent-2.2.10/indent.c:1589
 804b12e:	a1 48 9b 05 08       	mov    0x8059b48,%eax
 804b133:	c7 40 4c 01 00 00 00 	movl   $0x1,0x4c(%eax)
test/unit/artifacts/cpp/modifiedFunctionsDetector/indent-2.2.10/indent.c:1592
 804b13a:	a1 48 9b 05 08       	mov    0x8059b48,%eax
 804b13f:	8b 40 30             	mov    0x30(%eax),%eax
 804b142:	85 c0                	test   %eax,%eax
 804b144:	75 30                	jne    804b176 <handle_token_decl+0x1e1>
test/unit/artifacts/cpp/modifiedFunctionsDetector/indent-2.2.10/indent.c:1594
 804b146:	a1 48 9b 05 08       	mov    0x8059b48,%eax
 804b14b:	c6 40 64 01          	movb   $0x1,0x64(%eax)
test/unit/artifacts/cpp/modifiedFunctionsDetector/indent-2.2.10/indent.c:1595
 804b14f:	a1 48 9b 05 08       	mov    0x8059b48,%eax
 804b154:	c7 40 5c 01 00 00 00 	movl   $0x1,0x5c(%eax)
test/unit/artifacts/cpp/modifiedFunctionsDetector/indent-2.2.10/indent.c:1597
 804b15b:	a1 48 9b 05 08       	mov    0x8059b48,%eax
 804b160:	8b 40 58             	mov    0x58(%eax),%eax
 804b163:	85 c0                	test   %eax,%eax
 804b165:	7f 0f                	jg     804b176 <handle_token_decl+0x1e1>
test/unit/artifacts/cpp/modifiedFunctionsDetector/indent-2.2.10/indent.c:1599
 804b167:	a1 48 9b 05 08       	mov    0x8059b48,%eax
 804b16c:	c7 80 bc 00 00 00 02 	movl   $0x2,0xbc(%eax)
 804b173:	00 00 00 
test/unit/artifacts/cpp/modifiedFunctionsDetector/indent-2.2.10/indent.c:1635
 804b176:	a1 ec 99 05 08       	mov    0x80599ec,%eax
 804b17b:	85 c0                	test   %eax,%eax
 804b17d:	7e 07                	jle    804b186 <handle_token_decl+0x1f1>
 804b17f:	a1 ec 99 05 08       	mov    0x80599ec,%eax
 804b184:	eb 15                	jmp    804b19b <handle_token_decl+0x206>
test/unit/artifacts/cpp/modifiedFunctionsDetector/indent-2.2.10/indent.c:1636
 804b186:	a1 c4 9b 05 08       	mov    0x8059bc4,%eax
 804b18b:	89 c2                	mov    %eax,%edx
 804b18d:	a1 c0 9b 05 08       	mov    0x8059bc0,%eax
 804b192:	89 d1                	mov    %edx,%ecx
 804b194:	29 c1                	sub    %eax,%ecx
 804b196:	89 c8                	mov    %ecx,%eax
test/unit/artifacts/cpp/modifiedFunctionsDetector/indent-2.2.10/indent.c:1635
 804b198:	83 c0 01             	add    $0x1,%eax
 804b19b:	8b 55 08             	mov    0x8(%ebp),%edx
 804b19e:	89 02                	mov    %eax,(%edx)
test/unit/artifacts/cpp/modifiedFunctionsDetector/indent-2.2.10/indent.c:1638
 804b1a0:	c9                   	leave  
 804b1a1:	c3                   	ret    

0804b1a2 <handle_token_ident>:
handle_token_ident():
test/unit/artifacts/cpp/modifiedFunctionsDetector/indent-2.2.10/indent.c:1653
 804b1a2:	55                   	push   %ebp
 804b1a3:	89 e5                	mov    %esp,%ebp
 804b1a5:	83 ec 28             	sub    $0x28,%esp
 804b1a8:	8b 45 20             	mov    0x20(%ebp),%eax
 804b1ab:	88 45 f4             	mov    %al,-0xc(%ebp)
test/unit/artifacts/cpp/modifiedFunctionsDetector/indent-2.2.10/indent.c:1657
 804b1ae:	a1 48 9b 05 08       	mov    0x8059b48,%eax
 804b1b3:	0f b6 40 64          	movzbl 0x64(%eax),%eax
 804b1b7:	84 c0                	test   %al,%al
 804b1b9:	0f 84 83 01 00 00    	je     804b342 <handle_token_ident+0x1a0>
test/unit/artifacts/cpp/modifiedFunctionsDetector/indent-2.2.10/indent.c:1658
 804b1bf:	a1 48 9b 05 08       	mov    0x8059b48,%eax
 804b1c4:	8b 40 7c             	mov    0x7c(%eax),%eax
test/unit/artifacts/cpp/modifiedFunctionsDetector/indent-2.2.10/indent.c:1657
 804b1c7:	85 c0                	test   %eax,%eax
 804b1c9:	0f 85 73 01 00 00    	jne    804b342 <handle_token_ident+0x1a0>
test/unit/artifacts/cpp/modifiedFunctionsDetector/indent-2.2.10/indent.c:1659
 804b1cf:	a1 48 9b 05 08       	mov    0x8059b48,%eax
 804b1d4:	8b 40 04             	mov    0x4(%eax),%eax
test/unit/artifacts/cpp/modifiedFunctionsDetector/indent-2.2.10/indent.c:1657
 804b1d7:	83 f8 0e             	cmp    $0xe,%eax
 804b1da:	0f 84 62 01 00 00    	je     804b342 <handle_token_ident+0x1a0>
test/unit/artifacts/cpp/modifiedFunctionsDetector/indent-2.2.10/indent.c:1661
 804b1e0:	a1 48 9b 05 08       	mov    0x8059b48,%eax
 804b1e5:	8b 80 9c 00 00 00    	mov    0x9c(%eax),%eax
 804b1eb:	85 c0                	test   %eax,%eax
 804b1ed:	74 2f                	je     804b21e <handle_token_ident+0x7c>
test/unit/artifacts/cpp/modifiedFunctionsDetector/indent-2.2.10/indent.c:1663
 804b1ef:	a1 24 99 05 08       	mov    0x8059924,%eax
 804b1f4:	89 44 24 04          	mov    %eax,0x4(%esp)
 804b1f8:	c7 04 24 14 00 00 00 	movl   $0x14,(%esp)
 804b1ff:	e8 bf 7c 00 00       	call   8052ec3 <set_buf_break>
test/unit/artifacts/cpp/modifiedFunctionsDetector/indent-2.2.10/indent.c:1664
 804b204:	a1 c4 98 05 08       	mov    0x80598c4,%eax
 804b209:	c6 00 20             	movb   $0x20,(%eax)
 804b20c:	83 c0 01             	add    $0x1,%eax
 804b20f:	a3 c4 98 05 08       	mov    %eax,0x80598c4
test/unit/artifacts/cpp/modifiedFunctionsDetector/indent-2.2.10/indent.c:1665
 804b214:	a1 c4 98 05 08       	mov    0x80598c4,%eax
 804b219:	c6 00 00             	movb   $0x0,(%eax)
 804b21c:	eb 1a                	jmp    804b238 <handle_token_ident+0x96>
test/unit/artifacts/cpp/modifiedFunctionsDetector/indent-2.2.10/indent.c:1667
 804b21e:	83 7d 1c 00          	cmpl   $0x0,0x1c(%ebp)
 804b222:	74 14                	je     804b238 <handle_token_ident+0x96>
test/unit/artifacts/cpp/modifiedFunctionsDetector/indent-2.2.10/indent.c:1669
 804b224:	a1 24 99 05 08       	mov    0x8059924,%eax
 804b229:	89 44 24 04          	mov    %eax,0x4(%esp)
 804b22d:	8b 45 1c             	mov    0x1c(%ebp),%eax
 804b230:	89 04 24             	mov    %eax,(%esp)
 804b233:	e8 8b 7c 00 00       	call   8052ec3 <set_buf_break>
test/unit/artifacts/cpp/modifiedFunctionsDetector/indent-2.2.10/indent.c:1676
 804b238:	a1 48 9b 05 08       	mov    0x8059b48,%eax
 804b23d:	c7 80 9c 00 00 00 00 	movl   $0x0,0x9c(%eax)
 804b244:	00 00 00 
test/unit/artifacts/cpp/modifiedFunctionsDetector/indent-2.2.10/indent.c:1678
 804b247:	80 7d f4 00          	cmpb   $0x0,-0xc(%ebp)
 804b24b:	74 20                	je     804b26d <handle_token_ident+0xcb>
test/unit/artifacts/cpp/modifiedFunctionsDetector/indent-2.2.10/indent.c:1679
 804b24d:	a1 6c 99 05 08       	mov    0x805996c,%eax
test/unit/artifacts/cpp/modifiedFunctionsDetector/indent-2.2.10/indent.c:1678
 804b252:	85 c0                	test   %eax,%eax
 804b254:	0f 85 97 00 00 00    	jne    804b2f1 <handle_token_ident+0x14f>
test/unit/artifacts/cpp/modifiedFunctionsDetector/indent-2.2.10/indent.c:1679
 804b25a:	8b 15 c0 98 05 08    	mov    0x80598c0,%edx
 804b260:	a1 c4 98 05 08       	mov    0x80598c4,%eax
test/unit/artifacts/cpp/modifiedFunctionsDetector/indent-2.2.10/indent.c:1678
 804b265:	39 c2                	cmp    %eax,%edx
 804b267:	0f 84 84 00 00 00    	je     804b2f1 <handle_token_ident+0x14f>
test/unit/artifacts/cpp/modifiedFunctionsDetector/indent-2.2.10/indent.c:1681
 804b26d:	a1 48 9b 05 08       	mov    0x8059b48,%eax
 804b272:	8b 40 34             	mov    0x34(%eax),%eax
 804b275:	85 c0                	test   %eax,%eax
 804b277:	75 72                	jne    804b2eb <handle_token_ident+0x149>
 804b279:	a1 88 9b 05 08       	mov    0x8059b88,%eax
 804b27e:	85 c0                	test   %eax,%eax
 804b280:	75 69                	jne    804b2eb <handle_token_ident+0x149>
test/unit/artifacts/cpp/modifiedFunctionsDetector/indent-2.2.10/indent.c:1683
 804b282:	80 7d f4 00          	cmpb   $0x0,-0xc(%ebp)
 804b286:	74 37                	je     804b2bf <handle_token_ident+0x11d>
test/unit/artifacts/cpp/modifiedFunctionsDetector/indent-2.2.10/indent.c:1685
 804b288:	8b 45 14             	mov    0x14(%ebp),%eax
 804b28b:	c7 00 00 00 00 00    	movl   $0x0,(%eax)
test/unit/artifacts/cpp/modifiedFunctionsDetector/indent-2.2.10/indent.c:1688
 804b291:	eb 2d                	jmp    804b2c0 <handle_token_ident+0x11e>
test/unit/artifacts/cpp/modifiedFunctionsDetector/indent-2.2.10/indent.c:1690
 804b293:	e8 bc db ff ff       	call   8048e54 <check_code_size>
test/unit/artifacts/cpp/modifiedFunctionsDetector/indent-2.2.10/indent.c:1691
 804b298:	a1 24 99 05 08       	mov    0x8059924,%eax
 804b29d:	89 44 24 04          	mov    %eax,0x4(%esp)
 804b2a1:	c7 04 24 05 00 00 00 	movl   $0x5,(%esp)
 804b2a8:	e8 16 7c 00 00       	call   8052ec3 <set_buf_break>
test/unit/artifacts/cpp/modifiedFunctionsDetector/indent-2.2.10/indent.c:1692
 804b2ad:	a1 c4 98 05 08       	mov    0x80598c4,%eax
 804b2b2:	c6 00 20             	movb   $0x20,(%eax)
 804b2b5:	83 c0 01             	add    $0x1,%eax
 804b2b8:	a3 c4 98 05 08       	mov    %eax,0x80598c4
 804b2bd:	eb 01                	jmp    804b2c0 <handle_token_ident+0x11e>
test/unit/artifacts/cpp/modifiedFunctionsDetector/indent-2.2.10/indent.c:1688
 804b2bf:	90                   	nop
 804b2c0:	a1 c4 98 05 08       	mov    0x80598c4,%eax
 804b2c5:	89 c2                	mov    %eax,%edx
 804b2c7:	a1 c0 98 05 08       	mov    0x80598c0,%eax
 804b2cc:	29 c2                	sub    %eax,%edx
 804b2ce:	8b 45 14             	mov    0x14(%ebp),%eax
 804b2d1:	8b 00                	mov    (%eax),%eax
 804b2d3:	39 c2                	cmp    %eax,%edx
 804b2d5:	7c bc                	jl     804b293 <handle_token_ident+0xf1>
test/unit/artifacts/cpp/modifiedFunctionsDetector/indent-2.2.10/indent.c:1695
 804b2d7:	a1 c4 98 05 08       	mov    0x80598c4,%eax
 804b2dc:	c6 00 00             	movb   $0x0,(%eax)
test/unit/artifacts/cpp/modifiedFunctionsDetector/indent-2.2.10/indent.c:1696
 804b2df:	a1 48 9b 05 08       	mov    0x8059b48,%eax
 804b2e4:	c7 40 74 00 00 00 00 	movl   $0x0,0x74(%eax)
test/unit/artifacts/cpp/modifiedFunctionsDetector/indent-2.2.10/indent.c:1678
 804b2eb:	90                   	nop
test/unit/artifacts/cpp/modifiedFunctionsDetector/indent-2.2.10/indent.c:1657
 804b2ec:	e9 a5 00 00 00       	jmp    804b396 <handle_token_ident+0x1f4>
test/unit/artifacts/cpp/modifiedFunctionsDetector/indent-2.2.10/indent.c:1701
 804b2f1:	8b 15 c0 98 05 08    	mov    0x80598c0,%edx
 804b2f7:	a1 c4 98 05 08       	mov    0x80598c4,%eax
 804b2fc:	39 c2                	cmp    %eax,%edx
 804b2fe:	74 28                	je     804b328 <handle_token_ident+0x186>
test/unit/artifacts/cpp/modifiedFunctionsDetector/indent-2.2.10/indent.c:1702
 804b300:	a1 48 9b 05 08       	mov    0x8059b48,%eax
 804b305:	8b 40 04             	mov    0x4(%eax),%eax
test/unit/artifacts/cpp/modifiedFunctionsDetector/indent-2.2.10/indent.c:1701
 804b308:	83 f8 0b             	cmp    $0xb,%eax
 804b30b:	74 1b                	je     804b328 <handle_token_ident+0x186>
test/unit/artifacts/cpp/modifiedFunctionsDetector/indent-2.2.10/indent.c:1704
 804b30d:	8b 45 24             	mov    0x24(%ebp),%eax
 804b310:	89 44 24 08          	mov    %eax,0x8(%esp)
 804b314:	c7 44 24 04 24 99 05 	movl   $0x8059924,0x4(%esp)
 804b31b:	08 
 804b31c:	c7 04 24 01 00 00 00 	movl   $0x1,(%esp)
 804b323:	e8 4a 8e 00 00       	call   8054172 <dump_line>
test/unit/artifacts/cpp/modifiedFunctionsDetector/indent-2.2.10/indent.c:1707
 804b328:	8b 45 14             	mov    0x14(%ebp),%eax
 804b32b:	c7 00 00 00 00 00    	movl   $0x0,(%eax)
test/unit/artifacts/cpp/modifiedFunctionsDetector/indent-2.2.10/indent.c:1708
 804b331:	a1 48 9b 05 08       	mov    0x8059b48,%eax
 804b336:	c7 80 9c 00 00 00 00 	movl   $0x0,0x9c(%eax)
 804b33d:	00 00 00 
test/unit/artifacts/cpp/modifiedFunctionsDetector/indent-2.2.10/indent.c:1657
 804b340:	eb 54                	jmp    804b396 <handle_token_ident+0x1f4>
test/unit/artifacts/cpp/modifiedFunctionsDetector/indent-2.2.10/indent.c:1711
 804b342:	8b 45 0c             	mov    0xc(%ebp),%eax
 804b345:	0f b6 00             	movzbl (%eax),%eax
 804b348:	84 c0                	test   %al,%al
 804b34a:	74 4a                	je     804b396 <handle_token_ident+0x1f4>
 804b34c:	a1 48 9b 05 08       	mov    0x8059b48,%eax
 804b351:	8b 40 7c             	mov    0x7c(%eax),%eax
 804b354:	85 c0                	test   %eax,%eax
 804b356:	75 3e                	jne    804b396 <handle_token_ident+0x1f4>
test/unit/artifacts/cpp/modifiedFunctionsDetector/indent-2.2.10/indent.c:1713
 804b358:	8b 45 0c             	mov    0xc(%ebp),%eax
 804b35b:	c6 00 00             	movb   $0x0,(%eax)
test/unit/artifacts/cpp/modifiedFunctionsDetector/indent-2.2.10/indent.c:1714
 804b35e:	8b 45 08             	mov    0x8(%ebp),%eax
 804b361:	c6 00 01             	movb   $0x1,(%eax)
test/unit/artifacts/cpp/modifiedFunctionsDetector/indent-2.2.10/indent.c:1715
 804b364:	a1 48 9b 05 08       	mov    0x8059b48,%eax
 804b369:	c7 40 78 01 00 00 00 	movl   $0x1,0x78(%eax)
test/unit/artifacts/cpp/modifiedFunctionsDetector/indent-2.2.10/indent.c:1716
 804b370:	a1 48 9b 05 08       	mov    0x8059b48,%eax
 804b375:	c7 40 68 00 00 00 00 	movl   $0x0,0x68(%eax)
test/unit/artifacts/cpp/modifiedFunctionsDetector/indent-2.2.10/indent.c:1718
 804b37c:	8b 45 10             	mov    0x10(%ebp),%eax
 804b37f:	8b 00                	mov    (%eax),%eax
 804b381:	89 04 24             	mov    %eax,(%esp)
 804b384:	e8 a6 64 00 00       	call   805182f <parse>
 804b389:	85 c0                	test   %eax,%eax
 804b38b:	74 09                	je     804b396 <handle_token_ident+0x1f4>
test/unit/artifacts/cpp/modifiedFunctionsDetector/indent-2.2.10/indent.c:1720
 804b38d:	8b 45 18             	mov    0x18(%ebp),%eax
 804b390:	c7 00 02 00 00 00    	movl   $0x2,(%eax)
test/unit/artifacts/cpp/modifiedFunctionsDetector/indent-2.2.10/indent.c:1727
 804b396:	c9                   	leave  
 804b397:	c3                   	ret    

0804b398 <handle_token_struct_delim>:
handle_token_struct_delim():
test/unit/artifacts/cpp/modifiedFunctionsDetector/indent-2.2.10/indent.c:1734
 804b398:	55                   	push   %ebp
 804b399:	89 e5                	mov    %esp,%ebp
 804b39b:	83 ec 18             	sub    $0x18,%esp
test/unit/artifacts/cpp/modifiedFunctionsDetector/indent-2.2.10/indent.c:1736
 804b39e:	a1 c0 9b 05 08       	mov    0x8059bc0,%eax
 804b3a3:	89 45 f4             	mov    %eax,-0xc(%ebp)
 804b3a6:	eb 1e                	jmp    804b3c6 <handle_token_struct_delim+0x2e>
test/unit/artifacts/cpp/modifiedFunctionsDetector/indent-2.2.10/indent.c:1738
 804b3a8:	e8 a7 da ff ff       	call   8048e54 <check_code_size>
test/unit/artifacts/cpp/modifiedFunctionsDetector/indent-2.2.10/indent.c:1739
 804b3ad:	a1 c4 98 05 08       	mov    0x80598c4,%eax
 804b3b2:	8b 55 f4             	mov    -0xc(%ebp),%edx
 804b3b5:	0f b6 12             	movzbl (%edx),%edx
 804b3b8:	88 10                	mov    %dl,(%eax)
 804b3ba:	83 c0 01             	add    $0x1,%eax
 804b3bd:	a3 c4 98 05 08       	mov    %eax,0x80598c4
test/unit/artifacts/cpp/modifiedFunctionsDetector/indent-2.2.10/indent.c:1736
 804b3c2:	83 45 f4 01          	addl   $0x1,-0xc(%ebp)
 804b3c6:	a1 c4 9b 05 08       	mov    0x8059bc4,%eax
 804b3cb:	39 45 f4             	cmp    %eax,-0xc(%ebp)
 804b3ce:	72 d8                	jb     804b3a8 <handle_token_struct_delim+0x10>
test/unit/artifacts/cpp/modifiedFunctionsDetector/indent-2.2.10/indent.c:1742
 804b3d0:	a1 48 9b 05 08       	mov    0x8059b48,%eax
 804b3d5:	c7 80 9c 00 00 00 00 	movl   $0x0,0x9c(%eax)
 804b3dc:	00 00 00 
test/unit/artifacts/cpp/modifiedFunctionsDetector/indent-2.2.10/indent.c:1744
 804b3df:	a1 48 9b 05 08       	mov    0x8059b48,%eax
 804b3e4:	c7 80 a0 00 00 00 16 	movl   $0x16,0xa0(%eax)
 804b3eb:	00 00 00 
test/unit/artifacts/cpp/modifiedFunctionsDetector/indent-2.2.10/indent.c:1745
 804b3ee:	c9                   	leave  
 804b3ef:	c3                   	ret    

0804b3f0 <handle_token_comma>:
handle_token_comma():
test/unit/artifacts/cpp/modifiedFunctionsDetector/indent-2.2.10/indent.c:1755
 804b3f0:	55                   	push   %ebp
 804b3f1:	89 e5                	mov    %esp,%ebp
 804b3f3:	83 ec 28             	sub    $0x28,%esp
 804b3f6:	8b 45 10             	mov    0x10(%ebp),%eax
 804b3f9:	88 45 f4             	mov    %al,-0xc(%ebp)
test/unit/artifacts/cpp/modifiedFunctionsDetector/indent-2.2.10/indent.c:1756
 804b3fc:	a1 48 9b 05 08       	mov    0x8059b48,%eax
 804b401:	c7 80 9c 00 00 00 01 	movl   $0x1,0x9c(%eax)
 804b408:	00 00 00 
test/unit/artifacts/cpp/modifiedFunctionsDetector/indent-2.2.10/indent.c:1758
 804b40b:	a1 48 9b 05 08       	mov    0x8059b48,%eax
 804b410:	8b 80 84 00 00 00    	mov    0x84(%eax),%eax
 804b416:	85 c0                	test   %eax,%eax
 804b418:	75 7a                	jne    804b494 <handle_token_comma+0xa4>
test/unit/artifacts/cpp/modifiedFunctionsDetector/indent-2.2.10/indent.c:1759
 804b41a:	a1 48 9b 05 08       	mov    0x8059b48,%eax
 804b41f:	0f b6 40 64          	movzbl 0x64(%eax),%eax
test/unit/artifacts/cpp/modifiedFunctionsDetector/indent-2.2.10/indent.c:1758
 804b423:	84 c0                	test   %al,%al
 804b425:	74 6d                	je     804b494 <handle_token_comma+0xa4>
test/unit/artifacts/cpp/modifiedFunctionsDetector/indent-2.2.10/indent.c:1760
 804b427:	a1 88 9b 05 08       	mov    0x8059b88,%eax
test/unit/artifacts/cpp/modifiedFunctionsDetector/indent-2.2.10/indent.c:1758
 804b42c:	85 c0                	test   %eax,%eax
 804b42e:	75 64                	jne    804b494 <handle_token_comma+0xa4>
 804b430:	80 7d f4 00          	cmpb   $0x0,-0xc(%ebp)
 804b434:	75 5e                	jne    804b494 <handle_token_comma+0xa4>
test/unit/artifacts/cpp/modifiedFunctionsDetector/indent-2.2.10/indent.c:1761
 804b436:	a1 48 9b 05 08       	mov    0x8059b48,%eax
 804b43b:	8b 40 34             	mov    0x34(%eax),%eax
test/unit/artifacts/cpp/modifiedFunctionsDetector/indent-2.2.10/indent.c:1758
 804b43e:	85 c0                	test   %eax,%eax
 804b440:	75 52                	jne    804b494 <handle_token_comma+0xa4>
test/unit/artifacts/cpp/modifiedFunctionsDetector/indent-2.2.10/indent.c:1763
 804b442:	eb 2a                	jmp    804b46e <handle_token_comma+0x7e>
test/unit/artifacts/cpp/modifiedFunctionsDetector/indent-2.2.10/indent.c:1765
 804b444:	e8 0b da ff ff       	call   8048e54 <check_code_size>
test/unit/artifacts/cpp/modifiedFunctionsDetector/indent-2.2.10/indent.c:1766
 804b449:	a1 24 99 05 08       	mov    0x8059924,%eax
 804b44e:	89 44 24 04          	mov    %eax,0x4(%esp)
 804b452:	c7 04 24 05 00 00 00 	movl   $0x5,(%esp)
 804b459:	e8 65 7a 00 00       	call   8052ec3 <set_buf_break>
test/unit/artifacts/cpp/modifiedFunctionsDetector/indent-2.2.10/indent.c:1767
 804b45e:	a1 c4 98 05 08       	mov    0x80598c4,%eax
 804b463:	c6 00 20             	movb   $0x20,(%eax)
 804b466:	83 c0 01             	add    $0x1,%eax
 804b469:	a3 c4 98 05 08       	mov    %eax,0x80598c4
test/unit/artifacts/cpp/modifiedFunctionsDetector/indent-2.2.10/indent.c:1763
 804b46e:	a1 c4 98 05 08       	mov    0x80598c4,%eax
 804b473:	89 c2                	mov    %eax,%edx
 804b475:	a1 c0 98 05 08       	mov    0x80598c0,%eax
 804b47a:	29 c2                	sub    %eax,%edx
 804b47c:	8b 45 0c             	mov    0xc(%ebp),%eax
 804b47f:	8b 00                	mov    (%eax),%eax
 804b481:	83 e8 01             	sub    $0x1,%eax
 804b484:	39 c2                	cmp    %eax,%edx
 804b486:	7c bc                	jl     804b444 <handle_token_comma+0x54>
test/unit/artifacts/cpp/modifiedFunctionsDetector/indent-2.2.10/indent.c:1770
 804b488:	a1 48 9b 05 08       	mov    0x8059b48,%eax
 804b48d:	c7 40 74 00 00 00 00 	movl   $0x0,0x74(%eax)
test/unit/artifacts/cpp/modifiedFunctionsDetector/indent-2.2.10/indent.c:1773
 804b494:	a1 c4 98 05 08       	mov    0x80598c4,%eax
 804b499:	c6 00 2c             	movb   $0x2c,(%eax)
 804b49c:	83 c0 01             	add    $0x1,%eax
 804b49f:	a3 c4 98 05 08       	mov    %eax,0x80598c4
test/unit/artifacts/cpp/modifiedFunctionsDetector/indent-2.2.10/indent.c:1775
 804b4a4:	a1 48 9b 05 08       	mov    0x8059b48,%eax
 804b4a9:	8b 40 7c             	mov    0x7c(%eax),%eax
 804b4ac:	85 c0                	test   %eax,%eax
 804b4ae:	75 30                	jne    804b4e0 <handle_token_comma+0xf0>
test/unit/artifacts/cpp/modifiedFunctionsDetector/indent-2.2.10/indent.c:1777
 804b4b0:	a1 48 9b 05 08       	mov    0x8059b48,%eax
 804b4b5:	8b 40 38             	mov    0x38(%eax),%eax
 804b4b8:	85 c0                	test   %eax,%eax
 804b4ba:	7f 0c                	jg     804b4c8 <handle_token_comma+0xd8>
test/unit/artifacts/cpp/modifiedFunctionsDetector/indent-2.2.10/indent.c:1779
 804b4bc:	a1 48 9b 05 08       	mov    0x8059b48,%eax
 804b4c1:	c7 40 34 00 00 00 00 	movl   $0x0,0x34(%eax)
test/unit/artifacts/cpp/modifiedFunctionsDetector/indent-2.2.10/indent.c:1786
 804b4c8:	a1 f0 98 05 08       	mov    0x80598f0,%eax
 804b4cd:	85 c0                	test   %eax,%eax
 804b4cf:	74 0f                	je     804b4e0 <handle_token_comma+0xf0>
 804b4d1:	a1 bc 99 05 08       	mov    0x80599bc,%eax
 804b4d6:	85 c0                	test   %eax,%eax
 804b4d8:	75 06                	jne    804b4e0 <handle_token_comma+0xf0>
test/unit/artifacts/cpp/modifiedFunctionsDetector/indent-2.2.10/indent.c:1788
 804b4da:	8b 45 08             	mov    0x8(%ebp),%eax
 804b4dd:	c6 00 01             	movb   $0x1,(%eax)
test/unit/artifacts/cpp/modifiedFunctionsDetector/indent-2.2.10/indent.c:1792
 804b4e0:	a1 48 9b 05 08       	mov    0x8059b48,%eax
 804b4e5:	8b 40 34             	mov    0x34(%eax),%eax
 804b4e8:	85 c0                	test   %eax,%eax
 804b4ea:	74 0c                	je     804b4f8 <handle_token_comma+0x108>
test/unit/artifacts/cpp/modifiedFunctionsDetector/indent-2.2.10/indent.c:1794
 804b4ec:	a1 48 9b 05 08       	mov    0x8059b48,%eax
 804b4f1:	c7 40 68 00 00 00 00 	movl   $0x0,0x68(%eax)
test/unit/artifacts/cpp/modifiedFunctionsDetector/indent-2.2.10/indent.c:1800
 804b4f8:	a1 b4 99 05 08       	mov    0x80599b4,%eax
 804b4fd:	85 c0                	test   %eax,%eax
 804b4ff:	74 2b                	je     804b52c <handle_token_comma+0x13c>
test/unit/artifacts/cpp/modifiedFunctionsDetector/indent-2.2.10/indent.c:1801
 804b501:	a1 48 9b 05 08       	mov    0x8059b48,%eax
 804b506:	8b 40 4c             	mov    0x4c(%eax),%eax
test/unit/artifacts/cpp/modifiedFunctionsDetector/indent-2.2.10/indent.c:1800
 804b509:	85 c0                	test   %eax,%eax
 804b50b:	75 1f                	jne    804b52c <handle_token_comma+0x13c>
test/unit/artifacts/cpp/modifiedFunctionsDetector/indent-2.2.10/indent.c:1802
 804b50d:	a1 48 9b 05 08       	mov    0x8059b48,%eax
 804b512:	8b 40 68             	mov    0x68(%eax),%eax
test/unit/artifacts/cpp/modifiedFunctionsDetector/indent-2.2.10/indent.c:1800
 804b515:	85 c0                	test   %eax,%eax
 804b517:	74 13                	je     804b52c <handle_token_comma+0x13c>
test/unit/artifacts/cpp/modifiedFunctionsDetector/indent-2.2.10/indent.c:1802
 804b519:	a1 48 9b 05 08       	mov    0x8059b48,%eax
 804b51e:	0f b6 40 64          	movzbl 0x64(%eax),%eax
test/unit/artifacts/cpp/modifiedFunctionsDetector/indent-2.2.10/indent.c:1800
 804b522:	84 c0                	test   %al,%al
 804b524:	74 06                	je     804b52c <handle_token_comma+0x13c>
test/unit/artifacts/cpp/modifiedFunctionsDetector/indent-2.2.10/indent.c:1804
 804b526:	8b 45 08             	mov    0x8(%ebp),%eax
 804b529:	c6 00 01             	movb   $0x1,(%eax)
test/unit/artifacts/cpp/modifiedFunctionsDetector/indent-2.2.10/indent.c:1807
 804b52c:	c9                   	leave  
 804b52d:	c3                   	ret    

0804b52e <handle_token_preesc>:
handle_token_preesc():
test/unit/artifacts/cpp/modifiedFunctionsDetector/indent-2.2.10/indent.c:1817
 804b52e:	55                   	push   %ebp
 804b52f:	89 e5                	mov    %esp,%ebp
 804b531:	53                   	push   %ebx
 804b532:	83 ec 54             	sub    $0x54,%esp
test/unit/artifacts/cpp/modifiedFunctionsDetector/indent-2.2.10/indent.c:1821
 804b535:	8b 15 d0 98 05 08    	mov    0x80598d0,%edx
 804b53b:	a1 d4 98 05 08       	mov    0x80598d4,%eax
 804b540:	39 c2                	cmp    %eax,%edx
 804b542:	75 1e                	jne    804b562 <handle_token_preesc+0x34>
 804b544:	8b 15 b0 98 05 08    	mov    0x80598b0,%edx
 804b54a:	a1 b4 98 05 08       	mov    0x80598b4,%eax
 804b54f:	39 c2                	cmp    %eax,%edx
 804b551:	75 0f                	jne    804b562 <handle_token_preesc+0x34>
 804b553:	8b 15 c0 98 05 08    	mov    0x80598c0,%edx
 804b559:	a1 c4 98 05 08       	mov    0x80598c4,%eax
 804b55e:	39 c2                	cmp    %eax,%edx
 804b560:	74 1b                	je     804b57d <handle_token_preesc+0x4f>
test/unit/artifacts/cpp/modifiedFunctionsDetector/indent-2.2.10/indent.c:1823
 804b562:	8b 45 0c             	mov    0xc(%ebp),%eax
 804b565:	89 44 24 08          	mov    %eax,0x8(%esp)
 804b569:	c7 44 24 04 24 99 05 	movl   $0x8059924,0x4(%esp)
 804b570:	08 
 804b571:	c7 04 24 01 00 00 00 	movl   $0x1,(%esp)
 804b578:	e8 f5 8b 00 00       	call   8054172 <dump_line>
test/unit/artifacts/cpp/modifiedFunctionsDetector/indent-2.2.10/indent.c:1827
 804b57d:	c7 45 e8 00 00 00 00 	movl   $0x0,-0x18(%ebp)
test/unit/artifacts/cpp/modifiedFunctionsDetector/indent-2.2.10/indent.c:1828
 804b584:	c7 45 e4 00 00 00 00 	movl   $0x0,-0x1c(%ebp)
test/unit/artifacts/cpp/modifiedFunctionsDetector/indent-2.2.10/indent.c:1829
 804b58b:	c7 45 e0 00 00 00 00 	movl   $0x0,-0x20(%ebp)
test/unit/artifacts/cpp/modifiedFunctionsDetector/indent-2.2.10/indent.c:1830
 804b592:	c6 45 f7 00          	movb   $0x0,-0x9(%ebp)
test/unit/artifacts/cpp/modifiedFunctionsDetector/indent-2.2.10/indent.c:1831
 804b596:	c7 45 dc 00 00 00 00 	movl   $0x0,-0x24(%ebp)
test/unit/artifacts/cpp/modifiedFunctionsDetector/indent-2.2.10/indent.c:1838
 804b59d:	a1 c0 9b 05 08       	mov    0x8059bc0,%eax
 804b5a2:	89 45 f0             	mov    %eax,-0x10(%ebp)
 804b5a5:	eb 1e                	jmp    804b5c5 <handle_token_preesc+0x97>
test/unit/artifacts/cpp/modifiedFunctionsDetector/indent-2.2.10/indent.c:1840
 804b5a7:	e8 39 d9 ff ff       	call   8048ee5 <check_lab_size>
test/unit/artifacts/cpp/modifiedFunctionsDetector/indent-2.2.10/indent.c:1841
 804b5ac:	a1 b4 98 05 08       	mov    0x80598b4,%eax
 804b5b1:	8b 55 f0             	mov    -0x10(%ebp),%edx
 804b5b4:	0f b6 12             	movzbl (%edx),%edx
 804b5b7:	88 10                	mov    %dl,(%eax)
 804b5b9:	83 c0 01             	add    $0x1,%eax
 804b5bc:	a3 b4 98 05 08       	mov    %eax,0x80598b4
test/unit/artifacts/cpp/modifiedFunctionsDetector/indent-2.2.10/indent.c:1838
 804b5c1:	83 45 f0 01          	addl   $0x1,-0x10(%ebp)
 804b5c5:	a1 c4 9b 05 08       	mov    0x8059bc4,%eax
 804b5ca:	39 45 f0             	cmp    %eax,-0x10(%ebp)
 804b5cd:	72 d8                	jb     804b5a7 <handle_token_preesc+0x79>
test/unit/artifacts/cpp/modifiedFunctionsDetector/indent-2.2.10/indent.c:1844
 804b5cf:	e9 25 02 00 00       	jmp    804b7f9 <handle_token_preesc+0x2cb>
test/unit/artifacts/cpp/modifiedFunctionsDetector/indent-2.2.10/indent.c:1846
 804b5d4:	e8 0c d9 ff ff       	call   8048ee5 <check_lab_size>
test/unit/artifacts/cpp/modifiedFunctionsDetector/indent-2.2.10/indent.c:1847
 804b5d9:	8b 15 b4 98 05 08    	mov    0x80598b4,%edx
 804b5df:	a1 50 9b 05 08       	mov    0x8059b50,%eax
 804b5e4:	0f b6 08             	movzbl (%eax),%ecx
 804b5e7:	88 0a                	mov    %cl,(%edx)
 804b5e9:	83 c0 01             	add    $0x1,%eax
 804b5ec:	a3 50 9b 05 08       	mov    %eax,0x8059b50
test/unit/artifacts/cpp/modifiedFunctionsDetector/indent-2.2.10/indent.c:1849
 804b5f1:	8b 15 50 9b 05 08    	mov    0x8059b50,%edx
 804b5f7:	a1 54 9b 05 08       	mov    0x8059b54,%eax
 804b5fc:	39 c2                	cmp    %eax,%edx
 804b5fe:	72 05                	jb     804b605 <handle_token_preesc+0xd7>
test/unit/artifacts/cpp/modifiedFunctionsDetector/indent-2.2.10/indent.c:1851
 804b600:	e8 3c 74 00 00       	call   8052a41 <fill_buffer>
test/unit/artifacts/cpp/modifiedFunctionsDetector/indent-2.2.10/indent.c:1854
 804b605:	8b 15 b4 98 05 08    	mov    0x80598b4,%edx
 804b60b:	0f b6 02             	movzbl (%edx),%eax
 804b60e:	0f be c0             	movsbl %al,%eax
 804b611:	83 c2 01             	add    $0x1,%edx
 804b614:	89 15 b4 98 05 08    	mov    %edx,0x80598b4
 804b61a:	83 f8 2a             	cmp    $0x2a,%eax
 804b61d:	0f 84 6c 01 00 00    	je     804b78f <handle_token_preesc+0x261>
 804b623:	83 f8 2a             	cmp    $0x2a,%eax
 804b626:	7f 17                	jg     804b63f <handle_token_preesc+0x111>
 804b628:	83 f8 22             	cmp    $0x22,%eax
 804b62b:	0f 84 2f 01 00 00    	je     804b760 <handle_token_preesc+0x232>
 804b631:	83 f8 27             	cmp    $0x27,%eax
 804b634:	0f 84 26 01 00 00    	je     804b760 <handle_token_preesc+0x232>
 804b63a:	e9 ba 01 00 00       	jmp    804b7f9 <handle_token_preesc+0x2cb>
 804b63f:	83 f8 2f             	cmp    $0x2f,%eax
 804b642:	74 5b                	je     804b69f <handle_token_preesc+0x171>
 804b644:	83 f8 5c             	cmp    $0x5c,%eax
 804b647:	0f 85 ac 01 00 00    	jne    804b7f9 <handle_token_preesc+0x2cb>
test/unit/artifacts/cpp/modifiedFunctionsDetector/indent-2.2.10/indent.c:1857
 804b64d:	83 7d e8 00          	cmpl   $0x0,-0x18(%ebp)
 804b651:	0f 85 89 01 00 00    	jne    804b7e0 <handle_token_preesc+0x2b2>
 804b657:	83 7d e4 00          	cmpl   $0x0,-0x1c(%ebp)
 804b65b:	0f 85 82 01 00 00    	jne    804b7e3 <handle_token_preesc+0x2b5>
test/unit/artifacts/cpp/modifiedFunctionsDetector/indent-2.2.10/indent.c:1859
 804b661:	8b 15 b4 98 05 08    	mov    0x80598b4,%edx
 804b667:	a1 50 9b 05 08       	mov    0x8059b50,%eax
 804b66c:	0f b6 08             	movzbl (%eax),%ecx
 804b66f:	88 0a                	mov    %cl,(%edx)
 804b671:	83 c2 01             	add    $0x1,%edx
 804b674:	89 15 b4 98 05 08    	mov    %edx,0x80598b4
 804b67a:	83 c0 01             	add    $0x1,%eax
 804b67d:	a3 50 9b 05 08       	mov    %eax,0x8059b50
test/unit/artifacts/cpp/modifiedFunctionsDetector/indent-2.2.10/indent.c:1860
 804b682:	8b 15 50 9b 05 08    	mov    0x8059b50,%edx
 804b688:	a1 54 9b 05 08       	mov    0x8059b54,%eax
 804b68d:	39 c2                	cmp    %eax,%edx
 804b68f:	0f 82 51 01 00 00    	jb     804b7e6 <handle_token_preesc+0x2b8>
test/unit/artifacts/cpp/modifiedFunctionsDetector/indent-2.2.10/indent.c:1862
 804b695:	e8 a7 73 00 00       	call   8052a41 <fill_buffer>
test/unit/artifacts/cpp/modifiedFunctionsDetector/indent-2.2.10/indent.c:1865
 804b69a:	e9 5a 01 00 00       	jmp    804b7f9 <handle_token_preesc+0x2cb>
test/unit/artifacts/cpp/modifiedFunctionsDetector/indent-2.2.10/indent.c:1868
 804b69f:	a1 50 9b 05 08       	mov    0x8059b50,%eax
 804b6a4:	0f b6 00             	movzbl (%eax),%eax
 804b6a7:	3c 2a                	cmp    $0x2a,%al
 804b6a9:	74 10                	je     804b6bb <handle_token_preesc+0x18d>
test/unit/artifacts/cpp/modifiedFunctionsDetector/indent-2.2.10/indent.c:1869
 804b6ab:	a1 50 9b 05 08       	mov    0x8059b50,%eax
 804b6b0:	0f b6 00             	movzbl (%eax),%eax
test/unit/artifacts/cpp/modifiedFunctionsDetector/indent-2.2.10/indent.c:1868
 804b6b3:	3c 2f                	cmp    $0x2f,%al
 804b6b5:	0f 85 2e 01 00 00    	jne    804b7e9 <handle_token_preesc+0x2bb>
 804b6bb:	83 7d e8 00          	cmpl   $0x0,-0x18(%ebp)
 804b6bf:	0f 85 27 01 00 00    	jne    804b7ec <handle_token_preesc+0x2be>
 804b6c5:	83 7d e4 00          	cmpl   $0x0,-0x1c(%ebp)
 804b6c9:	0f 85 20 01 00 00    	jne    804b7ef <handle_token_preesc+0x2c1>
 804b6cf:	80 7d f7 00          	cmpb   $0x0,-0x9(%ebp)
 804b6d3:	0f 85 19 01 00 00    	jne    804b7f2 <handle_token_preesc+0x2c4>
test/unit/artifacts/cpp/modifiedFunctionsDetector/indent-2.2.10/indent.c:1872
 804b6d9:	e8 3d 6f 00 00       	call   805261b <current_column>
 804b6de:	83 e8 01             	sub    $0x1,%eax
 804b6e1:	a3 b8 9b 05 08       	mov    %eax,0x8059bb8
test/unit/artifacts/cpp/modifiedFunctionsDetector/indent-2.2.10/indent.c:1874
 804b6e6:	a1 50 9b 05 08       	mov    0x8059b50,%eax
 804b6eb:	0f b6 00             	movzbl (%eax),%eax
 804b6ee:	3c 2f                	cmp    $0x2f,%al
 804b6f0:	75 09                	jne    804b6fb <handle_token_preesc+0x1cd>
test/unit/artifacts/cpp/modifiedFunctionsDetector/indent-2.2.10/indent.c:1876
 804b6f2:	c7 45 e4 01 00 00 00 	movl   $0x1,-0x1c(%ebp)
 804b6f9:	eb 07                	jmp    804b702 <handle_token_preesc+0x1d4>
test/unit/artifacts/cpp/modifiedFunctionsDetector/indent-2.2.10/indent.c:1880
 804b6fb:	c7 45 e8 01 00 00 00 	movl   $0x1,-0x18(%ebp)
test/unit/artifacts/cpp/modifiedFunctionsDetector/indent-2.2.10/indent.c:1883
 804b702:	8b 15 b4 98 05 08    	mov    0x80598b4,%edx
 804b708:	a1 50 9b 05 08       	mov    0x8059b50,%eax
 804b70d:	0f b6 08             	movzbl (%eax),%ecx
 804b710:	88 0a                	mov    %cl,(%edx)
 804b712:	83 c2 01             	add    $0x1,%edx
 804b715:	89 15 b4 98 05 08    	mov    %edx,0x80598b4
 804b71b:	83 c0 01             	add    $0x1,%eax
 804b71e:	a3 50 9b 05 08       	mov    %eax,0x8059b50
test/unit/artifacts/cpp/modifiedFunctionsDetector/indent-2.2.10/indent.c:1884
 804b723:	a1 b4 98 05 08       	mov    0x80598b4,%eax
 804b728:	89 c2                	mov    %eax,%edx
 804b72a:	a1 b0 98 05 08       	mov    0x80598b0,%eax
 804b72f:	89 d1                	mov    %edx,%ecx
 804b731:	29 c1                	sub    %eax,%ecx
 804b733:	89 c8                	mov    %ecx,%eax
 804b735:	83 e8 02             	sub    $0x2,%eax
 804b738:	89 45 e0             	mov    %eax,-0x20(%ebp)
test/unit/artifacts/cpp/modifiedFunctionsDetector/indent-2.2.10/indent.c:1889
 804b73b:	8b 15 a4 9b 05 08    	mov    0x8059ba4,%edx
 804b741:	a1 a8 9b 05 08       	mov    0x8059ba8,%eax
 804b746:	39 c2                	cmp    %eax,%edx
 804b748:	0f 85 a7 00 00 00    	jne    804b7f5 <handle_token_preesc+0x2c7>
test/unit/artifacts/cpp/modifiedFunctionsDetector/indent-2.2.10/indent.c:1891
 804b74e:	e8 c8 6e 00 00       	call   805261b <current_column>
 804b753:	83 e8 02             	sub    $0x2,%eax
 804b756:	a3 b4 9b 05 08       	mov    %eax,0x8059bb4
test/unit/artifacts/cpp/modifiedFunctionsDetector/indent-2.2.10/indent.c:1894
 804b75b:	e9 99 00 00 00       	jmp    804b7f9 <handle_token_preesc+0x2cb>
test/unit/artifacts/cpp/modifiedFunctionsDetector/indent-2.2.10/indent.c:1898
 804b760:	80 7d f7 00          	cmpb   $0x0,-0x9(%ebp)
 804b764:	75 13                	jne    804b779 <handle_token_preesc+0x24b>
test/unit/artifacts/cpp/modifiedFunctionsDetector/indent-2.2.10/indent.c:1900
 804b766:	a1 b4 98 05 08       	mov    0x80598b4,%eax
 804b76b:	83 e8 01             	sub    $0x1,%eax
 804b76e:	0f b6 00             	movzbl (%eax),%eax
 804b771:	88 45 f7             	mov    %al,-0x9(%ebp)
test/unit/artifacts/cpp/modifiedFunctionsDetector/indent-2.2.10/indent.c:1911
 804b774:	e9 80 00 00 00       	jmp    804b7f9 <handle_token_preesc+0x2cb>
test/unit/artifacts/cpp/modifiedFunctionsDetector/indent-2.2.10/indent.c:1902
 804b779:	a1 b4 98 05 08       	mov    0x80598b4,%eax
 804b77e:	83 e8 01             	sub    $0x1,%eax
 804b781:	0f b6 00             	movzbl (%eax),%eax
 804b784:	3a 45 f7             	cmp    -0x9(%ebp),%al
 804b787:	75 6f                	jne    804b7f8 <handle_token_preesc+0x2ca>
test/unit/artifacts/cpp/modifiedFunctionsDetector/indent-2.2.10/indent.c:1904
 804b789:	c6 45 f7 00          	movb   $0x0,-0x9(%ebp)
test/unit/artifacts/cpp/modifiedFunctionsDetector/indent-2.2.10/indent.c:1911
 804b78d:	eb 6a                	jmp    804b7f9 <handle_token_preesc+0x2cb>
test/unit/artifacts/cpp/modifiedFunctionsDetector/indent-2.2.10/indent.c:1914
 804b78f:	a1 50 9b 05 08       	mov    0x8059b50,%eax
 804b794:	0f b6 00             	movzbl (%eax),%eax
 804b797:	3c 2f                	cmp    $0x2f,%al
 804b799:	75 5e                	jne    804b7f9 <handle_token_preesc+0x2cb>
 804b79b:	83 7d e8 00          	cmpl   $0x0,-0x18(%ebp)
 804b79f:	74 58                	je     804b7f9 <handle_token_preesc+0x2cb>
test/unit/artifacts/cpp/modifiedFunctionsDetector/indent-2.2.10/indent.c:1916
 804b7a1:	c7 45 e8 00 00 00 00 	movl   $0x0,-0x18(%ebp)
test/unit/artifacts/cpp/modifiedFunctionsDetector/indent-2.2.10/indent.c:1917
 804b7a8:	8b 15 b4 98 05 08    	mov    0x80598b4,%edx
 804b7ae:	a1 50 9b 05 08       	mov    0x8059b50,%eax
 804b7b3:	0f b6 08             	movzbl (%eax),%ecx
 804b7b6:	88 0a                	mov    %cl,(%edx)
 804b7b8:	83 c2 01             	add    $0x1,%edx
 804b7bb:	89 15 b4 98 05 08    	mov    %edx,0x80598b4
 804b7c1:	83 c0 01             	add    $0x1,%eax
 804b7c4:	a3 50 9b 05 08       	mov    %eax,0x8059b50
test/unit/artifacts/cpp/modifiedFunctionsDetector/indent-2.2.10/indent.c:1918
 804b7c9:	a1 b4 98 05 08       	mov    0x80598b4,%eax
 804b7ce:	89 c2                	mov    %eax,%edx
 804b7d0:	a1 b0 98 05 08       	mov    0x80598b0,%eax
 804b7d5:	89 d3                	mov    %edx,%ebx
 804b7d7:	29 c3                	sub    %eax,%ebx
 804b7d9:	89 d8                	mov    %ebx,%eax
 804b7db:	89 45 dc             	mov    %eax,-0x24(%ebp)
 804b7de:	eb 19                	jmp    804b7f9 <handle_token_preesc+0x2cb>
test/unit/artifacts/cpp/modifiedFunctionsDetector/indent-2.2.10/indent.c:1865
 804b7e0:	90                   	nop
 804b7e1:	eb 16                	jmp    804b7f9 <handle_token_preesc+0x2cb>
 804b7e3:	90                   	nop
 804b7e4:	eb 13                	jmp    804b7f9 <handle_token_preesc+0x2cb>
 804b7e6:	90                   	nop
 804b7e7:	eb 10                	jmp    804b7f9 <handle_token_preesc+0x2cb>
test/unit/artifacts/cpp/modifiedFunctionsDetector/indent-2.2.10/indent.c:1894
 804b7e9:	90                   	nop
 804b7ea:	eb 0d                	jmp    804b7f9 <handle_token_preesc+0x2cb>
 804b7ec:	90                   	nop
 804b7ed:	eb 0a                	jmp    804b7f9 <handle_token_preesc+0x2cb>
 804b7ef:	90                   	nop
 804b7f0:	eb 07                	jmp    804b7f9 <handle_token_preesc+0x2cb>
 804b7f2:	90                   	nop
 804b7f3:	eb 04                	jmp    804b7f9 <handle_token_preesc+0x2cb>
 804b7f5:	90                   	nop
 804b7f6:	eb 01                	jmp    804b7f9 <handle_token_preesc+0x2cb>
test/unit/artifacts/cpp/modifiedFunctionsDetector/indent-2.2.10/indent.c:1911
 804b7f8:	90                   	nop
test/unit/artifacts/cpp/modifiedFunctionsDetector/indent-2.2.10/indent.c:1844
 804b7f9:	0f b6 05 58 9b 05 08 	movzbl 0x8059b58,%eax
 804b800:	84 c0                	test   %al,%al
 804b802:	75 2b                	jne    804b82f <handle_token_preesc+0x301>
 804b804:	a1 50 9b 05 08       	mov    0x8059b50,%eax
 804b809:	0f b6 00             	movzbl (%eax),%eax
 804b80c:	3c 0a                	cmp    $0xa,%al
 804b80e:	0f 85 c0 fd ff ff    	jne    804b5d4 <handle_token_preesc+0xa6>
 804b814:	83 7d e8 00          	cmpl   $0x0,-0x18(%ebp)
 804b818:	0f 85 b6 fd ff ff    	jne    804b5d4 <handle_token_preesc+0xa6>
test/unit/artifacts/cpp/modifiedFunctionsDetector/indent-2.2.10/indent.c:1924
 804b81e:	eb 10                	jmp    804b830 <handle_token_preesc+0x302>
test/unit/artifacts/cpp/modifiedFunctionsDetector/indent-2.2.10/indent.c:1926
 804b820:	a1 b4 98 05 08       	mov    0x80598b4,%eax
 804b825:	83 e8 01             	sub    $0x1,%eax
 804b828:	a3 b4 98 05 08       	mov    %eax,0x80598b4
 804b82d:	eb 01                	jmp    804b830 <handle_token_preesc+0x302>
test/unit/artifacts/cpp/modifiedFunctionsDetector/indent-2.2.10/indent.c:1924
 804b82f:	90                   	nop
 804b830:	8b 15 b4 98 05 08    	mov    0x80598b4,%edx
 804b836:	a1 b0 98 05 08       	mov    0x80598b0,%eax
 804b83b:	39 c2                	cmp    %eax,%edx
 804b83d:	76 1e                	jbe    804b85d <handle_token_preesc+0x32f>
 804b83f:	a1 b4 98 05 08       	mov    0x80598b4,%eax
 804b844:	83 e8 01             	sub    $0x1,%eax
 804b847:	0f b6 00             	movzbl (%eax),%eax
 804b84a:	3c 20                	cmp    $0x20,%al
 804b84c:	74 d2                	je     804b820 <handle_token_preesc+0x2f2>
 804b84e:	a1 b4 98 05 08       	mov    0x80598b4,%eax
 804b853:	83 e8 01             	sub    $0x1,%eax
 804b856:	0f b6 00             	movzbl (%eax),%eax
 804b859:	3c 09                	cmp    $0x9,%al
 804b85b:	74 c3                	je     804b820 <handle_token_preesc+0x2f2>
test/unit/artifacts/cpp/modifiedFunctionsDetector/indent-2.2.10/indent.c:1930
 804b85d:	83 7d e4 00          	cmpl   $0x0,-0x1c(%ebp)
 804b861:	74 3d                	je     804b8a0 <handle_token_preesc+0x372>
test/unit/artifacts/cpp/modifiedFunctionsDetector/indent-2.2.10/indent.c:1932
 804b863:	c7 45 e4 00 00 00 00 	movl   $0x0,-0x1c(%ebp)
test/unit/artifacts/cpp/modifiedFunctionsDetector/indent-2.2.10/indent.c:1933
 804b86a:	8b 15 b4 98 05 08    	mov    0x80598b4,%edx
 804b870:	a1 50 9b 05 08       	mov    0x8059b50,%eax
 804b875:	0f b6 08             	movzbl (%eax),%ecx
 804b878:	88 0a                	mov    %cl,(%edx)
 804b87a:	83 c2 01             	add    $0x1,%edx
 804b87d:	89 15 b4 98 05 08    	mov    %edx,0x80598b4
 804b883:	83 c0 01             	add    $0x1,%eax
 804b886:	a3 50 9b 05 08       	mov    %eax,0x8059b50
test/unit/artifacts/cpp/modifiedFunctionsDetector/indent-2.2.10/indent.c:1934
 804b88b:	a1 b4 98 05 08       	mov    0x80598b4,%eax
 804b890:	89 c2                	mov    %eax,%edx
 804b892:	a1 b0 98 05 08       	mov    0x80598b0,%eax
 804b897:	89 d1                	mov    %edx,%ecx
 804b899:	29 c1                	sub    %eax,%ecx
 804b89b:	89 c8                	mov    %ecx,%eax
 804b89d:	89 45 dc             	mov    %eax,-0x24(%ebp)
test/unit/artifacts/cpp/modifiedFunctionsDetector/indent-2.2.10/indent.c:1937
 804b8a0:	a1 b4 98 05 08       	mov    0x80598b4,%eax
 804b8a5:	89 c2                	mov    %eax,%edx
 804b8a7:	a1 b0 98 05 08       	mov    0x80598b0,%eax
 804b8ac:	89 d3                	mov    %edx,%ebx
 804b8ae:	29 c3                	sub    %eax,%ebx
 804b8b0:	89 d8                	mov    %ebx,%eax
 804b8b2:	3b 45 dc             	cmp    -0x24(%ebp),%eax
 804b8b5:	0f 85 95 01 00 00    	jne    804ba50 <handle_token_preesc+0x522>
 804b8bb:	a1 e0 98 05 08       	mov    0x80598e0,%eax
 804b8c0:	85 c0                	test   %eax,%eax
 804b8c2:	0f 85 88 01 00 00    	jne    804ba50 <handle_token_preesc+0x522>
test/unit/artifacts/cpp/modifiedFunctionsDetector/indent-2.2.10/indent.c:1941
 804b8c8:	8b 15 a8 9b 05 08    	mov    0x8059ba8,%edx
 804b8ce:	a1 a4 9b 05 08       	mov    0x8059ba4,%eax
 804b8d3:	39 c2                	cmp    %eax,%edx
 804b8d5:	74 4e                	je     804b925 <handle_token_preesc+0x3f7>
test/unit/artifacts/cpp/modifiedFunctionsDetector/indent-2.2.10/indent.c:1943
 804b8d7:	c7 44 24 04 02 00 00 	movl   $0x2,0x4(%esp)
 804b8de:	00 
 804b8df:	c7 04 24 a4 9b 05 08 	movl   $0x8059ba4,(%esp)
 804b8e6:	e8 8b d6 ff ff       	call   8048f76 <need_chars>
test/unit/artifacts/cpp/modifiedFunctionsDetector/indent-2.2.10/indent.c:1944
 804b8eb:	a1 a8 9b 05 08       	mov    0x8059ba8,%eax
 804b8f0:	c6 00 0a             	movb   $0xa,(%eax)
 804b8f3:	83 c0 01             	add    $0x1,%eax
 804b8f6:	a3 a8 9b 05 08       	mov    %eax,0x8059ba8
test/unit/artifacts/cpp/modifiedFunctionsDetector/indent-2.2.10/indent.c:1946
 804b8fb:	a1 a8 9b 05 08       	mov    0x8059ba8,%eax
 804b900:	c6 00 20             	movb   $0x20,(%eax)
 804b903:	83 c0 01             	add    $0x1,%eax
 804b906:	a3 a8 9b 05 08       	mov    %eax,0x8059ba8
test/unit/artifacts/cpp/modifiedFunctionsDetector/indent-2.2.10/indent.c:1947
 804b90b:	a1 b0 9b 05 08       	mov    0x8059bb0,%eax
 804b910:	83 c0 02             	add    $0x2,%eax
 804b913:	a3 b0 9b 05 08       	mov    %eax,0x8059bb0
test/unit/artifacts/cpp/modifiedFunctionsDetector/indent-2.2.10/indent.c:1948
 804b918:	a1 ec 98 05 08       	mov    0x80598ec,%eax
 804b91d:	83 e8 01             	sub    $0x1,%eax
 804b920:	a3 ec 98 05 08       	mov    %eax,0x80598ec
test/unit/artifacts/cpp/modifiedFunctionsDetector/indent-2.2.10/indent.c:1951
 804b925:	8b 45 e0             	mov    -0x20(%ebp),%eax
 804b928:	8b 55 dc             	mov    -0x24(%ebp),%edx
 804b92b:	89 d1                	mov    %edx,%ecx
 804b92d:	29 c1                	sub    %eax,%ecx
 804b92f:	89 c8                	mov    %ecx,%eax
 804b931:	83 c0 01             	add    $0x1,%eax
 804b934:	89 44 24 04          	mov    %eax,0x4(%esp)
 804b938:	c7 04 24 a4 9b 05 08 	movl   $0x8059ba4,(%esp)
 804b93f:	e8 32 d6 ff ff       	call   8048f76 <need_chars>
test/unit/artifacts/cpp/modifiedFunctionsDetector/indent-2.2.10/indent.c:1953
 804b944:	8b 45 e0             	mov    -0x20(%ebp),%eax
 804b947:	8b 55 dc             	mov    -0x24(%ebp),%edx
 804b94a:	89 d3                	mov    %edx,%ebx
 804b94c:	29 c3                	sub    %eax,%ebx
 804b94e:	89 d8                	mov    %ebx,%eax
test/unit/artifacts/cpp/modifiedFunctionsDetector/indent-2.2.10/indent.c:1952
 804b950:	89 c2                	mov    %eax,%edx
 804b952:	a1 b0 98 05 08       	mov    0x80598b0,%eax
 804b957:	89 c1                	mov    %eax,%ecx
 804b959:	8b 45 e0             	mov    -0x20(%ebp),%eax
 804b95c:	01 c1                	add    %eax,%ecx
 804b95e:	a1 a8 9b 05 08       	mov    0x8059ba8,%eax
 804b963:	89 54 24 08          	mov    %edx,0x8(%esp)
 804b967:	89 4c 24 04          	mov    %ecx,0x4(%esp)
 804b96b:	89 04 24             	mov    %eax,(%esp)
 804b96e:	e8 c9 d1 ff ff       	call   8048b3c <strncpy@plt>
test/unit/artifacts/cpp/modifiedFunctionsDetector/indent-2.2.10/indent.c:1954
 804b973:	8b 15 a8 9b 05 08    	mov    0x8059ba8,%edx
 804b979:	8b 45 e0             	mov    -0x20(%ebp),%eax
 804b97c:	8b 4d dc             	mov    -0x24(%ebp),%ecx
 804b97f:	89 cb                	mov    %ecx,%ebx
 804b981:	29 c3                	sub    %eax,%ebx
 804b983:	89 d8                	mov    %ebx,%eax
 804b985:	8d 04 02             	lea    (%edx,%eax,1),%eax
 804b988:	c6 00 00             	movb   $0x0,(%eax)
test/unit/artifacts/cpp/modifiedFunctionsDetector/indent-2.2.10/indent.c:1955
 804b98b:	8b 15 a8 9b 05 08    	mov    0x8059ba8,%edx
 804b991:	8b 45 e0             	mov    -0x20(%ebp),%eax
 804b994:	8b 4d dc             	mov    -0x24(%ebp),%ecx
 804b997:	89 cb                	mov    %ecx,%ebx
 804b999:	29 c3                	sub    %eax,%ebx
 804b99b:	89 d8                	mov    %ebx,%eax
 804b99d:	8d 04 02             	lea    (%edx,%eax,1),%eax
 804b9a0:	a3 a8 9b 05 08       	mov    %eax,0x8059ba8
test/unit/artifacts/cpp/modifiedFunctionsDetector/indent-2.2.10/indent.c:1956
 804b9a5:	a1 b0 9b 05 08       	mov    0x8059bb0,%eax
 804b9aa:	8b 55 e0             	mov    -0x20(%ebp),%edx
 804b9ad:	8b 4d dc             	mov    -0x24(%ebp),%ecx
 804b9b0:	89 cb                	mov    %ecx,%ebx
 804b9b2:	29 d3                	sub    %edx,%ebx
 804b9b4:	89 da                	mov    %ebx,%edx
 804b9b6:	01 d0                	add    %edx,%eax
 804b9b8:	a3 b0 9b 05 08       	mov    %eax,0x8059bb0
test/unit/artifacts/cpp/modifiedFunctionsDetector/indent-2.2.10/indent.c:1958
 804b9bd:	8b 15 b0 98 05 08    	mov    0x80598b0,%edx
 804b9c3:	8b 45 e0             	mov    -0x20(%ebp),%eax
 804b9c6:	8d 04 02             	lea    (%edx,%eax,1),%eax
 804b9c9:	a3 b4 98 05 08       	mov    %eax,0x80598b4
test/unit/artifacts/cpp/modifiedFunctionsDetector/indent-2.2.10/indent.c:1960
 804b9ce:	eb 0d                	jmp    804b9dd <handle_token_preesc+0x4af>
test/unit/artifacts/cpp/modifiedFunctionsDetector/indent-2.2.10/indent.c:1963
 804b9d0:	a1 b4 98 05 08       	mov    0x80598b4,%eax
 804b9d5:	83 e8 01             	sub    $0x1,%eax
 804b9d8:	a3 b4 98 05 08       	mov    %eax,0x80598b4
test/unit/artifacts/cpp/modifiedFunctionsDetector/indent-2.2.10/indent.c:1960
 804b9dd:	8b 15 b4 98 05 08    	mov    0x80598b4,%edx
 804b9e3:	a1 b0 98 05 08       	mov    0x80598b0,%eax
 804b9e8:	39 c2                	cmp    %eax,%edx
 804b9ea:	76 1e                	jbe    804ba0a <handle_token_preesc+0x4dc>
test/unit/artifacts/cpp/modifiedFunctionsDetector/indent-2.2.10/indent.c:1961
 804b9ec:	a1 b4 98 05 08       	mov    0x80598b4,%eax
 804b9f1:	83 e8 01             	sub    $0x1,%eax
 804b9f4:	0f b6 00             	movzbl (%eax),%eax
test/unit/artifacts/cpp/modifiedFunctionsDetector/indent-2.2.10/indent.c:1960
 804b9f7:	3c 20                	cmp    $0x20,%al
 804b9f9:	74 d5                	je     804b9d0 <handle_token_preesc+0x4a2>
test/unit/artifacts/cpp/modifiedFunctionsDetector/indent-2.2.10/indent.c:1961
 804b9fb:	a1 b4 98 05 08       	mov    0x80598b4,%eax
 804ba00:	83 e8 01             	sub    $0x1,%eax
 804ba03:	0f b6 00             	movzbl (%eax),%eax
test/unit/artifacts/cpp/modifiedFunctionsDetector/indent-2.2.10/indent.c:1960
