
test/unit/artifacts/cpp/modifiedFunctionsDetector/indent-2.2.9/indent:     file format elf32-i386


Disassembly of section .init:

08048a74 <_init>:
_init():
 8048a74:	55                   	push   %ebp
 8048a75:	89 e5                	mov    %esp,%ebp
 8048a77:	53                   	push   %ebx
 8048a78:	83 ec 04             	sub    $0x4,%esp
 8048a7b:	e8 00 00 00 00       	call   8048a80 <_init+0xc>
 8048a80:	5b                   	pop    %ebx
 8048a81:	81 c3 74 15 01 00    	add    $0x11574,%ebx
 8048a87:	8b 93 fc ff ff ff    	mov    -0x4(%ebx),%edx
 8048a8d:	85 d2                	test   %edx,%edx
 8048a8f:	74 05                	je     8048a96 <_init+0x22>
 8048a91:	e8 6e 00 00 00       	call   8048b04 <__gmon_start__@plt>
 8048a96:	e8 a5 03 00 00       	call   8048e40 <frame_dummy>
 8048a9b:	e8 80 c3 00 00       	call   8054e20 <__do_global_ctors_aux>
 8048aa0:	58                   	pop    %eax
 8048aa1:	5b                   	pop    %ebx
 8048aa2:	c9                   	leave  
 8048aa3:	c3                   	ret    

Disassembly of section .plt:

08048aa4 <abort@plt-0x10>:
 8048aa4:	ff 35 f8 9f 05 08    	pushl  0x8059ff8
 8048aaa:	ff 25 fc 9f 05 08    	jmp    *0x8059ffc
 8048ab0:	00 00                	add    %al,(%eax)
	...

08048ab4 <abort@plt>:
 8048ab4:	ff 25 00 a0 05 08    	jmp    *0x805a000
 8048aba:	68 00 00 00 00       	push   $0x0
 8048abf:	e9 e0 ff ff ff       	jmp    8048aa4 <_init+0x30>

08048ac4 <__errno_location@plt>:
 8048ac4:	ff 25 04 a0 05 08    	jmp    *0x805a004
 8048aca:	68 08 00 00 00       	push   $0x8
 8048acf:	e9 d0 ff ff ff       	jmp    8048aa4 <_init+0x30>

08048ad4 <sprintf@plt>:
 8048ad4:	ff 25 08 a0 05 08    	jmp    *0x805a008
 8048ada:	68 10 00 00 00       	push   $0x10
 8048adf:	e9 c0 ff ff ff       	jmp    8048aa4 <_init+0x30>

08048ae4 <open@plt>:
 8048ae4:	ff 25 0c a0 05 08    	jmp    *0x805a00c
 8048aea:	68 18 00 00 00       	push   $0x18
 8048aef:	e9 b0 ff ff ff       	jmp    8048aa4 <_init+0x30>

08048af4 <memcmp@plt>:
 8048af4:	ff 25 10 a0 05 08    	jmp    *0x805a010
 8048afa:	68 20 00 00 00       	push   $0x20
 8048aff:	e9 a0 ff ff ff       	jmp    8048aa4 <_init+0x30>

08048b04 <__gmon_start__@plt>:
 8048b04:	ff 25 14 a0 05 08    	jmp    *0x805a014
 8048b0a:	68 28 00 00 00       	push   $0x28
 8048b0f:	e9 90 ff ff ff       	jmp    8048aa4 <_init+0x30>

08048b14 <realloc@plt>:
 8048b14:	ff 25 18 a0 05 08    	jmp    *0x805a018
 8048b1a:	68 30 00 00 00       	push   $0x30
 8048b1f:	e9 80 ff ff ff       	jmp    8048aa4 <_init+0x30>

08048b24 <getenv@plt>:
 8048b24:	ff 25 1c a0 05 08    	jmp    *0x805a01c
 8048b2a:	68 38 00 00 00       	push   $0x38
 8048b2f:	e9 70 ff ff ff       	jmp    8048aa4 <_init+0x30>

08048b34 <calloc@plt>:
 8048b34:	ff 25 20 a0 05 08    	jmp    *0x805a020
 8048b3a:	68 40 00 00 00       	push   $0x40
 8048b3f:	e9 60 ff ff ff       	jmp    8048aa4 <_init+0x30>

08048b44 <strncpy@plt>:
 8048b44:	ff 25 24 a0 05 08    	jmp    *0x805a024
 8048b4a:	68 48 00 00 00       	push   $0x48
 8048b4f:	e9 50 ff ff ff       	jmp    8048aa4 <_init+0x30>

08048b54 <__libc_start_main@plt>:
 8048b54:	ff 25 28 a0 05 08    	jmp    *0x805a028
 8048b5a:	68 50 00 00 00       	push   $0x50
 8048b5f:	e9 40 ff ff ff       	jmp    8048aa4 <_init+0x30>

08048b64 <_IO_getc@plt>:
 8048b64:	ff 25 2c a0 05 08    	jmp    *0x805a02c
 8048b6a:	68 58 00 00 00       	push   $0x58
 8048b6f:	e9 30 ff ff ff       	jmp    8048aa4 <_init+0x30>

08048b74 <bindtextdomain@plt>:
 8048b74:	ff 25 30 a0 05 08    	jmp    *0x805a030
 8048b7a:	68 60 00 00 00       	push   $0x60
 8048b7f:	e9 20 ff ff ff       	jmp    8048aa4 <_init+0x30>

08048b84 <read@plt>:
 8048b84:	ff 25 34 a0 05 08    	jmp    *0x805a034
 8048b8a:	68 68 00 00 00       	push   $0x68
 8048b8f:	e9 10 ff ff ff       	jmp    8048aa4 <_init+0x30>

08048b94 <perror@plt>:
 8048b94:	ff 25 38 a0 05 08    	jmp    *0x805a038
 8048b9a:	68 70 00 00 00       	push   $0x70
 8048b9f:	e9 00 ff ff ff       	jmp    8048aa4 <_init+0x30>

08048ba4 <gettext@plt>:
 8048ba4:	ff 25 3c a0 05 08    	jmp    *0x805a03c
 8048baa:	68 78 00 00 00       	push   $0x78
 8048baf:	e9 f0 fe ff ff       	jmp    8048aa4 <_init+0x30>

08048bb4 <readdir@plt>:
 8048bb4:	ff 25 40 a0 05 08    	jmp    *0x805a040
 8048bba:	68 80 00 00 00       	push   $0x80
 8048bbf:	e9 e0 fe ff ff       	jmp    8048aa4 <_init+0x30>

08048bc4 <free@plt>:
 8048bc4:	ff 25 44 a0 05 08    	jmp    *0x805a044
 8048bca:	68 88 00 00 00       	push   $0x88
 8048bcf:	e9 d0 fe ff ff       	jmp    8048aa4 <_init+0x30>

08048bd4 <fflush@plt>:
 8048bd4:	ff 25 48 a0 05 08    	jmp    *0x805a048
 8048bda:	68 90 00 00 00       	push   $0x90
 8048bdf:	e9 c0 fe ff ff       	jmp    8048aa4 <_init+0x30>

08048be4 <opendir@plt>:
 8048be4:	ff 25 4c a0 05 08    	jmp    *0x805a04c
 8048bea:	68 98 00 00 00       	push   $0x98
 8048bef:	e9 b0 fe ff ff       	jmp    8048aa4 <_init+0x30>

08048bf4 <__ctype_b_loc@plt>:
 8048bf4:	ff 25 50 a0 05 08    	jmp    *0x805a050
 8048bfa:	68 a0 00 00 00       	push   $0xa0
 8048bff:	e9 a0 fe ff ff       	jmp    8048aa4 <_init+0x30>

08048c04 <fclose@plt>:
 8048c04:	ff 25 54 a0 05 08    	jmp    *0x805a054
 8048c0a:	68 a8 00 00 00       	push   $0xa8
 8048c0f:	e9 90 fe ff ff       	jmp    8048aa4 <_init+0x30>

08048c14 <memcpy@plt>:
 8048c14:	ff 25 58 a0 05 08    	jmp    *0x805a058
 8048c1a:	68 b0 00 00 00       	push   $0xb0
 8048c1f:	e9 80 fe ff ff       	jmp    8048aa4 <_init+0x30>

08048c24 <utime@plt>:
 8048c24:	ff 25 5c a0 05 08    	jmp    *0x805a05c
 8048c2a:	68 b8 00 00 00       	push   $0xb8
 8048c2f:	e9 70 fe ff ff       	jmp    8048aa4 <_init+0x30>

08048c34 <strlen@plt>:
 8048c34:	ff 25 60 a0 05 08    	jmp    *0x805a060
 8048c3a:	68 c0 00 00 00       	push   $0xc0
 8048c3f:	e9 60 fe ff ff       	jmp    8048aa4 <_init+0x30>

08048c44 <fopen@plt>:
 8048c44:	ff 25 64 a0 05 08    	jmp    *0x805a064
 8048c4a:	68 c8 00 00 00       	push   $0xc8
 8048c4f:	e9 50 fe ff ff       	jmp    8048aa4 <_init+0x30>

08048c54 <freopen@plt>:
 8048c54:	ff 25 68 a0 05 08    	jmp    *0x805a068
 8048c5a:	68 d0 00 00 00       	push   $0xd0
 8048c5f:	e9 40 fe ff ff       	jmp    8048aa4 <_init+0x30>

08048c64 <setlocale@plt>:
 8048c64:	ff 25 6c a0 05 08    	jmp    *0x805a06c
 8048c6a:	68 d8 00 00 00       	push   $0xd8
 8048c6f:	e9 30 fe ff ff       	jmp    8048aa4 <_init+0x30>

08048c74 <strcpy@plt>:
 8048c74:	ff 25 70 a0 05 08    	jmp    *0x805a070
 8048c7a:	68 e0 00 00 00       	push   $0xe0
 8048c7f:	e9 20 fe ff ff       	jmp    8048aa4 <_init+0x30>

08048c84 <printf@plt>:
 8048c84:	ff 25 74 a0 05 08    	jmp    *0x805a074
 8048c8a:	68 e8 00 00 00       	push   $0xe8
 8048c8f:	e9 10 fe ff ff       	jmp    8048aa4 <_init+0x30>

08048c94 <atoi@plt>:
 8048c94:	ff 25 78 a0 05 08    	jmp    *0x805a078
 8048c9a:	68 f0 00 00 00       	push   $0xf0
 8048c9f:	e9 00 fe ff ff       	jmp    8048aa4 <_init+0x30>

08048ca4 <closedir@plt>:
 8048ca4:	ff 25 7c a0 05 08    	jmp    *0x805a07c
 8048caa:	68 f8 00 00 00       	push   $0xf8
 8048caf:	e9 f0 fd ff ff       	jmp    8048aa4 <_init+0x30>

08048cb4 <close@plt>:
 8048cb4:	ff 25 80 a0 05 08    	jmp    *0x805a080
 8048cba:	68 00 01 00 00       	push   $0x100
 8048cbf:	e9 e0 fd ff ff       	jmp    8048aa4 <_init+0x30>

08048cc4 <fwrite@plt>:
 8048cc4:	ff 25 84 a0 05 08    	jmp    *0x805a084
 8048cca:	68 08 01 00 00       	push   $0x108
 8048ccf:	e9 d0 fd ff ff       	jmp    8048aa4 <_init+0x30>

08048cd4 <fprintf@plt>:
 8048cd4:	ff 25 88 a0 05 08    	jmp    *0x805a088
 8048cda:	68 10 01 00 00       	push   $0x110
 8048cdf:	e9 c0 fd ff ff       	jmp    8048aa4 <_init+0x30>

08048ce4 <time@plt>:
 8048ce4:	ff 25 8c a0 05 08    	jmp    *0x805a08c
 8048cea:	68 18 01 00 00       	push   $0x118
 8048cef:	e9 b0 fd ff ff       	jmp    8048aa4 <_init+0x30>

08048cf4 <__stack_chk_fail@plt>:
 8048cf4:	ff 25 90 a0 05 08    	jmp    *0x805a090
 8048cfa:	68 20 01 00 00       	push   $0x120
 8048cff:	e9 a0 fd ff ff       	jmp    8048aa4 <_init+0x30>

08048d04 <fputc@plt>:
 8048d04:	ff 25 94 a0 05 08    	jmp    *0x805a094
 8048d0a:	68 28 01 00 00       	push   $0x128
 8048d0f:	e9 90 fd ff ff       	jmp    8048aa4 <_init+0x30>

08048d14 <memmove@plt>:
 8048d14:	ff 25 98 a0 05 08    	jmp    *0x805a098
 8048d1a:	68 30 01 00 00       	push   $0x130
 8048d1f:	e9 80 fd ff ff       	jmp    8048aa4 <_init+0x30>

08048d24 <strcat@plt>:
 8048d24:	ff 25 9c a0 05 08    	jmp    *0x805a09c
 8048d2a:	68 38 01 00 00       	push   $0x138
 8048d2f:	e9 70 fd ff ff       	jmp    8048aa4 <_init+0x30>

08048d34 <textdomain@plt>:
 8048d34:	ff 25 a0 a0 05 08    	jmp    *0x805a0a0
 8048d3a:	68 40 01 00 00       	push   $0x140
 8048d3f:	e9 60 fd ff ff       	jmp    8048aa4 <_init+0x30>

08048d44 <__fxstat@plt>:
 8048d44:	ff 25 a4 a0 05 08    	jmp    *0x805a0a4
 8048d4a:	68 48 01 00 00       	push   $0x148
 8048d4f:	e9 50 fd ff ff       	jmp    8048aa4 <_init+0x30>

08048d54 <strncmp@plt>:
 8048d54:	ff 25 a8 a0 05 08    	jmp    *0x805a0a8
 8048d5a:	68 50 01 00 00       	push   $0x150
 8048d5f:	e9 40 fd ff ff       	jmp    8048aa4 <_init+0x30>

08048d64 <_IO_putc@plt>:
 8048d64:	ff 25 ac a0 05 08    	jmp    *0x805a0ac
 8048d6a:	68 58 01 00 00       	push   $0x158
 8048d6f:	e9 30 fd ff ff       	jmp    8048aa4 <_init+0x30>

08048d74 <strdup@plt>:
 8048d74:	ff 25 b0 a0 05 08    	jmp    *0x805a0b0
 8048d7a:	68 60 01 00 00       	push   $0x160
 8048d7f:	e9 20 fd ff ff       	jmp    8048aa4 <_init+0x30>

08048d84 <strcmp@plt>:
 8048d84:	ff 25 b4 a0 05 08    	jmp    *0x805a0b4
 8048d8a:	68 68 01 00 00       	push   $0x168
 8048d8f:	e9 10 fd ff ff       	jmp    8048aa4 <_init+0x30>

08048d94 <exit@plt>:
 8048d94:	ff 25 b8 a0 05 08    	jmp    *0x805a0b8
 8048d9a:	68 70 01 00 00       	push   $0x170
 8048d9f:	e9 00 fd ff ff       	jmp    8048aa4 <_init+0x30>

Disassembly of section .text:

08048db0 <_start>:
_start():
/build/buildd/eglibc-2.10.1/csu/../sysdeps/i386/elf/start.S:65
 8048db0:	31 ed                	xor    %ebp,%ebp
/build/buildd/eglibc-2.10.1/csu/../sysdeps/i386/elf/start.S:70
 8048db2:	5e                   	pop    %esi
/build/buildd/eglibc-2.10.1/csu/../sysdeps/i386/elf/start.S:71
 8048db3:	89 e1                	mov    %esp,%ecx
/build/buildd/eglibc-2.10.1/csu/../sysdeps/i386/elf/start.S:77
 8048db5:	83 e4 f0             	and    $0xfffffff0,%esp
/build/buildd/eglibc-2.10.1/csu/../sysdeps/i386/elf/start.S:78
 8048db8:	50                   	push   %eax
/build/buildd/eglibc-2.10.1/csu/../sysdeps/i386/elf/start.S:83
 8048db9:	54                   	push   %esp
/build/buildd/eglibc-2.10.1/csu/../sysdeps/i386/elf/start.S:85
 8048dba:	52                   	push   %edx
/build/buildd/eglibc-2.10.1/csu/../sysdeps/i386/elf/start.S:109
 8048dbb:	68 70 4d 05 08       	push   $0x8054d70
/build/buildd/eglibc-2.10.1/csu/../sysdeps/i386/elf/start.S:110
 8048dc0:	68 80 4d 05 08       	push   $0x8054d80
/build/buildd/eglibc-2.10.1/csu/../sysdeps/i386/elf/start.S:112
 8048dc5:	51                   	push   %ecx
/build/buildd/eglibc-2.10.1/csu/../sysdeps/i386/elf/start.S:113
 8048dc6:	56                   	push   %esi
/build/buildd/eglibc-2.10.1/csu/../sysdeps/i386/elf/start.S:115
 8048dc7:	68 c1 d8 04 08       	push   $0x804d8c1
/build/buildd/eglibc-2.10.1/csu/../sysdeps/i386/elf/start.S:119
 8048dcc:	e8 83 fd ff ff       	call   8048b54 <__libc_start_main@plt>
/build/buildd/eglibc-2.10.1/csu/../sysdeps/i386/elf/start.S:122
 8048dd1:	f4                   	hlt    
 8048dd2:	90                   	nop
 8048dd3:	90                   	nop
 8048dd4:	90                   	nop
 8048dd5:	90                   	nop
 8048dd6:	90                   	nop
 8048dd7:	90                   	nop
 8048dd8:	90                   	nop
 8048dd9:	90                   	nop
 8048dda:	90                   	nop
 8048ddb:	90                   	nop
 8048ddc:	90                   	nop
 8048ddd:	90                   	nop
 8048dde:	90                   	nop
 8048ddf:	90                   	nop

08048de0 <__do_global_dtors_aux>:
__do_global_dtors_aux():
 8048de0:	55                   	push   %ebp
 8048de1:	89 e5                	mov    %esp,%ebp
 8048de3:	53                   	push   %ebx
 8048de4:	83 ec 04             	sub    $0x4,%esp
 8048de7:	80 3d 64 aa 05 08 00 	cmpb   $0x0,0x805aa64
 8048dee:	75 3f                	jne    8048e2f <__do_global_dtors_aux+0x4f>
 8048df0:	a1 68 aa 05 08       	mov    0x805aa68,%eax
 8048df5:	bb 18 9f 05 08       	mov    $0x8059f18,%ebx
 8048dfa:	81 eb 14 9f 05 08    	sub    $0x8059f14,%ebx
 8048e00:	c1 fb 02             	sar    $0x2,%ebx
 8048e03:	83 eb 01             	sub    $0x1,%ebx
 8048e06:	39 d8                	cmp    %ebx,%eax
 8048e08:	73 1e                	jae    8048e28 <__do_global_dtors_aux+0x48>
 8048e0a:	8d b6 00 00 00 00    	lea    0x0(%esi),%esi
 8048e10:	83 c0 01             	add    $0x1,%eax
 8048e13:	a3 68 aa 05 08       	mov    %eax,0x805aa68
 8048e18:	ff 14 85 14 9f 05 08 	call   *0x8059f14(,%eax,4)
 8048e1f:	a1 68 aa 05 08       	mov    0x805aa68,%eax
 8048e24:	39 d8                	cmp    %ebx,%eax
 8048e26:	72 e8                	jb     8048e10 <__do_global_dtors_aux+0x30>
 8048e28:	c6 05 64 aa 05 08 01 	movb   $0x1,0x805aa64
 8048e2f:	83 c4 04             	add    $0x4,%esp
 8048e32:	5b                   	pop    %ebx
 8048e33:	5d                   	pop    %ebp
 8048e34:	c3                   	ret    
 8048e35:	8d 74 26 00          	lea    0x0(%esi,%eiz,1),%esi
 8048e39:	8d bc 27 00 00 00 00 	lea    0x0(%edi,%eiz,1),%edi

08048e40 <frame_dummy>:
frame_dummy():
 8048e40:	55                   	push   %ebp
 8048e41:	89 e5                	mov    %esp,%ebp
 8048e43:	83 ec 18             	sub    $0x18,%esp
 8048e46:	a1 1c 9f 05 08       	mov    0x8059f1c,%eax
 8048e4b:	85 c0                	test   %eax,%eax
 8048e4d:	74 12                	je     8048e61 <frame_dummy+0x21>
 8048e4f:	b8 00 00 00 00       	mov    $0x0,%eax
 8048e54:	85 c0                	test   %eax,%eax
 8048e56:	74 09                	je     8048e61 <frame_dummy+0x21>
 8048e58:	c7 04 24 1c 9f 05 08 	movl   $0x8059f1c,(%esp)
 8048e5f:	ff d0                	call   *%eax
 8048e61:	c9                   	leave  
 8048e62:	c3                   	ret    
 8048e63:	90                   	nop

08048e64 <check_code_size>:
check_code_size():
test/unit/artifacts/cpp/modifiedFunctionsDetector/indent-2.2.9/indent.c:118
 8048e64:	55                   	push   %ebp
 8048e65:	89 e5                	mov    %esp,%ebp
 8048e67:	53                   	push   %ebx
 8048e68:	83 ec 24             	sub    $0x24,%esp
test/unit/artifacts/cpp/modifiedFunctionsDetector/indent-2.2.9/indent.c:119
 8048e6b:	8b 15 84 aa 05 08    	mov    0x805aa84,%edx
 8048e71:	a1 88 aa 05 08       	mov    0x805aa88,%eax
 8048e76:	39 c2                	cmp    %eax,%edx
 8048e78:	72 75                	jb     8048eef <check_code_size+0x8b>
test/unit/artifacts/cpp/modifiedFunctionsDetector/indent-2.2.9/indent.c:121
 8048e7a:	a1 88 aa 05 08       	mov    0x805aa88,%eax
 8048e7f:	89 c2                	mov    %eax,%edx
 8048e81:	a1 80 aa 05 08       	mov    0x805aa80,%eax
 8048e86:	89 d1                	mov    %edx,%ecx
 8048e88:	29 c1                	sub    %eax,%ecx
 8048e8a:	89 c8                	mov    %ecx,%eax
 8048e8c:	05 90 01 00 00       	add    $0x190,%eax
 8048e91:	89 45 f4             	mov    %eax,-0xc(%ebp)
test/unit/artifacts/cpp/modifiedFunctionsDetector/indent-2.2.9/indent.c:122
 8048e94:	8b 55 f4             	mov    -0xc(%ebp),%edx
 8048e97:	a1 7c aa 05 08       	mov    0x805aa7c,%eax
 8048e9c:	89 54 24 04          	mov    %edx,0x4(%esp)
 8048ea0:	89 04 24             	mov    %eax,(%esp)
 8048ea3:	e8 32 96 00 00       	call   80524da <xrealloc>
 8048ea8:	a3 7c aa 05 08       	mov    %eax,0x805aa7c
test/unit/artifacts/cpp/modifiedFunctionsDetector/indent-2.2.9/indent.c:123
 8048ead:	a1 7c aa 05 08       	mov    0x805aa7c,%eax
 8048eb2:	8b 15 84 aa 05 08    	mov    0x805aa84,%edx
 8048eb8:	89 d1                	mov    %edx,%ecx
 8048eba:	8b 15 80 aa 05 08    	mov    0x805aa80,%edx
 8048ec0:	89 cb                	mov    %ecx,%ebx
 8048ec2:	29 d3                	sub    %edx,%ebx
 8048ec4:	89 da                	mov    %ebx,%edx
 8048ec6:	83 c2 01             	add    $0x1,%edx
 8048ec9:	01 d0                	add    %edx,%eax
 8048ecb:	a3 84 aa 05 08       	mov    %eax,0x805aa84
test/unit/artifacts/cpp/modifiedFunctionsDetector/indent-2.2.9/indent.c:124
 8048ed0:	a1 7c aa 05 08       	mov    0x805aa7c,%eax
 8048ed5:	8b 55 f4             	mov    -0xc(%ebp),%edx
 8048ed8:	83 ea 05             	sub    $0x5,%edx
 8048edb:	01 d0                	add    %edx,%eax
 8048edd:	a3 88 aa 05 08       	mov    %eax,0x805aa88
test/unit/artifacts/cpp/modifiedFunctionsDetector/indent-2.2.9/indent.c:125
 8048ee2:	a1 7c aa 05 08       	mov    0x805aa7c,%eax
 8048ee7:	83 c0 01             	add    $0x1,%eax
 8048eea:	a3 80 aa 05 08       	mov    %eax,0x805aa80
test/unit/artifacts/cpp/modifiedFunctionsDetector/indent-2.2.9/indent.c:127
 8048eef:	83 c4 24             	add    $0x24,%esp
 8048ef2:	5b                   	pop    %ebx
 8048ef3:	5d                   	pop    %ebp
 8048ef4:	c3                   	ret    

08048ef5 <check_lab_size>:
check_lab_size():
test/unit/artifacts/cpp/modifiedFunctionsDetector/indent-2.2.9/indent.c:131
 8048ef5:	55                   	push   %ebp
 8048ef6:	89 e5                	mov    %esp,%ebp
 8048ef8:	53                   	push   %ebx
 8048ef9:	83 ec 24             	sub    $0x24,%esp
test/unit/artifacts/cpp/modifiedFunctionsDetector/indent-2.2.9/indent.c:132
 8048efc:	8b 15 74 aa 05 08    	mov    0x805aa74,%edx
 8048f02:	a1 78 aa 05 08       	mov    0x805aa78,%eax
 8048f07:	39 c2                	cmp    %eax,%edx
 8048f09:	72 75                	jb     8048f80 <check_lab_size+0x8b>
test/unit/artifacts/cpp/modifiedFunctionsDetector/indent-2.2.9/indent.c:134
 8048f0b:	a1 78 aa 05 08       	mov    0x805aa78,%eax
 8048f10:	89 c2                	mov    %eax,%edx
 8048f12:	a1 70 aa 05 08       	mov    0x805aa70,%eax
 8048f17:	89 d1                	mov    %edx,%ecx
 8048f19:	29 c1                	sub    %eax,%ecx
 8048f1b:	89 c8                	mov    %ecx,%eax
 8048f1d:	05 90 01 00 00       	add    $0x190,%eax
 8048f22:	89 45 f4             	mov    %eax,-0xc(%ebp)
test/unit/artifacts/cpp/modifiedFunctionsDetector/indent-2.2.9/indent.c:135
 8048f25:	8b 55 f4             	mov    -0xc(%ebp),%edx
 8048f28:	a1 6c aa 05 08       	mov    0x805aa6c,%eax
 8048f2d:	89 54 24 04          	mov    %edx,0x4(%esp)
 8048f31:	89 04 24             	mov    %eax,(%esp)
 8048f34:	e8 a1 95 00 00       	call   80524da <xrealloc>
 8048f39:	a3 6c aa 05 08       	mov    %eax,0x805aa6c
test/unit/artifacts/cpp/modifiedFunctionsDetector/indent-2.2.9/indent.c:136
 8048f3e:	a1 6c aa 05 08       	mov    0x805aa6c,%eax
 8048f43:	8b 15 74 aa 05 08    	mov    0x805aa74,%edx
 8048f49:	89 d1                	mov    %edx,%ecx
 8048f4b:	8b 15 70 aa 05 08    	mov    0x805aa70,%edx
 8048f51:	89 cb                	mov    %ecx,%ebx
 8048f53:	29 d3                	sub    %edx,%ebx
 8048f55:	89 da                	mov    %ebx,%edx
 8048f57:	83 c2 01             	add    $0x1,%edx
 8048f5a:	01 d0                	add    %edx,%eax
 8048f5c:	a3 74 aa 05 08       	mov    %eax,0x805aa74
test/unit/artifacts/cpp/modifiedFunctionsDetector/indent-2.2.9/indent.c:137
 8048f61:	a1 6c aa 05 08       	mov    0x805aa6c,%eax
 8048f66:	8b 55 f4             	mov    -0xc(%ebp),%edx
 8048f69:	83 ea 05             	sub    $0x5,%edx
 8048f6c:	01 d0                	add    %edx,%eax
 8048f6e:	a3 78 aa 05 08       	mov    %eax,0x805aa78
test/unit/artifacts/cpp/modifiedFunctionsDetector/indent-2.2.9/indent.c:138
 8048f73:	a1 6c aa 05 08       	mov    0x805aa6c,%eax
 8048f78:	83 c0 01             	add    $0x1,%eax
 8048f7b:	a3 70 aa 05 08       	mov    %eax,0x805aa70
test/unit/artifacts/cpp/modifiedFunctionsDetector/indent-2.2.9/indent.c:140
 8048f80:	83 c4 24             	add    $0x24,%esp
 8048f83:	5b                   	pop    %ebx
 8048f84:	5d                   	pop    %ebp
 8048f85:	c3                   	ret    

08048f86 <need_chars>:
need_chars():
test/unit/artifacts/cpp/modifiedFunctionsDetector/indent-2.2.9/indent.c:147
 8048f86:	55                   	push   %ebp
 8048f87:	89 e5                	mov    %esp,%ebp
 8048f89:	83 ec 28             	sub    $0x28,%esp
test/unit/artifacts/cpp/modifiedFunctionsDetector/indent-2.2.9/indent.c:148
 8048f8c:	8b 45 08             	mov    0x8(%ebp),%eax
 8048f8f:	8b 40 04             	mov    0x4(%eax),%eax
 8048f92:	89 c2                	mov    %eax,%edx
 8048f94:	8b 45 08             	mov    0x8(%ebp),%eax
 8048f97:	8b 00                	mov    (%eax),%eax
 8048f99:	89 d1                	mov    %edx,%ecx
 8048f9b:	29 c1                	sub    %eax,%ecx
 8048f9d:	89 c8                	mov    %ecx,%eax
 8048f9f:	89 45 f4             	mov    %eax,-0xc(%ebp)
test/unit/artifacts/cpp/modifiedFunctionsDetector/indent-2.2.9/indent.c:150
 8048fa2:	8b 45 0c             	mov    0xc(%ebp),%eax
 8048fa5:	8b 55 f4             	mov    -0xc(%ebp),%edx
 8048fa8:	01 c2                	add    %eax,%edx
 8048faa:	8b 45 08             	mov    0x8(%ebp),%eax
 8048fad:	8b 40 08             	mov    0x8(%eax),%eax
 8048fb0:	39 c2                	cmp    %eax,%edx
 8048fb2:	7c 6f                	jl     8049023 <need_chars+0x9d>
test/unit/artifacts/cpp/modifiedFunctionsDetector/indent-2.2.9/indent.c:152
 8048fb4:	8b 45 0c             	mov    0xc(%ebp),%eax
 8048fb7:	8b 55 f4             	mov    -0xc(%ebp),%edx
 8048fba:	8d 04 02             	lea    (%edx,%eax,1),%eax
 8048fbd:	05 ff 03 00 00       	add    $0x3ff,%eax
 8048fc2:	89 c2                	mov    %eax,%edx
 8048fc4:	81 e2 00 fc ff ff    	and    $0xfffffc00,%edx
 8048fca:	8b 45 08             	mov    0x8(%ebp),%eax
 8048fcd:	89 50 08             	mov    %edx,0x8(%eax)
test/unit/artifacts/cpp/modifiedFunctionsDetector/indent-2.2.9/indent.c:153
 8048fd0:	8b 45 08             	mov    0x8(%ebp),%eax
 8048fd3:	8b 40 08             	mov    0x8(%eax),%eax
 8048fd6:	89 c2                	mov    %eax,%edx
 8048fd8:	8b 45 08             	mov    0x8(%ebp),%eax
 8048fdb:	8b 00                	mov    (%eax),%eax
 8048fdd:	89 54 24 04          	mov    %edx,0x4(%esp)
 8048fe1:	89 04 24             	mov    %eax,(%esp)
 8048fe4:	e8 f1 94 00 00       	call   80524da <xrealloc>
 8048fe9:	8b 55 08             	mov    0x8(%ebp),%edx
 8048fec:	89 02                	mov    %eax,(%edx)
test/unit/artifacts/cpp/modifiedFunctionsDetector/indent-2.2.9/indent.c:154
 8048fee:	8b 45 08             	mov    0x8(%ebp),%eax
 8048ff1:	8b 00                	mov    (%eax),%eax
 8048ff3:	85 c0                	test   %eax,%eax
 8048ff5:	75 1c                	jne    8049013 <need_chars+0x8d>
test/unit/artifacts/cpp/modifiedFunctionsDetector/indent-2.2.9/indent.c:156
 8048ff7:	c7 04 24 d2 50 05 08 	movl   $0x80550d2,(%esp)
 8048ffe:	e8 a1 fb ff ff       	call   8048ba4 <gettext@plt>
 8049003:	c7 44 24 04 00 00 00 	movl   $0x0,0x4(%esp)
 804900a:	00 
 804900b:	89 04 24             	mov    %eax,(%esp)
 804900e:	e8 9e 95 00 00       	call   80525b1 <fatal>
test/unit/artifacts/cpp/modifiedFunctionsDetector/indent-2.2.9/indent.c:159
 8049013:	8b 45 08             	mov    0x8(%ebp),%eax
 8049016:	8b 10                	mov    (%eax),%edx
 8049018:	8b 45 f4             	mov    -0xc(%ebp),%eax
 804901b:	01 c2                	add    %eax,%edx
 804901d:	8b 45 08             	mov    0x8(%ebp),%eax
 8049020:	89 50 04             	mov    %edx,0x4(%eax)
test/unit/artifacts/cpp/modifiedFunctionsDetector/indent-2.2.9/indent.c:161
 8049023:	c9                   	leave  
 8049024:	c3                   	ret    

08049025 <output_line_length>:
output_line_length():
test/unit/artifacts/cpp/modifiedFunctionsDetector/indent-2.2.9/indent.c:167
 8049025:	55                   	push   %ebp
 8049026:	89 e5                	mov    %esp,%ebp
 8049028:	53                   	push   %ebx
 8049029:	83 ec 34             	sub    $0x34,%esp
test/unit/artifacts/cpp/modifiedFunctionsDetector/indent-2.2.9/indent.c:168
 804902c:	c7 45 f4 00 00 00 00 	movl   $0x0,-0xc(%ebp)
test/unit/artifacts/cpp/modifiedFunctionsDetector/indent-2.2.9/indent.c:169
 8049033:	c7 45 f0 00 00 00 00 	movl   $0x0,-0x10(%ebp)
test/unit/artifacts/cpp/modifiedFunctionsDetector/indent-2.2.9/indent.c:172
 804903a:	8b 15 70 aa 05 08    	mov    0x805aa70,%edx
 8049040:	a1 74 aa 05 08       	mov    0x805aa74,%eax
 8049045:	39 c2                	cmp    %eax,%edx
 8049047:	75 09                	jne    8049052 <output_line_length+0x2d>
test/unit/artifacts/cpp/modifiedFunctionsDetector/indent-2.2.9/indent.c:174
 8049049:	c7 45 ec 00 00 00 00 	movl   $0x0,-0x14(%ebp)
 8049050:	eb 25                	jmp    8049077 <output_line_length+0x52>
test/unit/artifacts/cpp/modifiedFunctionsDetector/indent-2.2.9/indent.c:178
 8049052:	8b 1d 70 aa 05 08    	mov    0x805aa70,%ebx
 8049058:	e8 9c 98 00 00       	call   80528f9 <compute_label_target>
 804905d:	c7 44 24 08 0a 00 00 	movl   $0xa,0x8(%esp)
 8049064:	00 
 8049065:	89 5c 24 04          	mov    %ebx,0x4(%esp)
 8049069:	89 04 24             	mov    %eax,(%esp)
 804906c:	e8 76 96 00 00       	call   80526e7 <count_columns>
 8049071:	83 e8 01             	sub    $0x1,%eax
 8049074:	89 45 ec             	mov    %eax,-0x14(%ebp)
test/unit/artifacts/cpp/modifiedFunctionsDetector/indent-2.2.9/indent.c:181
 8049077:	8b 15 80 aa 05 08    	mov    0x805aa80,%edx
 804907d:	a1 84 aa 05 08       	mov    0x805aa84,%eax
 8049082:	39 c2                	cmp    %eax,%edx
 8049084:	74 32                	je     80490b8 <output_line_length+0x93>
test/unit/artifacts/cpp/modifiedFunctionsDetector/indent-2.2.9/indent.c:183
 8049086:	a1 e8 aa 05 08       	mov    0x805aae8,%eax
 804908b:	89 04 24             	mov    %eax,(%esp)
 804908e:	e8 9f 97 00 00       	call   8052832 <compute_code_target>
 8049093:	89 45 e8             	mov    %eax,-0x18(%ebp)
test/unit/artifacts/cpp/modifiedFunctionsDetector/indent-2.2.9/indent.c:185
 8049096:	a1 80 aa 05 08       	mov    0x805aa80,%eax
 804909b:	c7 44 24 08 0a 00 00 	movl   $0xa,0x8(%esp)
 80490a2:	00 
 80490a3:	89 44 24 04          	mov    %eax,0x4(%esp)
 80490a7:	8b 45 e8             	mov    -0x18(%ebp),%eax
 80490aa:	89 04 24             	mov    %eax,(%esp)
 80490ad:	e8 35 96 00 00       	call   80526e7 <count_columns>
 80490b2:	2b 45 e8             	sub    -0x18(%ebp),%eax
 80490b5:	89 45 f4             	mov    %eax,-0xc(%ebp)
test/unit/artifacts/cpp/modifiedFunctionsDetector/indent-2.2.9/indent.c:188
 80490b8:	8b 15 90 aa 05 08    	mov    0x805aa90,%edx
 80490be:	a1 94 aa 05 08       	mov    0x805aa94,%eax
 80490c3:	39 c2                	cmp    %eax,%edx
 80490c5:	74 2d                	je     80490f4 <output_line_length+0xcf>
test/unit/artifacts/cpp/modifiedFunctionsDetector/indent-2.2.9/indent.c:190
 80490c7:	a1 fc ac 05 08       	mov    0x805acfc,%eax
 80490cc:	8b 40 54             	mov    0x54(%eax),%eax
 80490cf:	89 45 e4             	mov    %eax,-0x1c(%ebp)
test/unit/artifacts/cpp/modifiedFunctionsDetector/indent-2.2.9/indent.c:192
 80490d2:	a1 90 aa 05 08       	mov    0x805aa90,%eax
 80490d7:	c7 44 24 08 0a 00 00 	movl   $0xa,0x8(%esp)
 80490de:	00 
 80490df:	89 44 24 04          	mov    %eax,0x4(%esp)
 80490e3:	8b 45 e4             	mov    -0x1c(%ebp),%eax
 80490e6:	89 04 24             	mov    %eax,(%esp)
 80490e9:	e8 f9 95 00 00       	call   80526e7 <count_columns>
 80490ee:	2b 45 e4             	sub    -0x1c(%ebp),%eax
 80490f1:	89 45 f0             	mov    %eax,-0x10(%ebp)
test/unit/artifacts/cpp/modifiedFunctionsDetector/indent-2.2.9/indent.c:195
 80490f4:	83 7d f4 00          	cmpl   $0x0,-0xc(%ebp)
 80490f8:	74 25                	je     804911f <output_line_length+0xfa>
test/unit/artifacts/cpp/modifiedFunctionsDetector/indent-2.2.9/indent.c:197
 80490fa:	a1 e8 aa 05 08       	mov    0x805aae8,%eax
 80490ff:	89 04 24             	mov    %eax,(%esp)
 8049102:	e8 2b 97 00 00       	call   8052832 <compute_code_target>
 8049107:	83 e8 01             	sub    $0x1,%eax
 804910a:	03 45 f4             	add    -0xc(%ebp),%eax
 804910d:	01 45 ec             	add    %eax,-0x14(%ebp)
test/unit/artifacts/cpp/modifiedFunctionsDetector/indent-2.2.9/indent.c:199
 8049110:	a1 c8 aa 05 08       	mov    0x805aac8,%eax
 8049115:	85 c0                	test   %eax,%eax
 8049117:	74 06                	je     804911f <output_line_length+0xfa>
test/unit/artifacts/cpp/modifiedFunctionsDetector/indent-2.2.9/indent.c:201
 8049119:	8b 45 f0             	mov    -0x10(%ebp),%eax
 804911c:	01 45 ec             	add    %eax,-0x14(%ebp)
test/unit/artifacts/cpp/modifiedFunctionsDetector/indent-2.2.9/indent.c:205
 804911f:	8b 45 ec             	mov    -0x14(%ebp),%eax
test/unit/artifacts/cpp/modifiedFunctionsDetector/indent-2.2.9/indent.c:206
 8049122:	83 c4 34             	add    $0x34,%esp
 8049125:	5b                   	pop    %ebx
 8049126:	5d                   	pop    %ebp
 8049127:	c3                   	ret    

08049128 <copy_id>:
copy_id():
test/unit/artifacts/cpp/modifiedFunctionsDetector/indent-2.2.9/indent.c:214
 8049128:	55                   	push   %ebp
 8049129:	89 e5                	mov    %esp,%ebp
 804912b:	83 ec 28             	sub    $0x28,%esp
test/unit/artifacts/cpp/modifiedFunctionsDetector/indent-2.2.9/indent.c:217
 804912e:	a1 fc ac 05 08       	mov    0x805acfc,%eax
 8049133:	8b 80 9c 00 00 00    	mov    0x9c(%eax),%eax
 8049139:	85 c0                	test   %eax,%eax
 804913b:	74 27                	je     8049164 <copy_id+0x3c>
test/unit/artifacts/cpp/modifiedFunctionsDetector/indent-2.2.9/indent.c:219
 804913d:	a1 e8 aa 05 08       	mov    0x805aae8,%eax
 8049142:	89 44 24 04          	mov    %eax,0x4(%esp)
 8049146:	c7 04 24 14 00 00 00 	movl   $0x14,(%esp)
 804914d:	e8 38 a0 00 00       	call   805318a <set_buf_break>
test/unit/artifacts/cpp/modifiedFunctionsDetector/indent-2.2.9/indent.c:220
 8049152:	a1 84 aa 05 08       	mov    0x805aa84,%eax
 8049157:	c6 00 20             	movb   $0x20,(%eax)
 804915a:	83 c0 01             	add    $0x1,%eax
 804915d:	a3 84 aa 05 08       	mov    %eax,0x805aa84
 8049162:	eb 1a                	jmp    804917e <copy_id+0x56>
test/unit/artifacts/cpp/modifiedFunctionsDetector/indent-2.2.9/indent.c:222
 8049164:	83 7d 14 00          	cmpl   $0x0,0x14(%ebp)
 8049168:	74 14                	je     804917e <copy_id+0x56>
test/unit/artifacts/cpp/modifiedFunctionsDetector/indent-2.2.9/indent.c:224
 804916a:	a1 e8 aa 05 08       	mov    0x805aae8,%eax
 804916f:	89 44 24 04          	mov    %eax,0x4(%esp)
 8049173:	8b 45 14             	mov    0x14(%ebp),%eax
 8049176:	89 04 24             	mov    %eax,(%esp)
 8049179:	e8 0c a0 00 00       	call   805318a <set_buf_break>
test/unit/artifacts/cpp/modifiedFunctionsDetector/indent-2.2.9/indent.c:227
 804917e:	8b 15 80 aa 05 08    	mov    0x805aa80,%edx
 8049184:	a1 84 aa 05 08       	mov    0x805aa84,%eax
 8049189:	39 c2                	cmp    %eax,%edx
 804918b:	75 0a                	jne    8049197 <copy_id+0x6f>
test/unit/artifacts/cpp/modifiedFunctionsDetector/indent-2.2.9/indent.c:229
 804918d:	a1 74 ad 05 08       	mov    0x805ad74,%eax
 8049192:	a3 9c aa 05 08       	mov    %eax,0x805aa9c
test/unit/artifacts/cpp/modifiedFunctionsDetector/indent-2.2.9/indent.c:232
 8049197:	a1 74 ad 05 08       	mov    0x805ad74,%eax
 804919c:	89 45 f4             	mov    %eax,-0xc(%ebp)
 804919f:	eb 1e                	jmp    80491bf <copy_id+0x97>
test/unit/artifacts/cpp/modifiedFunctionsDetector/indent-2.2.9/indent.c:234
 80491a1:	e8 be fc ff ff       	call   8048e64 <check_code_size>
test/unit/artifacts/cpp/modifiedFunctionsDetector/indent-2.2.9/indent.c:235
 80491a6:	a1 84 aa 05 08       	mov    0x805aa84,%eax
 80491ab:	8b 55 f4             	mov    -0xc(%ebp),%edx
 80491ae:	0f b6 12             	movzbl (%edx),%edx
 80491b1:	88 10                	mov    %dl,(%eax)
 80491b3:	83 c0 01             	add    $0x1,%eax
 80491b6:	a3 84 aa 05 08       	mov    %eax,0x805aa84
test/unit/artifacts/cpp/modifiedFunctionsDetector/indent-2.2.9/indent.c:232
 80491bb:	83 45 f4 01          	addl   $0x1,-0xc(%ebp)
 80491bf:	a1 78 ad 05 08       	mov    0x805ad78,%eax
 80491c4:	39 45 f4             	cmp    %eax,-0xc(%ebp)
 80491c7:	72 d8                	jb     80491a1 <copy_id+0x79>
test/unit/artifacts/cpp/modifiedFunctionsDetector/indent-2.2.9/indent.c:238
 80491c9:	a1 84 aa 05 08       	mov    0x805aa84,%eax
 80491ce:	c6 00 00             	movb   $0x0,(%eax)
test/unit/artifacts/cpp/modifiedFunctionsDetector/indent-2.2.9/indent.c:240
 80491d1:	a1 fc ac 05 08       	mov    0x805acfc,%eax
 80491d6:	c7 80 9c 00 00 00 01 	movl   $0x1,0x9c(%eax)
 80491dd:	00 00 00 
test/unit/artifacts/cpp/modifiedFunctionsDetector/indent-2.2.9/indent.c:244
 80491e0:	83 7d 08 19          	cmpl   $0x19,0x8(%ebp)
 80491e4:	75 4e                	jne    8049234 <copy_id+0x10c>
test/unit/artifacts/cpp/modifiedFunctionsDetector/indent-2.2.9/indent.c:245
 80491e6:	a1 24 ab 05 08       	mov    0x805ab24,%eax
test/unit/artifacts/cpp/modifiedFunctionsDetector/indent-2.2.9/indent.c:244
 80491eb:	85 c0                	test   %eax,%eax
 80491ed:	75 0c                	jne    80491fb <copy_id+0xd3>
test/unit/artifacts/cpp/modifiedFunctionsDetector/indent-2.2.9/indent.c:245
 80491ef:	a1 74 ad 05 08       	mov    0x805ad74,%eax
 80491f4:	0f b6 00             	movzbl (%eax),%eax
test/unit/artifacts/cpp/modifiedFunctionsDetector/indent-2.2.9/indent.c:244
 80491f7:	3c 69                	cmp    $0x69,%al
 80491f9:	74 2a                	je     8049225 <copy_id+0xfd>
test/unit/artifacts/cpp/modifiedFunctionsDetector/indent-2.2.9/indent.c:246
 80491fb:	a1 28 ab 05 08       	mov    0x805ab28,%eax
test/unit/artifacts/cpp/modifiedFunctionsDetector/indent-2.2.9/indent.c:244
 8049200:	85 c0                	test   %eax,%eax
 8049202:	75 0c                	jne    8049210 <copy_id+0xe8>
test/unit/artifacts/cpp/modifiedFunctionsDetector/indent-2.2.9/indent.c:246
 8049204:	a1 74 ad 05 08       	mov    0x805ad74,%eax
 8049209:	0f b6 00             	movzbl (%eax),%eax
test/unit/artifacts/cpp/modifiedFunctionsDetector/indent-2.2.9/indent.c:244
 804920c:	3c 66                	cmp    $0x66,%al
 804920e:	74 15                	je     8049225 <copy_id+0xfd>
test/unit/artifacts/cpp/modifiedFunctionsDetector/indent-2.2.9/indent.c:247
 8049210:	a1 20 ab 05 08       	mov    0x805ab20,%eax
test/unit/artifacts/cpp/modifiedFunctionsDetector/indent-2.2.9/indent.c:244
 8049215:	85 c0                	test   %eax,%eax
 8049217:	75 1b                	jne    8049234 <copy_id+0x10c>
test/unit/artifacts/cpp/modifiedFunctionsDetector/indent-2.2.9/indent.c:247
 8049219:	a1 74 ad 05 08       	mov    0x805ad74,%eax
 804921e:	0f b6 00             	movzbl (%eax),%eax
test/unit/artifacts/cpp/modifiedFunctionsDetector/indent-2.2.9/indent.c:244
 8049221:	3c 77                	cmp    $0x77,%al
 8049223:	75 0f                	jne    8049234 <copy_id+0x10c>
test/unit/artifacts/cpp/modifiedFunctionsDetector/indent-2.2.9/indent.c:249
 8049225:	a1 fc ac 05 08       	mov    0x805acfc,%eax
 804922a:	c7 80 9c 00 00 00 00 	movl   $0x0,0x9c(%eax)
 8049231:	00 00 00 
test/unit/artifacts/cpp/modifiedFunctionsDetector/indent-2.2.9/indent.c:255
 8049234:	a1 78 ad 05 08       	mov    0x805ad78,%eax
 8049239:	89 c2                	mov    %eax,%edx
 804923b:	a1 74 ad 05 08       	mov    0x805ad74,%eax
 8049240:	89 d1                	mov    %edx,%ecx
 8049242:	29 c1                	sub    %eax,%ecx
 8049244:	89 c8                	mov    %ecx,%eax
 8049246:	83 f8 01             	cmp    $0x1,%eax
 8049249:	75 0c                	jne    8049257 <copy_id+0x12f>
 804924b:	a1 74 ad 05 08       	mov    0x805ad74,%eax
 8049250:	0f b6 00             	movzbl (%eax),%eax
 8049253:	3c 5f                	cmp    $0x5f,%al
 8049255:	74 32                	je     8049289 <copy_id+0x161>
test/unit/artifacts/cpp/modifiedFunctionsDetector/indent-2.2.9/indent.c:256
 8049257:	a1 78 ad 05 08       	mov    0x805ad78,%eax
 804925c:	89 c2                	mov    %eax,%edx
 804925e:	a1 74 ad 05 08       	mov    0x805ad74,%eax
 8049263:	89 d1                	mov    %edx,%ecx
 8049265:	29 c1                	sub    %eax,%ecx
 8049267:	89 c8                	mov    %ecx,%eax
test/unit/artifacts/cpp/modifiedFunctionsDetector/indent-2.2.9/indent.c:255
 8049269:	83 f8 02             	cmp    $0x2,%eax
 804926c:	75 2a                	jne    8049298 <copy_id+0x170>
test/unit/artifacts/cpp/modifiedFunctionsDetector/indent-2.2.9/indent.c:256
 804926e:	a1 74 ad 05 08       	mov    0x805ad74,%eax
 8049273:	0f b6 00             	movzbl (%eax),%eax
test/unit/artifacts/cpp/modifiedFunctionsDetector/indent-2.2.9/indent.c:255
 8049276:	3c 4e                	cmp    $0x4e,%al
 8049278:	75 1e                	jne    8049298 <copy_id+0x170>
test/unit/artifacts/cpp/modifiedFunctionsDetector/indent-2.2.9/indent.c:257
 804927a:	a1 74 ad 05 08       	mov    0x805ad74,%eax
 804927f:	83 c0 01             	add    $0x1,%eax
 8049282:	0f b6 00             	movzbl (%eax),%eax
test/unit/artifacts/cpp/modifiedFunctionsDetector/indent-2.2.9/indent.c:255
 8049285:	3c 5f                	cmp    $0x5f,%al
 8049287:	75 0f                	jne    8049298 <copy_id+0x170>
test/unit/artifacts/cpp/modifiedFunctionsDetector/indent-2.2.9/indent.c:259
 8049289:	a1 fc ac 05 08       	mov    0x805acfc,%eax
 804928e:	c7 80 9c 00 00 00 00 	movl   $0x0,0x9c(%eax)
 8049295:	00 00 00 
test/unit/artifacts/cpp/modifiedFunctionsDetector/indent-2.2.9/indent.c:265
 8049298:	a1 78 ad 05 08       	mov    0x805ad78,%eax
 804929d:	89 c2                	mov    %eax,%edx
 804929f:	a1 74 ad 05 08       	mov    0x805ad74,%eax
 80492a4:	89 d1                	mov    %edx,%ecx
 80492a6:	29 c1                	sub    %eax,%ecx
 80492a8:	89 c8                	mov    %ecx,%eax
 80492aa:	83 f8 06             	cmp    $0x6,%eax
 80492ad:	75 69                	jne    8049318 <copy_id+0x1f0>
 80492af:	a1 74 ad 05 08       	mov    0x805ad74,%eax
 80492b4:	c7 44 24 08 06 00 00 	movl   $0x6,0x8(%esp)
 80492bb:	00 
 80492bc:	c7 44 24 04 e4 50 05 	movl   $0x80550e4,0x4(%esp)
 80492c3:	08 
 80492c4:	89 04 24             	mov    %eax,(%esp)
 80492c7:	e8 88 fa ff ff       	call   8048d54 <strncmp@plt>
 80492cc:	85 c0                	test   %eax,%eax
 80492ce:	75 48                	jne    8049318 <copy_id+0x1f0>
test/unit/artifacts/cpp/modifiedFunctionsDetector/indent-2.2.9/indent.c:267
 80492d0:	a1 fc ac 05 08       	mov    0x805acfc,%eax
 80492d5:	c7 40 4c 00 00 00 00 	movl   $0x0,0x4c(%eax)
test/unit/artifacts/cpp/modifiedFunctionsDetector/indent-2.2.9/indent.c:268
 80492dc:	a1 fc ac 05 08       	mov    0x805acfc,%eax
 80492e1:	8b 90 bc 00 00 00    	mov    0xbc(%eax),%edx
 80492e7:	83 ea 01             	sub    $0x1,%edx
 80492ea:	89 90 bc 00 00 00    	mov    %edx,0xbc(%eax)
test/unit/artifacts/cpp/modifiedFunctionsDetector/indent-2.2.9/indent.c:269
 80492f0:	a1 fc ac 05 08       	mov    0x805acfc,%eax
 80492f5:	c6 40 64 00          	movb   $0x0,0x64(%eax)
test/unit/artifacts/cpp/modifiedFunctionsDetector/indent-2.2.9/indent.c:273
 80492f9:	c7 04 24 0c 00 00 00 	movl   $0xc,(%esp)
 8049300:	e8 f6 85 00 00       	call   80518fb <parse>
 8049305:	85 c0                	test   %eax,%eax
 8049307:	74 09                	je     8049312 <copy_id+0x1ea>
test/unit/artifacts/cpp/modifiedFunctionsDetector/indent-2.2.9/indent.c:275
 8049309:	8b 45 10             	mov    0x10(%ebp),%eax
 804930c:	c7 00 02 00 00 00    	movl   $0x2,(%eax)
test/unit/artifacts/cpp/modifiedFunctionsDetector/indent-2.2.9/indent.c:279
 8049312:	8b 45 0c             	mov    0xc(%ebp),%eax
 8049315:	c6 00 01             	movb   $0x1,(%eax)
test/unit/artifacts/cpp/modifiedFunctionsDetector/indent-2.2.9/indent.c:281
 8049318:	c9                   	leave  
 8049319:	c3                   	ret    

0804931a <handle_token_form_feed>:
handle_token_form_feed():
test/unit/artifacts/cpp/modifiedFunctionsDetector/indent-2.2.9/indent.c:285
 804931a:	55                   	push   %ebp
 804931b:	89 e5                	mov    %esp,%ebp
 804931d:	83 ec 18             	sub    $0x18,%esp
test/unit/artifacts/cpp/modifiedFunctionsDetector/indent-2.2.9/indent.c:286
 8049320:	a1 fc ac 05 08       	mov    0x805acfc,%eax
 8049325:	c7 80 98 00 00 00 01 	movl   $0x1,0x98(%eax)
 804932c:	00 00 00 
test/unit/artifacts/cpp/modifiedFunctionsDetector/indent-2.2.9/indent.c:288
 804932f:	c7 44 24 04 e8 aa 05 	movl   $0x805aae8,0x4(%esp)
 8049336:	08 
 8049337:	c7 04 24 01 00 00 00 	movl   $0x1,(%esp)
 804933e:	e8 f0 a6 00 00       	call   8053a33 <dump_line>
test/unit/artifacts/cpp/modifiedFunctionsDetector/indent-2.2.9/indent.c:289
 8049343:	a1 fc ac 05 08       	mov    0x805acfc,%eax
 8049348:	c7 80 9c 00 00 00 00 	movl   $0x0,0x9c(%eax)
 804934f:	00 00 00 
test/unit/artifacts/cpp/modifiedFunctionsDetector/indent-2.2.9/indent.c:290
 8049352:	c9                   	leave  
 8049353:	c3                   	ret    

08049354 <handle_token_newline>:
handle_token_newline():
test/unit/artifacts/cpp/modifiedFunctionsDetector/indent-2.2.9/indent.c:297
 8049354:	55                   	push   %ebp
 8049355:	89 e5                	mov    %esp,%ebp
 8049357:	83 ec 18             	sub    $0x18,%esp
test/unit/artifacts/cpp/modifiedFunctionsDetector/indent-2.2.9/indent.c:299
 804935a:	8b 15 70 aa 05 08    	mov    0x805aa70,%edx
 8049360:	a1 74 aa 05 08       	mov    0x805aa74,%eax
 8049365:	39 c2                	cmp    %eax,%edx
 8049367:	74 49                	je     80493b2 <handle_token_newline+0x5e>
 8049369:	a1 70 aa 05 08       	mov    0x805aa70,%eax
 804936e:	0f b6 00             	movzbl (%eax),%eax
 8049371:	3c 23                	cmp    $0x23,%al
 8049373:	75 3d                	jne    80493b2 <handle_token_newline+0x5e>
test/unit/artifacts/cpp/modifiedFunctionsDetector/indent-2.2.9/indent.c:301
 8049375:	c7 44 24 04 e8 aa 05 	movl   $0x805aae8,0x4(%esp)
 804937c:	08 
 804937d:	c7 04 24 01 00 00 00 	movl   $0x1,(%esp)
 8049384:	e8 aa a6 00 00       	call   8053a33 <dump_line>
test/unit/artifacts/cpp/modifiedFunctionsDetector/indent-2.2.9/indent.c:303
 8049389:	8b 15 80 aa 05 08    	mov    0x805aa80,%edx
 804938f:	a1 84 aa 05 08       	mov    0x805aa84,%eax
 8049394:	39 c2                	cmp    %eax,%edx
 8049396:	75 0f                	jne    80493a7 <handle_token_newline+0x53>
test/unit/artifacts/cpp/modifiedFunctionsDetector/indent-2.2.9/indent.c:305
 8049398:	a1 fc ac 05 08       	mov    0x805acfc,%eax
 804939d:	c7 80 9c 00 00 00 00 	movl   $0x0,0x9c(%eax)
 80493a4:	00 00 00 
test/unit/artifacts/cpp/modifiedFunctionsDetector/indent-2.2.9/indent.c:308
 80493a7:	8b 45 08             	mov    0x8(%ebp),%eax
 80493aa:	c6 00 00             	movb   $0x0,(%eax)
test/unit/artifacts/cpp/modifiedFunctionsDetector/indent-2.2.9/indent.c:299
 80493ad:	e9 73 01 00 00       	jmp    8049525 <handle_token_newline+0x1d1>
test/unit/artifacts/cpp/modifiedFunctionsDetector/indent-2.2.9/indent.c:312
 80493b2:	a1 fc ac 05 08       	mov    0x805acfc,%eax
 80493b7:	8b 40 04             	mov    0x4(%eax),%eax
 80493ba:	83 f8 12             	cmp    $0x12,%eax
 80493bd:	75 3d                	jne    80493fc <handle_token_newline+0xa8>
test/unit/artifacts/cpp/modifiedFunctionsDetector/indent-2.2.9/indent.c:313
 80493bf:	a1 7c ab 05 08       	mov    0x805ab7c,%eax
test/unit/artifacts/cpp/modifiedFunctionsDetector/indent-2.2.9/indent.c:312
 80493c4:	85 c0                	test   %eax,%eax
 80493c6:	74 34                	je     80493fc <handle_token_newline+0xa8>
test/unit/artifacts/cpp/modifiedFunctionsDetector/indent-2.2.9/indent.c:314
 80493c8:	a1 b0 aa 05 08       	mov    0x805aab0,%eax
test/unit/artifacts/cpp/modifiedFunctionsDetector/indent-2.2.9/indent.c:312
 80493cd:	85 c0                	test   %eax,%eax
 80493cf:	74 2b                	je     80493fc <handle_token_newline+0xa8>
test/unit/artifacts/cpp/modifiedFunctionsDetector/indent-2.2.9/indent.c:315
 80493d1:	a1 fc ac 05 08       	mov    0x805acfc,%eax
 80493d6:	8b 40 7c             	mov    0x7c(%eax),%eax
test/unit/artifacts/cpp/modifiedFunctionsDetector/indent-2.2.9/indent.c:312
 80493d9:	85 c0                	test   %eax,%eax
 80493db:	7f 1f                	jg     80493fc <handle_token_newline+0xa8>
test/unit/artifacts/cpp/modifiedFunctionsDetector/indent-2.2.9/indent.c:316
 80493dd:	a1 fc ac 05 08       	mov    0x805acfc,%eax
 80493e2:	8b 40 34             	mov    0x34(%eax),%eax
test/unit/artifacts/cpp/modifiedFunctionsDetector/indent-2.2.9/indent.c:312
 80493e5:	85 c0                	test   %eax,%eax
 80493e7:	75 13                	jne    80493fc <handle_token_newline+0xa8>
test/unit/artifacts/cpp/modifiedFunctionsDetector/indent-2.2.9/indent.c:317
 80493e9:	8b 15 90 aa 05 08    	mov    0x805aa90,%edx
 80493ef:	a1 94 aa 05 08       	mov    0x805aa94,%eax
test/unit/artifacts/cpp/modifiedFunctionsDetector/indent-2.2.9/indent.c:312
 80493f4:	39 c2                	cmp    %eax,%edx
 80493f6:	0f 84 29 01 00 00    	je     8049525 <handle_token_newline+0x1d1>
test/unit/artifacts/cpp/modifiedFunctionsDetector/indent-2.2.9/indent.c:318
 80493fc:	a1 fc ac 05 08       	mov    0x805acfc,%eax
 8049401:	8b 40 04             	mov    0x4(%eax),%eax
test/unit/artifacts/cpp/modifiedFunctionsDetector/indent-2.2.9/indent.c:312
 8049404:	83 f8 0e             	cmp    $0xe,%eax
 8049407:	75 1a                	jne    8049423 <handle_token_newline+0xcf>
 8049409:	a1 cc ab 05 08       	mov    0x805abcc,%eax
 804940e:	85 c0                	test   %eax,%eax
 8049410:	74 11                	je     8049423 <handle_token_newline+0xcf>
test/unit/artifacts/cpp/modifiedFunctionsDetector/indent-2.2.9/indent.c:320
 8049412:	a1 fc ac 05 08       	mov    0x805acfc,%eax
test/unit/artifacts/cpp/modifiedFunctionsDetector/indent-2.2.9/indent.c:312
 8049417:	0f b6 40 64          	movzbl 0x64(%eax),%eax
 804941b:	84 c0                	test   %al,%al
 804941d:	0f 85 02 01 00 00    	jne    8049525 <handle_token_newline+0x1d1>
test/unit/artifacts/cpp/modifiedFunctionsDetector/indent-2.2.9/indent.c:326
 8049423:	a1 2c ab 05 08       	mov    0x805ab2c,%eax
 8049428:	85 c0                	test   %eax,%eax
 804942a:	0f 85 99 00 00 00    	jne    80494c9 <handle_token_newline+0x175>
test/unit/artifacts/cpp/modifiedFunctionsDetector/indent-2.2.9/indent.c:327
 8049430:	8b 15 70 aa 05 08    	mov    0x805aa70,%edx
 8049436:	a1 74 aa 05 08       	mov    0x805aa74,%eax
test/unit/artifacts/cpp/modifiedFunctionsDetector/indent-2.2.9/indent.c:326
 804943b:	39 c2                	cmp    %eax,%edx
 804943d:	0f 85 86 00 00 00    	jne    80494c9 <handle_token_newline+0x175>
test/unit/artifacts/cpp/modifiedFunctionsDetector/indent-2.2.9/indent.c:328
 8049443:	a1 fc ac 05 08       	mov    0x805acfc,%eax
 8049448:	8b 40 04             	mov    0x4(%eax),%eax
test/unit/artifacts/cpp/modifiedFunctionsDetector/indent-2.2.9/indent.c:326
 804944b:	83 f8 02             	cmp    $0x2,%eax
 804944e:	74 79                	je     80494c9 <handle_token_newline+0x175>
test/unit/artifacts/cpp/modifiedFunctionsDetector/indent-2.2.9/indent.c:329
 8049450:	a1 fc ac 05 08       	mov    0x805acfc,%eax
 8049455:	8b 40 04             	mov    0x4(%eax),%eax
test/unit/artifacts/cpp/modifiedFunctionsDetector/indent-2.2.9/indent.c:326
 8049458:	83 f8 0c             	cmp    $0xc,%eax
 804945b:	74 6c                	je     80494c9 <handle_token_newline+0x175>
test/unit/artifacts/cpp/modifiedFunctionsDetector/indent-2.2.9/indent.c:330
 804945d:	a1 fc ac 05 08       	mov    0x805acfc,%eax
 8049462:	8b 40 04             	mov    0x4(%eax),%eax
test/unit/artifacts/cpp/modifiedFunctionsDetector/indent-2.2.9/indent.c:326
 8049465:	83 f8 12             	cmp    $0x12,%eax
 8049468:	74 5f                	je     80494c9 <handle_token_newline+0x175>
test/unit/artifacts/cpp/modifiedFunctionsDetector/indent-2.2.9/indent.c:331
 804946a:	a1 fc ac 05 08       	mov    0x805acfc,%eax
 804946f:	8b 40 14             	mov    0x14(%eax),%eax
test/unit/artifacts/cpp/modifiedFunctionsDetector/indent-2.2.9/indent.c:326
 8049472:	83 f8 07             	cmp    $0x7,%eax
 8049475:	75 52                	jne    80494c9 <handle_token_newline+0x175>
test/unit/artifacts/cpp/modifiedFunctionsDetector/indent-2.2.9/indent.c:332
 8049477:	a1 fc ac 05 08       	mov    0x805acfc,%eax
 804947c:	8b 40 18             	mov    0x18(%eax),%eax
test/unit/artifacts/cpp/modifiedFunctionsDetector/indent-2.2.9/indent.c:326
 804947f:	85 c0                	test   %eax,%eax
 8049481:	75 46                	jne    80494c9 <handle_token_newline+0x175>
test/unit/artifacts/cpp/modifiedFunctionsDetector/indent-2.2.9/indent.c:333
 8049483:	a1 fc ac 05 08       	mov    0x805acfc,%eax
 8049488:	8b 40 34             	mov    0x34(%eax),%eax
test/unit/artifacts/cpp/modifiedFunctionsDetector/indent-2.2.9/indent.c:326
 804948b:	85 c0                	test   %eax,%eax
 804948d:	75 3a                	jne    80494c9 <handle_token_newline+0x175>
test/unit/artifacts/cpp/modifiedFunctionsDetector/indent-2.2.9/indent.c:334
 804948f:	a1 fc ac 05 08       	mov    0x805acfc,%eax
 8049494:	0f b6 40 64          	movzbl 0x64(%eax),%eax
test/unit/artifacts/cpp/modifiedFunctionsDetector/indent-2.2.9/indent.c:326
 8049498:	84 c0                	test   %al,%al
 804949a:	74 2d                	je     80494c9 <handle_token_newline+0x175>
test/unit/artifacts/cpp/modifiedFunctionsDetector/indent-2.2.9/indent.c:340
 804949c:	8b 15 84 aa 05 08    	mov    0x805aa84,%edx
 80494a2:	a1 80 aa 05 08       	mov    0x805aa80,%eax
 80494a7:	39 c2                	cmp    %eax,%edx
 80494a9:	76 0f                	jbe    80494ba <handle_token_newline+0x166>
test/unit/artifacts/cpp/modifiedFunctionsDetector/indent-2.2.9/indent.c:341
 80494ab:	a1 84 aa 05 08       	mov    0x805aa84,%eax
 80494b0:	83 e8 01             	sub    $0x1,%eax
 80494b3:	0f b6 00             	movzbl (%eax),%eax
test/unit/artifacts/cpp/modifiedFunctionsDetector/indent-2.2.9/indent.c:340
 80494b6:	3c 2a                	cmp    $0x2a,%al
 80494b8:	74 0f                	je     80494c9 <handle_token_newline+0x175>
test/unit/artifacts/cpp/modifiedFunctionsDetector/indent-2.2.9/indent.c:343
 80494ba:	a1 fc ac 05 08       	mov    0x805acfc,%eax
 80494bf:	c7 80 9c 00 00 00 01 	movl   $0x1,0x9c(%eax)
 80494c6:	00 00 00 
test/unit/artifacts/cpp/modifiedFunctionsDetector/indent-2.2.9/indent.c:347
 80494c9:	a1 fc ac 05 08       	mov    0x805acfc,%eax
 80494ce:	8b 40 68             	mov    0x68(%eax),%eax
 80494d1:	85 c0                	test   %eax,%eax
 80494d3:	74 18                	je     80494ed <handle_token_newline+0x199>
test/unit/artifacts/cpp/modifiedFunctionsDetector/indent-2.2.9/indent.c:348
 80494d5:	8b 15 90 aa 05 08    	mov    0x805aa90,%edx
 80494db:	a1 94 aa 05 08       	mov    0x805aa94,%eax
test/unit/artifacts/cpp/modifiedFunctionsDetector/indent-2.2.9/indent.c:347
 80494e0:	39 c2                	cmp    %eax,%edx
 80494e2:	75 09                	jne    80494ed <handle_token_newline+0x199>
test/unit/artifacts/cpp/modifiedFunctionsDetector/indent-2.2.9/indent.c:349
 80494e4:	a1 c8 aa 05 08       	mov    0x805aac8,%eax
test/unit/artifacts/cpp/modifiedFunctionsDetector/indent-2.2.9/indent.c:347
 80494e9:	85 c0                	test   %eax,%eax
 80494eb:	74 38                	je     8049525 <handle_token_newline+0x1d1>
test/unit/artifacts/cpp/modifiedFunctionsDetector/indent-2.2.9/indent.c:351
 80494ed:	c7 44 24 04 e8 aa 05 	movl   $0x805aae8,0x4(%esp)
 80494f4:	08 
 80494f5:	c7 04 24 01 00 00 00 	movl   $0x1,(%esp)
 80494fc:	e8 32 a5 00 00       	call   8053a33 <dump_line>
test/unit/artifacts/cpp/modifiedFunctionsDetector/indent-2.2.9/indent.c:353
 8049501:	8b 15 80 aa 05 08    	mov    0x805aa80,%edx
 8049507:	a1 84 aa 05 08       	mov    0x805aa84,%eax
 804950c:	39 c2                	cmp    %eax,%edx
 804950e:	75 0f                	jne    804951f <handle_token_newline+0x1cb>
test/unit/artifacts/cpp/modifiedFunctionsDetector/indent-2.2.9/indent.c:355
 8049510:	a1 fc ac 05 08       	mov    0x805acfc,%eax
 8049515:	c7 80 9c 00 00 00 00 	movl   $0x0,0x9c(%eax)
 804951c:	00 00 00 
test/unit/artifacts/cpp/modifiedFunctionsDetector/indent-2.2.9/indent.c:358
 804951f:	8b 45 08             	mov    0x8(%ebp),%eax
 8049522:	c6 00 00             	movb   $0x0,(%eax)
test/unit/artifacts/cpp/modifiedFunctionsDetector/indent-2.2.9/indent.c:366
 8049525:	c7 05 cc aa 05 08 00 	movl   $0x0,0x805aacc
 804952c:	00 00 00 
test/unit/artifacts/cpp/modifiedFunctionsDetector/indent-2.2.9/indent.c:367
 804952f:	a1 ac aa 05 08       	mov    0x805aaac,%eax
 8049534:	83 c0 01             	add    $0x1,%eax
 8049537:	a3 ac aa 05 08       	mov    %eax,0x805aaac
test/unit/artifacts/cpp/modifiedFunctionsDetector/indent-2.2.9/indent.c:368
 804953c:	c9                   	leave  
 804953d:	c3                   	ret    

0804953e <handle_token_lparen>:
handle_token_lparen():
test/unit/artifacts/cpp/modifiedFunctionsDetector/indent-2.2.9/indent.c:375
 804953e:	55                   	push   %ebp
 804953f:	89 e5                	mov    %esp,%ebp
 8049541:	57                   	push   %edi
 8049542:	56                   	push   %esi
 8049543:	53                   	push   %ebx
 8049544:	83 ec 2c             	sub    $0x2c,%esp
test/unit/artifacts/cpp/modifiedFunctionsDetector/indent-2.2.9/indent.c:376
 8049547:	a1 74 ad 05 08       	mov    0x805ad74,%eax
 804954c:	0f b6 00             	movzbl (%eax),%eax
 804954f:	88 45 e7             	mov    %al,-0x19(%ebp)
test/unit/artifacts/cpp/modifiedFunctionsDetector/indent-2.2.9/indent.c:390
 8049552:	a1 74 ad 05 08       	mov    0x805ad74,%eax
 8049557:	0f b6 00             	movzbl (%eax),%eax
 804955a:	3c 7b                	cmp    $0x7b,%al
 804955c:	75 50                	jne    80495ae <handle_token_lparen+0x70>
 804955e:	8b 15 80 aa 05 08    	mov    0x805aa80,%edx
 8049564:	a1 84 aa 05 08       	mov    0x805aa84,%eax
 8049569:	39 c2                	cmp    %eax,%edx
 804956b:	75 1e                	jne    804958b <handle_token_lparen+0x4d>
test/unit/artifacts/cpp/modifiedFunctionsDetector/indent-2.2.9/indent.c:391
 804956d:	8b 15 90 aa 05 08    	mov    0x805aa90,%edx
 8049573:	a1 94 aa 05 08       	mov    0x805aa94,%eax
test/unit/artifacts/cpp/modifiedFunctionsDetector/indent-2.2.9/indent.c:390
 8049578:	39 c2                	cmp    %eax,%edx
 804957a:	75 0f                	jne    804958b <handle_token_lparen+0x4d>
test/unit/artifacts/cpp/modifiedFunctionsDetector/indent-2.2.9/indent.c:392
 804957c:	8b 15 70 aa 05 08    	mov    0x805aa70,%edx
 8049582:	a1 74 aa 05 08       	mov    0x805aa74,%eax
test/unit/artifacts/cpp/modifiedFunctionsDetector/indent-2.2.9/indent.c:390
 8049587:	39 c2                	cmp    %eax,%edx
 8049589:	74 23                	je     80495ae <handle_token_lparen+0x70>
test/unit/artifacts/cpp/modifiedFunctionsDetector/indent-2.2.9/indent.c:394
 804958b:	c7 44 24 04 e8 aa 05 	movl   $0x805aae8,0x4(%esp)
 8049592:	08 
 8049593:	c7 04 24 01 00 00 00 	movl   $0x1,(%esp)
 804959a:	e8 94 a4 00 00       	call   8053a33 <dump_line>
test/unit/artifacts/cpp/modifiedFunctionsDetector/indent-2.2.9/indent.c:398
 804959f:	a1 fc ac 05 08       	mov    0x805acfc,%eax
 80495a4:	c7 80 9c 00 00 00 00 	movl   $0x0,0x9c(%eax)
 80495ab:	00 00 00 
test/unit/artifacts/cpp/modifiedFunctionsDetector/indent-2.2.9/indent.c:403
 80495ae:	a1 fc ac 05 08       	mov    0x805acfc,%eax
 80495b3:	8b 50 7c             	mov    0x7c(%eax),%edx
 80495b6:	83 c2 01             	add    $0x1,%edx
 80495b9:	89 50 7c             	mov    %edx,0x7c(%eax)
test/unit/artifacts/cpp/modifiedFunctionsDetector/indent-2.2.9/indent.c:405
 80495bc:	a1 fc ac 05 08       	mov    0x805acfc,%eax
 80495c1:	8b 50 7c             	mov    0x7c(%eax),%edx
 80495c4:	a1 fc ac 05 08       	mov    0x805acfc,%eax
 80495c9:	8b 80 8c 00 00 00    	mov    0x8c(%eax),%eax
 80495cf:	39 c2                	cmp    %eax,%edx
 80495d1:	7c 4a                	jl     804961d <handle_token_lparen+0xdf>
test/unit/artifacts/cpp/modifiedFunctionsDetector/indent-2.2.9/indent.c:407
 80495d3:	a1 fc ac 05 08       	mov    0x805acfc,%eax
 80495d8:	8b 15 fc ac 05 08    	mov    0x805acfc,%edx
 80495de:	8b 92 8c 00 00 00    	mov    0x8c(%edx),%edx
 80495e4:	01 d2                	add    %edx,%edx
 80495e6:	89 90 8c 00 00 00    	mov    %edx,0x8c(%eax)
test/unit/artifacts/cpp/modifiedFunctionsDetector/indent-2.2.9/indent.c:408
 80495ec:	8b 1d fc ac 05 08    	mov    0x805acfc,%ebx
test/unit/artifacts/cpp/modifiedFunctionsDetector/indent-2.2.9/indent.c:410
 80495f2:	a1 fc ac 05 08       	mov    0x805acfc,%eax
test/unit/artifacts/cpp/modifiedFunctionsDetector/indent-2.2.9/indent.c:409
 80495f7:	8b 80 8c 00 00 00    	mov    0x8c(%eax),%eax
 80495fd:	8d 14 00             	lea    (%eax,%eax,1),%edx
 8049600:	a1 fc ac 05 08       	mov    0x805acfc,%eax
 8049605:	8b 80 88 00 00 00    	mov    0x88(%eax),%eax
 804960b:	89 54 24 04          	mov    %edx,0x4(%esp)
 804960f:	89 04 24             	mov    %eax,(%esp)
 8049612:	e8 c3 8e 00 00       	call   80524da <xrealloc>
test/unit/artifacts/cpp/modifiedFunctionsDetector/indent-2.2.9/indent.c:408
 8049617:	89 83 88 00 00 00    	mov    %eax,0x88(%ebx)
test/unit/artifacts/cpp/modifiedFunctionsDetector/indent-2.2.9/indent.c:414
 804961d:	a1 fc ac 05 08       	mov    0x805acfc,%eax
 8049622:	8b 90 84 00 00 00    	mov    0x84(%eax),%edx
 8049628:	83 c2 01             	add    $0x1,%edx
 804962b:	89 90 84 00 00 00    	mov    %edx,0x84(%eax)
test/unit/artifacts/cpp/modifiedFunctionsDetector/indent-2.2.9/indent.c:416
 8049631:	a1 fc ac 05 08       	mov    0x805acfc,%eax
 8049636:	8b 80 9c 00 00 00    	mov    0x9c(%eax),%eax
 804963c:	85 c0                	test   %eax,%eax
 804963e:	74 78                	je     80496b8 <handle_token_lparen+0x17a>
test/unit/artifacts/cpp/modifiedFunctionsDetector/indent-2.2.9/indent.c:417
 8049640:	a1 74 ad 05 08       	mov    0x805ad74,%eax
 8049645:	0f b6 00             	movzbl (%eax),%eax
test/unit/artifacts/cpp/modifiedFunctionsDetector/indent-2.2.9/indent.c:416
 8049648:	3c 5b                	cmp    $0x5b,%al
 804964a:	74 6c                	je     80496b8 <handle_token_lparen+0x17a>
test/unit/artifacts/cpp/modifiedFunctionsDetector/indent-2.2.9/indent.c:418
 804964c:	a1 fc ac 05 08       	mov    0x805acfc,%eax
 8049651:	8b 40 04             	mov    0x4(%eax),%eax
test/unit/artifacts/cpp/modifiedFunctionsDetector/indent-2.2.9/indent.c:416
 8049654:	83 f8 0f             	cmp    $0xf,%eax
 8049657:	75 30                	jne    8049689 <handle_token_lparen+0x14b>
test/unit/artifacts/cpp/modifiedFunctionsDetector/indent-2.2.9/indent.c:419
 8049659:	a1 3c ab 05 08       	mov    0x805ab3c,%eax
test/unit/artifacts/cpp/modifiedFunctionsDetector/indent-2.2.9/indent.c:416
 804965e:	85 c0                	test   %eax,%eax
 8049660:	75 27                	jne    8049689 <handle_token_lparen+0x14b>
test/unit/artifacts/cpp/modifiedFunctionsDetector/indent-2.2.9/indent.c:420
 8049662:	a1 fc ac 05 08       	mov    0x805acfc,%eax
 8049667:	8b 80 a4 00 00 00    	mov    0xa4(%eax),%eax
test/unit/artifacts/cpp/modifiedFunctionsDetector/indent-2.2.9/indent.c:416
 804966d:	85 c0                	test   %eax,%eax
 804966f:	74 47                	je     80496b8 <handle_token_lparen+0x17a>
test/unit/artifacts/cpp/modifiedFunctionsDetector/indent-2.2.9/indent.c:421
 8049671:	a1 fc ac 05 08       	mov    0x805acfc,%eax
 8049676:	8b 80 a8 00 00 00    	mov    0xa8(%eax),%eax
test/unit/artifacts/cpp/modifiedFunctionsDetector/indent-2.2.9/indent.c:416
 804967c:	85 c0                	test   %eax,%eax
 804967e:	74 09                	je     8049689 <handle_token_lparen+0x14b>
test/unit/artifacts/cpp/modifiedFunctionsDetector/indent-2.2.9/indent.c:421
 8049680:	a1 70 ab 05 08       	mov    0x805ab70,%eax
test/unit/artifacts/cpp/modifiedFunctionsDetector/indent-2.2.9/indent.c:416
 8049685:	85 c0                	test   %eax,%eax
 8049687:	74 2f                	je     80496b8 <handle_token_lparen+0x17a>
test/unit/artifacts/cpp/modifiedFunctionsDetector/indent-2.2.9/indent.c:423
 8049689:	a1 e8 aa 05 08       	mov    0x805aae8,%eax
 804968e:	89 44 24 04          	mov    %eax,0x4(%esp)
 8049692:	c7 04 24 04 00 00 00 	movl   $0x4,(%esp)
 8049699:	e8 ec 9a 00 00       	call   805318a <set_buf_break>
test/unit/artifacts/cpp/modifiedFunctionsDetector/indent-2.2.9/indent.c:424
 804969e:	a1 84 aa 05 08       	mov    0x805aa84,%eax
 80496a3:	c6 00 20             	movb   $0x20,(%eax)
 80496a6:	83 c0 01             	add    $0x1,%eax
 80496a9:	a3 84 aa 05 08       	mov    %eax,0x805aa84
test/unit/artifacts/cpp/modifiedFunctionsDetector/indent-2.2.9/indent.c:425
 80496ae:	a1 84 aa 05 08       	mov    0x805aa84,%eax
 80496b3:	c6 00 00             	movb   $0x0,(%eax)
test/unit/artifacts/cpp/modifiedFunctionsDetector/indent-2.2.9/indent.c:416
 80496b6:	eb 15                	jmp    80496cd <handle_token_lparen+0x18f>
test/unit/artifacts/cpp/modifiedFunctionsDetector/indent-2.2.9/indent.c:429
 80496b8:	a1 e8 aa 05 08       	mov    0x805aae8,%eax
 80496bd:	89 44 24 04          	mov    %eax,0x4(%esp)
 80496c1:	c7 04 24 04 00 00 00 	movl   $0x4,(%esp)
 80496c8:	e8 bd 9a 00 00       	call   805318a <set_buf_break>
test/unit/artifacts/cpp/modifiedFunctionsDetector/indent-2.2.9/indent.c:432
 80496cd:	a1 fc ac 05 08       	mov    0x805acfc,%eax
 80496d2:	0f b6 40 64          	movzbl 0x64(%eax),%eax
 80496d6:	84 c0                	test   %al,%al
 80496d8:	0f 84 a9 00 00 00    	je     8049787 <handle_token_lparen+0x249>
 80496de:	a1 fc ac 05 08       	mov    0x805acfc,%eax
 80496e3:	8b 40 34             	mov    0x34(%eax),%eax
 80496e6:	85 c0                	test   %eax,%eax
 80496e8:	0f 85 99 00 00 00    	jne    8049787 <handle_token_lparen+0x249>
test/unit/artifacts/cpp/modifiedFunctionsDetector/indent-2.2.9/indent.c:434
 80496ee:	a1 74 ad 05 08       	mov    0x805ad74,%eax
 80496f3:	0f b6 00             	movzbl (%eax),%eax
 80496f6:	3c 5b                	cmp    $0x5b,%al
 80496f8:	74 73                	je     804976d <handle_token_lparen+0x22f>
 80496fa:	a1 40 ad 05 08       	mov    0x805ad40,%eax
 80496ff:	85 c0                	test   %eax,%eax
 8049701:	75 6a                	jne    804976d <handle_token_lparen+0x22f>
test/unit/artifacts/cpp/modifiedFunctionsDetector/indent-2.2.9/indent.c:436
 8049703:	eb 2a                	jmp    804972f <handle_token_lparen+0x1f1>
test/unit/artifacts/cpp/modifiedFunctionsDetector/indent-2.2.9/indent.c:438
 8049705:	e8 5a f7 ff ff       	call   8048e64 <check_code_size>
test/unit/artifacts/cpp/modifiedFunctionsDetector/indent-2.2.9/indent.c:439
 804970a:	a1 e8 aa 05 08       	mov    0x805aae8,%eax
 804970f:	89 44 24 04          	mov    %eax,0x4(%esp)
 8049713:	c7 04 24 05 00 00 00 	movl   $0x5,(%esp)
 804971a:	e8 6b 9a 00 00       	call   805318a <set_buf_break>
test/unit/artifacts/cpp/modifiedFunctionsDetector/indent-2.2.9/indent.c:440
 804971f:	a1 84 aa 05 08       	mov    0x805aa84,%eax
 8049724:	c6 00 20             	movb   $0x20,(%eax)
 8049727:	83 c0 01             	add    $0x1,%eax
 804972a:	a3 84 aa 05 08       	mov    %eax,0x805aa84
test/unit/artifacts/cpp/modifiedFunctionsDetector/indent-2.2.9/indent.c:436
 804972f:	a1 84 aa 05 08       	mov    0x805aa84,%eax
 8049734:	89 c2                	mov    %eax,%edx
 8049736:	a1 80 aa 05 08       	mov    0x805aa80,%eax
 804973b:	29 c2                	sub    %eax,%edx
 804973d:	8b 45 10             	mov    0x10(%ebp),%eax
 8049740:	8b 00                	mov    (%eax),%eax
 8049742:	39 c2                	cmp    %eax,%edx
 8049744:	7c bf                	jl     8049705 <handle_token_lparen+0x1c7>
test/unit/artifacts/cpp/modifiedFunctionsDetector/indent-2.2.9/indent.c:443
 8049746:	a1 84 aa 05 08       	mov    0x805aa84,%eax
 804974b:	8b 15 74 ad 05 08    	mov    0x805ad74,%edx
 8049751:	0f b6 12             	movzbl (%edx),%edx
 8049754:	88 10                	mov    %dl,(%eax)
 8049756:	83 c0 01             	add    $0x1,%eax
 8049759:	a3 84 aa 05 08       	mov    %eax,0x805aa84
test/unit/artifacts/cpp/modifiedFunctionsDetector/indent-2.2.9/indent.c:444
 804975e:	a1 fc ac 05 08       	mov    0x805acfc,%eax
 8049763:	c7 40 74 00 00 00 00 	movl   $0x0,0x74(%eax)
test/unit/artifacts/cpp/modifiedFunctionsDetector/indent-2.2.9/indent.c:434
 804976a:	90                   	nop
test/unit/artifacts/cpp/modifiedFunctionsDetector/indent-2.2.9/indent.c:432
 804976b:	eb 32                	jmp    804979f <handle_token_lparen+0x261>
test/unit/artifacts/cpp/modifiedFunctionsDetector/indent-2.2.9/indent.c:448
 804976d:	a1 84 aa 05 08       	mov    0x805aa84,%eax
 8049772:	8b 15 74 ad 05 08    	mov    0x805ad74,%edx
 8049778:	0f b6 12             	movzbl (%edx),%edx
 804977b:	88 10                	mov    %dl,(%eax)
 804977d:	83 c0 01             	add    $0x1,%eax
 8049780:	a3 84 aa 05 08       	mov    %eax,0x805aa84
test/unit/artifacts/cpp/modifiedFunctionsDetector/indent-2.2.9/indent.c:432
 8049785:	eb 18                	jmp    804979f <handle_token_lparen+0x261>
test/unit/artifacts/cpp/modifiedFunctionsDetector/indent-2.2.9/indent.c:453
 8049787:	a1 84 aa 05 08       	mov    0x805aa84,%eax
 804978c:	8b 15 74 ad 05 08    	mov    0x805ad74,%edx
 8049792:	0f b6 12             	movzbl (%edx),%edx
 8049795:	88 10                	mov    %dl,(%eax)
 8049797:	83 c0 01             	add    $0x1,%eax
 804979a:	a3 84 aa 05 08       	mov    %eax,0x805aa84
test/unit/artifacts/cpp/modifiedFunctionsDetector/indent-2.2.9/indent.c:456
 804979f:	a1 30 ab 05 08       	mov    0x805ab30,%eax
 80497a4:	85 c0                	test   %eax,%eax
 80497a6:	74 1c                	je     80497c4 <handle_token_lparen+0x286>
 80497a8:	a1 74 ad 05 08       	mov    0x805ad74,%eax
 80497ad:	0f b6 00             	movzbl (%eax),%eax
 80497b0:	3c 5b                	cmp    $0x5b,%al
 80497b2:	74 10                	je     80497c4 <handle_token_lparen+0x286>
test/unit/artifacts/cpp/modifiedFunctionsDetector/indent-2.2.9/indent.c:458
 80497b4:	a1 84 aa 05 08       	mov    0x805aa84,%eax
 80497b9:	c6 00 20             	movb   $0x20,(%eax)
 80497bc:	83 c0 01             	add    $0x1,%eax
 80497bf:	a3 84 aa 05 08       	mov    %eax,0x805aa84
test/unit/artifacts/cpp/modifiedFunctionsDetector/indent-2.2.9/indent.c:461
 80497c4:	a1 fc ac 05 08       	mov    0x805acfc,%eax
 80497c9:	8b 90 88 00 00 00    	mov    0x88(%eax),%edx
 80497cf:	a1 fc ac 05 08       	mov    0x805acfc,%eax
 80497d4:	8b 40 7c             	mov    0x7c(%eax),%eax
 80497d7:	83 e8 01             	sub    $0x1,%eax
 80497da:	01 c0                	add    %eax,%eax
 80497dc:	01 c2                	add    %eax,%edx
 80497de:	a1 84 aa 05 08       	mov    0x805aa84,%eax
 80497e3:	89 c1                	mov    %eax,%ecx
 80497e5:	a1 80 aa 05 08       	mov    0x805aa80,%eax
 80497ea:	89 cb                	mov    %ecx,%ebx
 80497ec:	66 29 c3             	sub    %ax,%bx
 80497ef:	89 d8                	mov    %ebx,%eax
 80497f1:	66 89 02             	mov    %ax,(%edx)
test/unit/artifacts/cpp/modifiedFunctionsDetector/indent-2.2.9/indent.c:464
 80497f4:	8b 45 0c             	mov    0xc(%ebp),%eax
 80497f7:	0f b6 00             	movzbl (%eax),%eax
 80497fa:	84 c0                	test   %al,%al
 80497fc:	74 47                	je     8049845 <handle_token_lparen+0x307>
 80497fe:	a1 fc ac 05 08       	mov    0x805acfc,%eax
 8049803:	8b 40 7c             	mov    0x7c(%eax),%eax
 8049806:	83 f8 01             	cmp    $0x1,%eax
 8049809:	75 3a                	jne    8049845 <handle_token_lparen+0x307>
test/unit/artifacts/cpp/modifiedFunctionsDetector/indent-2.2.9/indent.c:465
 804980b:	a1 58 ab 05 08       	mov    0x805ab58,%eax
test/unit/artifacts/cpp/modifiedFunctionsDetector/indent-2.2.9/indent.c:464
 8049810:	85 c0                	test   %eax,%eax
 8049812:	74 31                	je     8049845 <handle_token_lparen+0x307>
test/unit/artifacts/cpp/modifiedFunctionsDetector/indent-2.2.9/indent.c:466
 8049814:	a1 fc ac 05 08       	mov    0x805acfc,%eax
 8049819:	8b 80 88 00 00 00    	mov    0x88(%eax),%eax
 804981f:	0f b7 00             	movzwl (%eax),%eax
 8049822:	98                   	cwtl   
 8049823:	8b 15 a0 ab 05 08    	mov    0x805aba0,%edx
 8049829:	01 d2                	add    %edx,%edx
test/unit/artifacts/cpp/modifiedFunctionsDetector/indent-2.2.9/indent.c:464
 804982b:	39 d0                	cmp    %edx,%eax
 804982d:	7d 16                	jge    8049845 <handle_token_lparen+0x307>
test/unit/artifacts/cpp/modifiedFunctionsDetector/indent-2.2.9/indent.c:468
 804982f:	a1 fc ac 05 08       	mov    0x805acfc,%eax
 8049834:	8b 80 88 00 00 00    	mov    0x88(%eax),%eax
 804983a:	8b 15 a0 ab 05 08    	mov    0x805aba0,%edx
 8049840:	01 d2                	add    %edx,%edx
 8049842:	66 89 10             	mov    %dx,(%eax)
test/unit/artifacts/cpp/modifiedFunctionsDetector/indent-2.2.9/indent.c:471
 8049845:	a1 fc ac 05 08       	mov    0x805acfc,%eax
 804984a:	c7 80 9c 00 00 00 00 	movl   $0x0,0x9c(%eax)
 8049851:	00 00 00 
test/unit/artifacts/cpp/modifiedFunctionsDetector/indent-2.2.9/indent.c:473
 8049854:	a1 fc ac 05 08       	mov    0x805acfc,%eax
 8049859:	8b 40 4c             	mov    0x4c(%eax),%eax
 804985c:	83 f8 01             	cmp    $0x1,%eax
 804985f:	75 1d                	jne    804987e <handle_token_lparen+0x340>
 8049861:	a1 74 ad 05 08       	mov    0x805ad74,%eax
 8049866:	0f b6 00             	movzbl (%eax),%eax
 8049869:	3c 28                	cmp    $0x28,%al
 804986b:	75 11                	jne    804987e <handle_token_lparen+0x340>
test/unit/artifacts/cpp/modifiedFunctionsDetector/indent-2.2.9/indent.c:479
 804986d:	e8 c8 8b 00 00       	call   805243a <parse_lparen_in_decl>
test/unit/artifacts/cpp/modifiedFunctionsDetector/indent-2.2.9/indent.c:483
 8049872:	a1 fc ac 05 08       	mov    0x805acfc,%eax
 8049877:	c7 40 4c 00 00 00 00 	movl   $0x0,0x4c(%eax)
test/unit/artifacts/cpp/modifiedFunctionsDetector/indent-2.2.9/indent.c:490
 804987e:	a1 74 ad 05 08       	mov    0x805ad74,%eax
 8049883:	0f b6 00             	movzbl (%eax),%eax
 8049886:	3c 28                	cmp    $0x28,%al
 8049888:	0f 85 91 00 00 00    	jne    804991f <handle_token_lparen+0x3e1>
test/unit/artifacts/cpp/modifiedFunctionsDetector/indent-2.2.9/indent.c:491
 804988e:	a1 74 ab 05 08       	mov    0x805ab74,%eax
test/unit/artifacts/cpp/modifiedFunctionsDetector/indent-2.2.9/indent.c:490
 8049893:	85 c0                	test   %eax,%eax
 8049895:	0f 84 84 00 00 00    	je     804991f <handle_token_lparen+0x3e1>
test/unit/artifacts/cpp/modifiedFunctionsDetector/indent-2.2.9/indent.c:492
 804989b:	a1 fc ac 05 08       	mov    0x805acfc,%eax
 80498a0:	8b 40 68             	mov    0x68(%eax),%eax
test/unit/artifacts/cpp/modifiedFunctionsDetector/indent-2.2.9/indent.c:490
 80498a3:	85 c0                	test   %eax,%eax
 80498a5:	74 78                	je     804991f <handle_token_lparen+0x3e1>
test/unit/artifacts/cpp/modifiedFunctionsDetector/indent-2.2.9/indent.c:493
 80498a7:	a1 fc ac 05 08       	mov    0x805acfc,%eax
 80498ac:	0f b6 40 64          	movzbl 0x64(%eax),%eax
test/unit/artifacts/cpp/modifiedFunctionsDetector/indent-2.2.9/indent.c:490
 80498b0:	84 c0                	test   %al,%al
 80498b2:	74 6b                	je     804991f <handle_token_lparen+0x3e1>
test/unit/artifacts/cpp/modifiedFunctionsDetector/indent-2.2.9/indent.c:494
 80498b4:	a1 fc ac 05 08       	mov    0x805acfc,%eax
 80498b9:	8b 80 84 00 00 00    	mov    0x84(%eax),%eax
test/unit/artifacts/cpp/modifiedFunctionsDetector/indent-2.2.9/indent.c:490
 80498bf:	83 f8 01             	cmp    $0x1,%eax
 80498c2:	75 5b                	jne    804991f <handle_token_lparen+0x3e1>
test/unit/artifacts/cpp/modifiedFunctionsDetector/indent-2.2.9/indent.c:496
 80498c4:	c7 44 24 04 e8 aa 05 	movl   $0x805aae8,0x4(%esp)
 80498cb:	08 
 80498cc:	c7 04 24 01 00 00 00 	movl   $0x1,(%esp)
 80498d3:	e8 5b a1 00 00       	call   8053a33 <dump_line>
test/unit/artifacts/cpp/modifiedFunctionsDetector/indent-2.2.9/indent.c:497
 80498d8:	8b 45 08             	mov    0x8(%ebp),%eax
 80498db:	c6 00 00             	movb   $0x0,(%eax)
test/unit/artifacts/cpp/modifiedFunctionsDetector/indent-2.2.9/indent.c:499
 80498de:	a1 fc ac 05 08       	mov    0x805acfc,%eax
 80498e3:	8b 90 84 00 00 00    	mov    0x84(%eax),%edx
 80498e9:	a1 a0 ab 05 08       	mov    0x805aba0,%eax
 80498ee:	0f af c2             	imul   %edx,%eax
 80498f1:	83 c0 01             	add    $0x1,%eax
 80498f4:	a3 e8 aa 05 08       	mov    %eax,0x805aae8
test/unit/artifacts/cpp/modifiedFunctionsDetector/indent-2.2.9/indent.c:500
 80498f9:	a1 fc ac 05 08       	mov    0x805acfc,%eax
 80498fe:	8b 90 88 00 00 00    	mov    0x88(%eax),%edx
 8049904:	a1 fc ac 05 08       	mov    0x805acfc,%eax
 8049909:	8b 40 7c             	mov    0x7c(%eax),%eax
 804990c:	83 e8 01             	sub    $0x1,%eax
 804990f:	01 c0                	add    %eax,%eax
 8049911:	8d 04 02             	lea    (%edx,%eax,1),%eax
 8049914:	8b 15 e8 aa 05 08    	mov    0x805aae8,%edx
 804991a:	f7 da                	neg    %edx
 804991c:	66 89 10             	mov    %dx,(%eax)
test/unit/artifacts/cpp/modifiedFunctionsDetector/indent-2.2.9/indent.c:503
 804991f:	a1 fc ac 05 08       	mov    0x805acfc,%eax
 8049924:	8b 80 a8 00 00 00    	mov    0xa8(%eax),%eax
 804992a:	85 c0                	test   %eax,%eax
 804992c:	74 29                	je     8049957 <handle_token_lparen+0x419>
test/unit/artifacts/cpp/modifiedFunctionsDetector/indent-2.2.9/indent.c:505
 804992e:	a1 fc ac 05 08       	mov    0x805acfc,%eax
 8049933:	8b 15 fc ac 05 08    	mov    0x805acfc,%edx
 8049939:	8b 5a 30             	mov    0x30(%edx),%ebx
 804993c:	8b 15 fc ac 05 08    	mov    0x805acfc,%edx
 8049942:	8b 52 7c             	mov    0x7c(%edx),%edx
 8049945:	be 01 00 00 00       	mov    $0x1,%esi
 804994a:	89 f7                	mov    %esi,%edi
 804994c:	89 d1                	mov    %edx,%ecx
 804994e:	d3 e7                	shl    %cl,%edi
 8049950:	89 fa                	mov    %edi,%edx
 8049952:	09 da                	or     %ebx,%edx
 8049954:	89 50 30             	mov    %edx,0x30(%eax)
test/unit/artifacts/cpp/modifiedFunctionsDetector/indent-2.2.9/indent.c:511
 8049957:	a1 fc ac 05 08       	mov    0x805acfc,%eax
 804995c:	8b 40 04             	mov    0x4(%eax),%eax
 804995f:	83 f8 18             	cmp    $0x18,%eax
 8049962:	74 1a                	je     804997e <handle_token_lparen+0x440>
test/unit/artifacts/cpp/modifiedFunctionsDetector/indent-2.2.9/indent.c:512
 8049964:	a1 fc ac 05 08       	mov    0x805acfc,%eax
 8049969:	8b 40 04             	mov    0x4(%eax),%eax
test/unit/artifacts/cpp/modifiedFunctionsDetector/indent-2.2.9/indent.c:511
 804996c:	83 f8 0f             	cmp    $0xf,%eax
 804996f:	75 38                	jne    80499a9 <handle_token_lparen+0x46b>
test/unit/artifacts/cpp/modifiedFunctionsDetector/indent-2.2.9/indent.c:513
 8049971:	a1 fc ac 05 08       	mov    0x805acfc,%eax
 8049976:	8b 40 14             	mov    0x14(%eax),%eax
test/unit/artifacts/cpp/modifiedFunctionsDetector/indent-2.2.9/indent.c:511
 8049979:	83 f8 0c             	cmp    $0xc,%eax
 804997c:	74 2b                	je     80499a9 <handle_token_lparen+0x46b>
test/unit/artifacts/cpp/modifiedFunctionsDetector/indent-2.2.9/indent.c:515
 804997e:	a1 fc ac 05 08       	mov    0x805acfc,%eax
 8049983:	8b 15 fc ac 05 08    	mov    0x805acfc,%edx
 8049989:	8b 5a 2c             	mov    0x2c(%edx),%ebx
test/unit/artifacts/cpp/modifiedFunctionsDetector/indent-2.2.9/indent.c:516
 804998c:	8b 15 fc ac 05 08    	mov    0x805acfc,%edx
 8049992:	8b 52 7c             	mov    0x7c(%edx),%edx
 8049995:	be 01 00 00 00       	mov    $0x1,%esi
 804999a:	89 f7                	mov    %esi,%edi
 804999c:	89 d1                	mov    %edx,%ecx
 804999e:	d3 e7                	shl    %cl,%edi
 80499a0:	89 fa                	mov    %edi,%edx
test/unit/artifacts/cpp/modifiedFunctionsDetector/indent-2.2.9/indent.c:515
 80499a2:	09 da                	or     %ebx,%edx
 80499a4:	89 50 2c             	mov    %edx,0x2c(%eax)
test/unit/artifacts/cpp/modifiedFunctionsDetector/indent-2.2.9/indent.c:511
 80499a7:	eb 2b                	jmp    80499d4 <handle_token_lparen+0x496>
test/unit/artifacts/cpp/modifiedFunctionsDetector/indent-2.2.9/indent.c:520
 80499a9:	a1 fc ac 05 08       	mov    0x805acfc,%eax
 80499ae:	8b 15 fc ac 05 08    	mov    0x805acfc,%edx
 80499b4:	8b 5a 2c             	mov    0x2c(%edx),%ebx
test/unit/artifacts/cpp/modifiedFunctionsDetector/indent-2.2.9/indent.c:521
 80499b7:	8b 15 fc ac 05 08    	mov    0x805acfc,%edx
 80499bd:	8b 52 7c             	mov    0x7c(%edx),%edx
 80499c0:	be 01 00 00 00       	mov    $0x1,%esi
 80499c5:	89 f7                	mov    %esi,%edi
 80499c7:	89 d1                	mov    %edx,%ecx
 80499c9:	d3 e7                	shl    %cl,%edi
 80499cb:	89 fa                	mov    %edi,%edx
 80499cd:	f7 d2                	not    %edx
test/unit/artifacts/cpp/modifiedFunctionsDetector/indent-2.2.9/indent.c:520
 80499cf:	21 da                	and    %ebx,%edx
 80499d1:	89 50 2c             	mov    %edx,0x2c(%eax)
test/unit/artifacts/cpp/modifiedFunctionsDetector/indent-2.2.9/indent.c:523
 80499d4:	83 c4 2c             	add    $0x2c,%esp
 80499d7:	5b                   	pop    %ebx
 80499d8:	5e                   	pop    %esi
 80499d9:	5f                   	pop    %edi
 80499da:	5d                   	pop    %ebp
 80499db:	c3                   	ret    

080499dc <handle_token_rparen>:
handle_token_rparen():
test/unit/artifacts/cpp/modifiedFunctionsDetector/indent-2.2.9/indent.c:532
 80499dc:	55                   	push   %ebp
 80499dd:	89 e5                	mov    %esp,%ebp
 80499df:	57                   	push   %edi
 80499e0:	56                   	push   %esi
 80499e1:	53                   	push   %ebx
 80499e2:	83 ec 2c             	sub    $0x2c,%esp
test/unit/artifacts/cpp/modifiedFunctionsDetector/indent-2.2.9/indent.c:534
 80499e5:	a1 fc ac 05 08       	mov    0x805acfc,%eax
 80499ea:	8b 90 84 00 00 00    	mov    0x84(%eax),%edx
 80499f0:	83 ea 01             	sub    $0x1,%edx
 80499f3:	89 90 84 00 00 00    	mov    %edx,0x84(%eax)
test/unit/artifacts/cpp/modifiedFunctionsDetector/indent-2.2.9/indent.c:540
 80499f9:	a1 74 ad 05 08       	mov    0x805ad74,%eax
 80499fe:	0f b6 00             	movzbl (%eax),%eax
 8049a01:	3c 29                	cmp    $0x29,%al
 8049a03:	0f 85 d8 00 00 00    	jne    8049ae1 <handle_token_rparen+0x105>
test/unit/artifacts/cpp/modifiedFunctionsDetector/indent-2.2.9/indent.c:541
 8049a09:	a1 78 ab 05 08       	mov    0x805ab78,%eax
test/unit/artifacts/cpp/modifiedFunctionsDetector/indent-2.2.9/indent.c:540
 8049a0e:	85 c0                	test   %eax,%eax
 8049a10:	0f 84 cb 00 00 00    	je     8049ae1 <handle_token_rparen+0x105>
test/unit/artifacts/cpp/modifiedFunctionsDetector/indent-2.2.9/indent.c:542
 8049a16:	a1 fc ac 05 08       	mov    0x805acfc,%eax
 8049a1b:	8b 40 4c             	mov    0x4c(%eax),%eax
test/unit/artifacts/cpp/modifiedFunctionsDetector/indent-2.2.9/indent.c:540
 8049a1e:	85 c0                	test   %eax,%eax
 8049a20:	0f 85 bb 00 00 00    	jne    8049ae1 <handle_token_rparen+0x105>
test/unit/artifacts/cpp/modifiedFunctionsDetector/indent-2.2.9/indent.c:543
 8049a26:	a1 fc ac 05 08       	mov    0x805acfc,%eax
 8049a2b:	8b 40 68             	mov    0x68(%eax),%eax
test/unit/artifacts/cpp/modifiedFunctionsDetector/indent-2.2.9/indent.c:540
 8049a2e:	85 c0                	test   %eax,%eax
 8049a30:	0f 84 ab 00 00 00    	je     8049ae1 <handle_token_rparen+0x105>
test/unit/artifacts/cpp/modifiedFunctionsDetector/indent-2.2.9/indent.c:544
 8049a36:	a1 fc ac 05 08       	mov    0x805acfc,%eax
 8049a3b:	0f b6 40 64          	movzbl 0x64(%eax),%eax
test/unit/artifacts/cpp/modifiedFunctionsDetector/indent-2.2.9/indent.c:540
 8049a3f:	84 c0                	test   %al,%al
 8049a41:	0f 84 9a 00 00 00    	je     8049ae1 <handle_token_rparen+0x105>
test/unit/artifacts/cpp/modifiedFunctionsDetector/indent-2.2.9/indent.c:545
 8049a47:	a1 fc ac 05 08       	mov    0x805acfc,%eax
 8049a4c:	8b 80 84 00 00 00    	mov    0x84(%eax),%eax
test/unit/artifacts/cpp/modifiedFunctionsDetector/indent-2.2.9/indent.c:540
 8049a52:	85 c0                	test   %eax,%eax
 8049a54:	0f 85 87 00 00 00    	jne    8049ae1 <handle_token_rparen+0x105>
test/unit/artifacts/cpp/modifiedFunctionsDetector/indent-2.2.9/indent.c:547
 8049a5a:	8b 15 80 aa 05 08    	mov    0x805aa80,%edx
 8049a60:	a1 84 aa 05 08       	mov    0x805aa84,%eax
 8049a65:	39 c2                	cmp    %eax,%edx
 8049a67:	75 1e                	jne    8049a87 <handle_token_rparen+0xab>
 8049a69:	8b 15 70 aa 05 08    	mov    0x805aa70,%edx
 8049a6f:	a1 74 aa 05 08       	mov    0x805aa74,%eax
 8049a74:	39 c2                	cmp    %eax,%edx
 8049a76:	75 0f                	jne    8049a87 <handle_token_rparen+0xab>
 8049a78:	8b 15 90 aa 05 08    	mov    0x805aa90,%edx
 8049a7e:	a1 94 aa 05 08       	mov    0x805aa94,%eax
 8049a83:	39 c2                	cmp    %eax,%edx
 8049a85:	74 14                	je     8049a9b <handle_token_rparen+0xbf>
test/unit/artifacts/cpp/modifiedFunctionsDetector/indent-2.2.9/indent.c:549
 8049a87:	c7 44 24 04 e8 aa 05 	movl   $0x805aae8,0x4(%esp)
 8049a8e:	08 
 8049a8f:	c7 04 24 01 00 00 00 	movl   $0x1,(%esp)
 8049a96:	e8 98 9f 00 00       	call   8053a33 <dump_line>
test/unit/artifacts/cpp/modifiedFunctionsDetector/indent-2.2.9/indent.c:552
 8049a9b:	a1 fc ac 05 08       	mov    0x805acfc,%eax
 8049aa0:	8b 90 84 00 00 00    	mov    0x84(%eax),%edx
 8049aa6:	a1 a0 ab 05 08       	mov    0x805aba0,%eax
 8049aab:	0f af c2             	imul   %edx,%eax
 8049aae:	a3 e8 aa 05 08       	mov    %eax,0x805aae8
test/unit/artifacts/cpp/modifiedFunctionsDetector/indent-2.2.9/indent.c:553
 8049ab3:	a1 fc ac 05 08       	mov    0x805acfc,%eax
 8049ab8:	8b 90 88 00 00 00    	mov    0x88(%eax),%edx
 8049abe:	a1 fc ac 05 08       	mov    0x805acfc,%eax
 8049ac3:	8b 40 7c             	mov    0x7c(%eax),%eax
 8049ac6:	83 e8 01             	sub    $0x1,%eax
 8049ac9:	01 c0                	add    %eax,%eax
 8049acb:	01 c2                	add    %eax,%edx
 8049acd:	a1 e8 aa 05 08       	mov    0x805aae8,%eax
 8049ad2:	66 89 02             	mov    %ax,(%edx)
test/unit/artifacts/cpp/modifiedFunctionsDetector/indent-2.2.9/indent.c:554
 8049ad5:	a1 fc ac 05 08       	mov    0x805acfc,%eax
 8049ada:	c7 40 74 00 00 00 00 	movl   $0x0,0x74(%eax)
test/unit/artifacts/cpp/modifiedFunctionsDetector/indent-2.2.9/indent.c:558
 8049ae1:	a1 fc ac 05 08       	mov    0x805acfc,%eax
test/unit/artifacts/cpp/modifiedFunctionsDetector/indent-2.2.9/indent.c:560
 8049ae6:	8b 50 28             	mov    0x28(%eax),%edx
test/unit/artifacts/cpp/modifiedFunctionsDetector/indent-2.2.9/indent.c:559
 8049ae9:	a1 fc ac 05 08       	mov    0x805acfc,%eax
 8049aee:	8b 40 7c             	mov    0x7c(%eax),%eax
 8049af1:	bb 01 00 00 00       	mov    $0x1,%ebx
 8049af6:	89 de                	mov    %ebx,%esi
 8049af8:	89 c1                	mov    %eax,%ecx
 8049afa:	d3 e6                	shl    %cl,%esi
 8049afc:	89 f0                	mov    %esi,%eax
test/unit/artifacts/cpp/modifiedFunctionsDetector/indent-2.2.9/indent.c:560
 8049afe:	21 c2                	and    %eax,%edx
 8049b00:	a1 fc ac 05 08       	mov    0x805acfc,%eax
 8049b05:	8b 40 30             	mov    0x30(%eax),%eax
 8049b08:	f7 d0                	not    %eax
test/unit/artifacts/cpp/modifiedFunctionsDetector/indent-2.2.9/indent.c:558
 8049b0a:	21 d0                	and    %edx,%eax
 8049b0c:	85 c0                	test   %eax,%eax
 8049b0e:	74 7f                	je     8049b8f <handle_token_rparen+0x1b3>
test/unit/artifacts/cpp/modifiedFunctionsDetector/indent-2.2.9/indent.c:562
 8049b10:	a1 fc ac 05 08       	mov    0x805acfc,%eax
 8049b15:	c7 40 78 01 00 00 00 	movl   $0x1,0x78(%eax)
test/unit/artifacts/cpp/modifiedFunctionsDetector/indent-2.2.9/indent.c:563
 8049b1c:	a1 fc ac 05 08       	mov    0x805acfc,%eax
 8049b21:	8b 15 fc ac 05 08    	mov    0x805acfc,%edx
 8049b27:	8b 5a 28             	mov    0x28(%edx),%ebx
test/unit/artifacts/cpp/modifiedFunctionsDetector/indent-2.2.9/indent.c:564
 8049b2a:	8b 15 fc ac 05 08    	mov    0x805acfc,%edx
 8049b30:	8b 52 7c             	mov    0x7c(%edx),%edx
 8049b33:	be 01 00 00 00       	mov    $0x1,%esi
 8049b38:	89 f7                	mov    %esi,%edi
 8049b3a:	89 d1                	mov    %edx,%ecx
 8049b3c:	d3 e7                	shl    %cl,%edi
 8049b3e:	89 fa                	mov    %edi,%edx
 8049b40:	83 ea 01             	sub    $0x1,%edx
test/unit/artifacts/cpp/modifiedFunctionsDetector/indent-2.2.9/indent.c:563
 8049b43:	21 da                	and    %ebx,%edx
 8049b45:	89 50 28             	mov    %edx,0x28(%eax)
test/unit/artifacts/cpp/modifiedFunctionsDetector/indent-2.2.9/indent.c:565
 8049b48:	a1 fc ac 05 08       	mov    0x805acfc,%eax
 8049b4d:	8b 40 28             	mov    0x28(%eax),%eax
 8049b50:	85 c0                	test   %eax,%eax
 8049b52:	75 1b                	jne    8049b6f <handle_token_rparen+0x193>
 8049b54:	a1 60 ab 05 08       	mov    0x805ab60,%eax
 8049b59:	85 c0                	test   %eax,%eax
 8049b5b:	74 12                	je     8049b6f <handle_token_rparen+0x193>
test/unit/artifacts/cpp/modifiedFunctionsDetector/indent-2.2.9/indent.c:567
 8049b5d:	a1 fc ac 05 08       	mov    0x805acfc,%eax
 8049b62:	c7 80 9c 00 00 00 01 	movl   $0x1,0x9c(%eax)
 8049b69:	00 00 00 
test/unit/artifacts/cpp/modifiedFunctionsDetector/indent-2.2.9/indent.c:565
 8049b6c:	90                   	nop
 8049b6d:	eb 57                	jmp    8049bc6 <handle_token_rparen+0x1ea>
test/unit/artifacts/cpp/modifiedFunctionsDetector/indent-2.2.9/indent.c:571
 8049b6f:	a1 fc ac 05 08       	mov    0x805acfc,%eax
 8049b74:	c7 80 9c 00 00 00 00 	movl   $0x0,0x9c(%eax)
 8049b7b:	00 00 00 
test/unit/artifacts/cpp/modifiedFunctionsDetector/indent-2.2.9/indent.c:572
 8049b7e:	a1 fc ac 05 08       	mov    0x805acfc,%eax
 8049b83:	c7 80 a0 00 00 00 1c 	movl   $0x1c,0xa0(%eax)
 8049b8a:	00 00 00 
 8049b8d:	eb 37                	jmp    8049bc6 <handle_token_rparen+0x1ea>
test/unit/artifacts/cpp/modifiedFunctionsDetector/indent-2.2.9/indent.c:575
 8049b8f:	a1 fc ac 05 08       	mov    0x805acfc,%eax
 8049b94:	0f b6 40 64          	movzbl 0x64(%eax),%eax
 8049b98:	84 c0                	test   %al,%al
 8049b9a:	74 2a                	je     8049bc6 <handle_token_rparen+0x1ea>
test/unit/artifacts/cpp/modifiedFunctionsDetector/indent-2.2.9/indent.c:576
 8049b9c:	a1 fc ac 05 08       	mov    0x805acfc,%eax
 8049ba1:	8b 40 34             	mov    0x34(%eax),%eax
test/unit/artifacts/cpp/modifiedFunctionsDetector/indent-2.2.9/indent.c:575
 8049ba4:	85 c0                	test   %eax,%eax
 8049ba6:	75 1e                	jne    8049bc6 <handle_token_rparen+0x1ea>
test/unit/artifacts/cpp/modifiedFunctionsDetector/indent-2.2.9/indent.c:577
 8049ba8:	a1 fc ac 05 08       	mov    0x805acfc,%eax
 8049bad:	8b 80 84 00 00 00    	mov    0x84(%eax),%eax
test/unit/artifacts/cpp/modifiedFunctionsDetector/indent-2.2.9/indent.c:575
 8049bb3:	85 c0                	test   %eax,%eax
 8049bb5:	75 0f                	jne    8049bc6 <handle_token_rparen+0x1ea>
test/unit/artifacts/cpp/modifiedFunctionsDetector/indent-2.2.9/indent.c:579
 8049bb7:	a1 fc ac 05 08       	mov    0x805acfc,%eax
 8049bbc:	c7 80 9c 00 00 00 01 	movl   $0x1,0x9c(%eax)
 8049bc3:	00 00 00 
test/unit/artifacts/cpp/modifiedFunctionsDetector/indent-2.2.9/indent.c:582
 8049bc6:	a1 fc ac 05 08       	mov    0x805acfc,%eax
 8049bcb:	8b 15 fc ac 05 08    	mov    0x805acfc,%edx
 8049bd1:	8b 5a 30             	mov    0x30(%edx),%ebx
test/unit/artifacts/cpp/modifiedFunctionsDetector/indent-2.2.9/indent.c:583
 8049bd4:	8b 15 fc ac 05 08    	mov    0x805acfc,%edx
 8049bda:	8b 52 7c             	mov    0x7c(%edx),%edx
 8049bdd:	be 01 00 00 00       	mov    $0x1,%esi
 8049be2:	89 f7                	mov    %esi,%edi
 8049be4:	89 d1                	mov    %edx,%ecx
 8049be6:	d3 e7                	shl    %cl,%edi
 8049be8:	89 fa                	mov    %edi,%edx
 8049bea:	83 ea 01             	sub    $0x1,%edx
test/unit/artifacts/cpp/modifiedFunctionsDetector/indent-2.2.9/indent.c:582
 8049bed:	21 da                	and    %ebx,%edx
 8049bef:	89 50 30             	mov    %edx,0x30(%eax)
test/unit/artifacts/cpp/modifiedFunctionsDetector/indent-2.2.9/indent.c:585
 8049bf2:	a1 fc ac 05 08       	mov    0x805acfc,%eax
 8049bf7:	8b 50 7c             	mov    0x7c(%eax),%edx
 8049bfa:	83 ea 01             	sub    $0x1,%edx
 8049bfd:	89 50 7c             	mov    %edx,0x7c(%eax)
 8049c00:	8b 40 7c             	mov    0x7c(%eax),%eax
 8049c03:	85 c0                	test   %eax,%eax
 8049c05:	79 4b                	jns    8049c52 <handle_token_rparen+0x276>
test/unit/artifacts/cpp/modifiedFunctionsDetector/indent-2.2.9/indent.c:587
 8049c07:	a1 fc ac 05 08       	mov    0x805acfc,%eax
 8049c0c:	c7 40 7c 00 00 00 00 	movl   $0x0,0x7c(%eax)
test/unit/artifacts/cpp/modifiedFunctionsDetector/indent-2.2.9/indent.c:588
 8049c13:	a1 74 ad 05 08       	mov    0x805ad74,%eax
 8049c18:	0f b6 00             	movzbl (%eax),%eax
 8049c1b:	0f b6 c0             	movzbl %al,%eax
 8049c1e:	89 c6                	mov    %eax,%esi
 8049c20:	c7 04 24 eb 50 05 08 	movl   $0x80550eb,(%esp)
 8049c27:	e8 78 ef ff ff       	call   8048ba4 <gettext@plt>
 8049c2c:	89 c3                	mov    %eax,%ebx
 8049c2e:	c7 04 24 f4 50 05 08 	movl   $0x80550f4,(%esp)
 8049c35:	e8 6a ef ff ff       	call   8048ba4 <gettext@plt>
 8049c3a:	c7 44 24 0c 00 00 00 	movl   $0x0,0xc(%esp)
 8049c41:	00 
 8049c42:	89 74 24 08          	mov    %esi,0x8(%esp)
 8049c46:	89 5c 24 04          	mov    %ebx,0x4(%esp)
 8049c4a:	89 04 24             	mov    %eax,(%esp)
 8049c4d:	e8 d9 88 00 00       	call   805252b <message>
test/unit/artifacts/cpp/modifiedFunctionsDetector/indent-2.2.9/indent.c:594
 8049c52:	8b 15 84 aa 05 08    	mov    0x805aa84,%edx
 8049c58:	a1 80 aa 05 08       	mov    0x805aa80,%eax
 8049c5d:	39 c2                	cmp    %eax,%edx
 8049c5f:	75 4b                	jne    8049cac <handle_token_rparen+0x2d0>
test/unit/artifacts/cpp/modifiedFunctionsDetector/indent-2.2.9/indent.c:596
 8049c61:	a1 fc ac 05 08       	mov    0x805acfc,%eax
 8049c66:	8b 40 7c             	mov    0x7c(%eax),%eax
 8049c69:	89 45 e4             	mov    %eax,-0x1c(%ebp)
test/unit/artifacts/cpp/modifiedFunctionsDetector/indent-2.2.9/indent.c:598
 8049c6c:	a1 fc ac 05 08       	mov    0x805acfc,%eax
 8049c71:	8b 55 e4             	mov    -0x1c(%ebp),%edx
 8049c74:	89 90 80 00 00 00    	mov    %edx,0x80(%eax)
test/unit/artifacts/cpp/modifiedFunctionsDetector/indent-2.2.9/indent.c:599
 8049c7a:	83 7d e4 00          	cmpl   $0x0,-0x1c(%ebp)
 8049c7e:	7e 22                	jle    8049ca2 <handle_token_rparen+0x2c6>
test/unit/artifacts/cpp/modifiedFunctionsDetector/indent-2.2.9/indent.c:601
 8049c80:	a1 fc ac 05 08       	mov    0x805acfc,%eax
 8049c85:	8b 80 88 00 00 00    	mov    0x88(%eax),%eax
 8049c8b:	8b 55 e4             	mov    -0x1c(%ebp),%edx
 8049c8e:	83 ea 01             	sub    $0x1,%edx
 8049c91:	01 d2                	add    %edx,%edx
 8049c93:	01 d0                	add    %edx,%eax
 8049c95:	0f b7 00             	movzwl (%eax),%eax
 8049c98:	98                   	cwtl   
 8049c99:	f7 d8                	neg    %eax
 8049c9b:	a3 e8 aa 05 08       	mov    %eax,0x805aae8
 8049ca0:	eb 0a                	jmp    8049cac <handle_token_rparen+0x2d0>
test/unit/artifacts/cpp/modifiedFunctionsDetector/indent-2.2.9/indent.c:605
 8049ca2:	c7 05 e8 aa 05 08 00 	movl   $0x0,0x805aae8
 8049ca9:	00 00 00 
test/unit/artifacts/cpp/modifiedFunctionsDetector/indent-2.2.9/indent.c:609
 8049cac:	a1 30 ab 05 08       	mov    0x805ab30,%eax
 8049cb1:	85 c0                	test   %eax,%eax
 8049cb3:	74 1c                	je     8049cd1 <handle_token_rparen+0x2f5>
 8049cb5:	a1 74 ad 05 08       	mov    0x805ad74,%eax
 8049cba:	0f b6 00             	movzbl (%eax),%eax
 8049cbd:	3c 5d                	cmp    $0x5d,%al
 8049cbf:	74 10                	je     8049cd1 <handle_token_rparen+0x2f5>
test/unit/artifacts/cpp/modifiedFunctionsDetector/indent-2.2.9/indent.c:611
 8049cc1:	a1 84 aa 05 08       	mov    0x805aa84,%eax
 8049cc6:	c6 00 20             	movb   $0x20,(%eax)
 8049cc9:	83 c0 01             	add    $0x1,%eax
 8049ccc:	a3 84 aa 05 08       	mov    %eax,0x805aa84
test/unit/artifacts/cpp/modifiedFunctionsDetector/indent-2.2.9/indent.c:614
 8049cd1:	a1 84 aa 05 08       	mov    0x805aa84,%eax
 8049cd6:	8b 15 74 ad 05 08    	mov    0x805ad74,%edx
 8049cdc:	0f b6 12             	movzbl (%edx),%edx
 8049cdf:	88 10                	mov    %dl,(%eax)
 8049ce1:	83 c0 01             	add    $0x1,%eax
 8049ce4:	a3 84 aa 05 08       	mov    %eax,0x805aa84
test/unit/artifacts/cpp/modifiedFunctionsDetector/indent-2.2.9/indent.c:618
 8049ce9:	8b 45 0c             	mov    0xc(%ebp),%eax
 8049cec:	0f b6 00             	movzbl (%eax),%eax
 8049cef:	84 c0                	test   %al,%al
 8049cf1:	74 6d                	je     8049d60 <handle_token_rparen+0x384>
 8049cf3:	a1 fc ac 05 08       	mov    0x805acfc,%eax
 8049cf8:	8b 40 7c             	mov    0x7c(%eax),%eax
 8049cfb:	85 c0                	test   %eax,%eax
 8049cfd:	75 61                	jne    8049d60 <handle_token_rparen+0x384>
test/unit/artifacts/cpp/modifiedFunctionsDetector/indent-2.2.9/indent.c:626
 8049cff:	a1 fc ac 05 08       	mov    0x805acfc,%eax
 8049d04:	8b 50 08             	mov    0x8(%eax),%edx
 8049d07:	a1 fc ac 05 08       	mov    0x805acfc,%eax
 8049d0c:	8b 40 20             	mov    0x20(%eax),%eax
 8049d0f:	c1 e0 02             	shl    $0x2,%eax
 8049d12:	8d 04 02             	lea    (%edx,%eax,1),%eax
 8049d15:	8b 00                	mov    (%eax),%eax
 8049d17:	83 f8 24             	cmp    $0x24,%eax
 8049d1a:	74 06                	je     8049d22 <handle_token_rparen+0x346>
test/unit/artifacts/cpp/modifiedFunctionsDetector/indent-2.2.9/indent.c:628
 8049d1c:	8b 45 14             	mov    0x14(%ebp),%eax
 8049d1f:	c6 00 02             	movb   $0x2,(%eax)
test/unit/artifacts/cpp/modifiedFunctionsDetector/indent-2.2.9/indent.c:631
 8049d22:	8b 45 0c             	mov    0xc(%ebp),%eax
 8049d25:	c6 00 00             	movb   $0x0,(%eax)
test/unit/artifacts/cpp/modifiedFunctionsDetector/indent-2.2.9/indent.c:632
 8049d28:	8b 45 08             	mov    0x8(%ebp),%eax
 8049d2b:	c6 00 01             	movb   $0x1,(%eax)
test/unit/artifacts/cpp/modifiedFunctionsDetector/indent-2.2.9/indent.c:633
 8049d2e:	a1 fc ac 05 08       	mov    0x805acfc,%eax
 8049d33:	c7 40 78 01 00 00 00 	movl   $0x1,0x78(%eax)
test/unit/artifacts/cpp/modifiedFunctionsDetector/indent-2.2.9/indent.c:636
 8049d3a:	a1 fc ac 05 08       	mov    0x805acfc,%eax
 8049d3f:	c7 40 68 00 00 00 00 	movl   $0x0,0x68(%eax)
test/unit/artifacts/cpp/modifiedFunctionsDetector/indent-2.2.9/indent.c:640
 8049d46:	8b 45 10             	mov    0x10(%ebp),%eax
 8049d49:	8b 00                	mov    (%eax),%eax
 8049d4b:	89 04 24             	mov    %eax,(%esp)
 8049d4e:	e8 a8 7b 00 00       	call   80518fb <parse>
 8049d53:	85 c0                	test   %eax,%eax
 8049d55:	74 09                	je     8049d60 <handle_token_rparen+0x384>
test/unit/artifacts/cpp/modifiedFunctionsDetector/indent-2.2.9/indent.c:642
 8049d57:	8b 45 18             	mov    0x18(%ebp),%eax
 8049d5a:	c7 00 02 00 00 00    	movl   $0x2,(%eax)
test/unit/artifacts/cpp/modifiedFunctionsDetector/indent-2.2.9/indent.c:650
 8049d60:	a1 fc ac 05 08       	mov    0x805acfc,%eax
 8049d65:	8b 15 d4 ab 05 08    	mov    0x805abd4,%edx
 8049d6b:	89 90 94 00 00 00    	mov    %edx,0x94(%eax)
test/unit/artifacts/cpp/modifiedFunctionsDetector/indent-2.2.9/indent.c:651
 8049d71:	83 c4 2c             	add    $0x2c,%esp
 8049d74:	5b                   	pop    %ebx
 8049d75:	5e                   	pop    %esi
 8049d76:	5f                   	pop    %edi
 8049d77:	5d                   	pop    %ebp
 8049d78:	c3                   	ret    

08049d79 <handle_token_unary_op>:
handle_token_unary_op():
test/unit/artifacts/cpp/modifiedFunctionsDetector/indent-2.2.9/indent.c:657
 8049d79:	55                   	push   %ebp
 8049d7a:	89 e5                	mov    %esp,%ebp
 8049d7c:	56                   	push   %esi
 8049d7d:	53                   	push   %ebx
 8049d7e:	83 ec 20             	sub    $0x20,%esp
test/unit/artifacts/cpp/modifiedFunctionsDetector/indent-2.2.9/indent.c:660
 8049d81:	a1 fc ac 05 08       	mov    0x805acfc,%eax
 8049d86:	8b 80 9c 00 00 00    	mov    0x9c(%eax),%eax
 8049d8c:	85 c0                	test   %eax,%eax
 8049d8e:	74 2f                	je     8049dbf <handle_token_unary_op+0x46>
test/unit/artifacts/cpp/modifiedFunctionsDetector/indent-2.2.9/indent.c:662
 8049d90:	a1 e8 aa 05 08       	mov    0x805aae8,%eax
 8049d95:	89 44 24 04          	mov    %eax,0x4(%esp)
 8049d99:	c7 04 24 06 00 00 00 	movl   $0x6,(%esp)
 8049da0:	e8 e5 93 00 00       	call   805318a <set_buf_break>
test/unit/artifacts/cpp/modifiedFunctionsDetector/indent-2.2.9/indent.c:663
 8049da5:	a1 84 aa 05 08       	mov    0x805aa84,%eax
 8049daa:	c6 00 20             	movb   $0x20,(%eax)
 8049dad:	83 c0 01             	add    $0x1,%eax
 8049db0:	a3 84 aa 05 08       	mov    %eax,0x805aa84
test/unit/artifacts/cpp/modifiedFunctionsDetector/indent-2.2.9/indent.c:664
 8049db5:	a1 84 aa 05 08       	mov    0x805aa84,%eax
 8049dba:	c6 00 00             	movb   $0x0,(%eax)
 8049dbd:	eb 1a                	jmp    8049dd9 <handle_token_unary_op+0x60>
test/unit/artifacts/cpp/modifiedFunctionsDetector/indent-2.2.9/indent.c:666
 8049dbf:	83 7d 0c 00          	cmpl   $0x0,0xc(%ebp)
 8049dc3:	74 14                	je     8049dd9 <handle_token_unary_op+0x60>
test/unit/artifacts/cpp/modifiedFunctionsDetector/indent-2.2.9/indent.c:668
 8049dc5:	a1 e8 aa 05 08       	mov    0x805aae8,%eax
 8049dca:	89 44 24 04          	mov    %eax,0x4(%esp)
 8049dce:	8b 45 0c             	mov    0xc(%ebp),%eax
 8049dd1:	89 04 24             	mov    %eax,(%esp)
 8049dd4:	e8 b1 93 00 00       	call   805318a <set_buf_break>
test/unit/artifacts/cpp/modifiedFunctionsDetector/indent-2.2.9/indent.c:672
 8049dd9:	a1 74 ad 05 08       	mov    0x805ad74,%eax
 8049dde:	89 45 f0             	mov    %eax,-0x10(%ebp)
test/unit/artifacts/cpp/modifiedFunctionsDetector/indent-2.2.9/indent.c:673
 8049de1:	a1 78 ad 05 08       	mov    0x805ad78,%eax
 8049de6:	89 45 ec             	mov    %eax,-0x14(%ebp)
test/unit/artifacts/cpp/modifiedFunctionsDetector/indent-2.2.9/indent.c:678
 8049de9:	a1 fc ac 05 08       	mov    0x805acfc,%eax
 8049dee:	8b 80 84 00 00 00    	mov    0x84(%eax),%eax
 8049df4:	85 c0                	test   %eax,%eax
 8049df6:	0f 85 89 00 00 00    	jne    8049e85 <handle_token_unary_op+0x10c>
test/unit/artifacts/cpp/modifiedFunctionsDetector/indent-2.2.9/indent.c:679
 8049dfc:	a1 fc ac 05 08       	mov    0x805acfc,%eax
 8049e01:	0f b6 40 64          	movzbl 0x64(%eax),%eax
test/unit/artifacts/cpp/modifiedFunctionsDetector/indent-2.2.9/indent.c:678
 8049e05:	84 c0                	test   %al,%al
 8049e07:	74 7c                	je     8049e85 <handle_token_unary_op+0x10c>
test/unit/artifacts/cpp/modifiedFunctionsDetector/indent-2.2.9/indent.c:679
 8049e09:	a1 40 ad 05 08       	mov    0x805ad40,%eax
test/unit/artifacts/cpp/modifiedFunctionsDetector/indent-2.2.9/indent.c:678
 8049e0e:	85 c0                	test   %eax,%eax
 8049e10:	75 73                	jne    8049e85 <handle_token_unary_op+0x10c>
test/unit/artifacts/cpp/modifiedFunctionsDetector/indent-2.2.9/indent.c:680
 8049e12:	a1 fc ac 05 08       	mov    0x805acfc,%eax
 8049e17:	8b 40 34             	mov    0x34(%eax),%eax
test/unit/artifacts/cpp/modifiedFunctionsDetector/indent-2.2.9/indent.c:678
 8049e1a:	85 c0                	test   %eax,%eax
 8049e1c:	75 67                	jne    8049e85 <handle_token_unary_op+0x10c>
test/unit/artifacts/cpp/modifiedFunctionsDetector/indent-2.2.9/indent.c:682
 8049e1e:	eb 2a                	jmp    8049e4a <handle_token_unary_op+0xd1>
test/unit/artifacts/cpp/modifiedFunctionsDetector/indent-2.2.9/indent.c:684
 8049e20:	e8 3f f0 ff ff       	call   8048e64 <check_code_size>
test/unit/artifacts/cpp/modifiedFunctionsDetector/indent-2.2.9/indent.c:685
 8049e25:	a1 e8 aa 05 08       	mov    0x805aae8,%eax
 8049e2a:	89 44 24 04          	mov    %eax,0x4(%esp)
 8049e2e:	c7 04 24 05 00 00 00 	movl   $0x5,(%esp)
 8049e35:	e8 50 93 00 00       	call   805318a <set_buf_break>
test/unit/artifacts/cpp/modifiedFunctionsDetector/indent-2.2.9/indent.c:686
 8049e3a:	a1 84 aa 05 08       	mov    0x805aa84,%eax
 8049e3f:	c6 00 20             	movb   $0x20,(%eax)
 8049e42:	83 c0 01             	add    $0x1,%eax
 8049e45:	a3 84 aa 05 08       	mov    %eax,0x805aa84
test/unit/artifacts/cpp/modifiedFunctionsDetector/indent-2.2.9/indent.c:682
 8049e4a:	a1 84 aa 05 08       	mov    0x805aa84,%eax
 8049e4f:	89 c2                	mov    %eax,%edx
 8049e51:	a1 80 aa 05 08       	mov    0x805aa80,%eax
 8049e56:	89 d3                	mov    %edx,%ebx
 8049e58:	29 c3                	sub    %eax,%ebx
 8049e5a:	8b 45 08             	mov    0x8(%ebp),%eax
 8049e5d:	8b 00                	mov    (%eax),%eax
 8049e5f:	8b 15 74 ad 05 08    	mov    0x805ad74,%edx
 8049e65:	89 d1                	mov    %edx,%ecx
 8049e67:	8b 15 78 ad 05 08    	mov    0x805ad78,%edx
 8049e6d:	89 ce                	mov    %ecx,%esi
 8049e6f:	29 d6                	sub    %edx,%esi
 8049e71:	89 f2                	mov    %esi,%edx
 8049e73:	01 d0                	add    %edx,%eax
 8049e75:	39 c3                	cmp    %eax,%ebx
 8049e77:	7c a7                	jl     8049e20 <handle_token_unary_op+0xa7>
test/unit/artifacts/cpp/modifiedFunctionsDetector/indent-2.2.9/indent.c:689
 8049e79:	a1 fc ac 05 08       	mov    0x805acfc,%eax
 8049e7e:	c7 40 74 00 00 00 00 	movl   $0x0,0x74(%eax)
test/unit/artifacts/cpp/modifiedFunctionsDetector/indent-2.2.9/indent.c:692
 8049e85:	8b 45 f0             	mov    -0x10(%ebp),%eax
 8049e88:	89 45 f4             	mov    %eax,-0xc(%ebp)
 8049e8b:	eb 1e                	jmp    8049eab <handle_token_unary_op+0x132>
test/unit/artifacts/cpp/modifiedFunctionsDetector/indent-2.2.9/indent.c:694
 8049e8d:	e8 d2 ef ff ff       	call   8048e64 <check_code_size>
test/unit/artifacts/cpp/modifiedFunctionsDetector/indent-2.2.9/indent.c:695
 8049e92:	a1 84 aa 05 08       	mov    0x805aa84,%eax
 8049e97:	8b 55 f4             	mov    -0xc(%ebp),%edx
 8049e9a:	0f b6 12             	movzbl (%edx),%edx
 8049e9d:	88 10                	mov    %dl,(%eax)
 8049e9f:	83 c0 01             	add    $0x1,%eax
 8049ea2:	a3 84 aa 05 08       	mov    %eax,0x805aa84
test/unit/artifacts/cpp/modifiedFunctionsDetector/indent-2.2.9/indent.c:692
 8049ea7:	83 45 f4 01          	addl   $0x1,-0xc(%ebp)
 8049eab:	8b 45 f4             	mov    -0xc(%ebp),%eax
 8049eae:	3b 45 ec             	cmp    -0x14(%ebp),%eax
 8049eb1:	72 da                	jb     8049e8d <handle_token_unary_op+0x114>
test/unit/artifacts/cpp/modifiedFunctionsDetector/indent-2.2.9/indent.c:698
 8049eb3:	a1 84 aa 05 08       	mov    0x805aa84,%eax
 8049eb8:	c6 00 00             	movb   $0x0,(%eax)
test/unit/artifacts/cpp/modifiedFunctionsDetector/indent-2.2.9/indent.c:701
 8049ebb:	a1 fc ac 05 08       	mov    0x805acfc,%eax
 8049ec0:	c7 80 9c 00 00 00 00 	movl   $0x0,0x9c(%eax)
 8049ec7:	00 00 00 
test/unit/artifacts/cpp/modifiedFunctionsDetector/indent-2.2.9/indent.c:702
 8049eca:	83 c4 20             	add    $0x20,%esp
 8049ecd:	5b                   	pop    %ebx
 8049ece:	5e                   	pop    %esi
 8049ecf:	5d                   	pop    %ebp
 8049ed0:	c3                   	ret    

08049ed1 <handle_token_binary_op>:
handle_token_binary_op():
test/unit/artifacts/cpp/modifiedFunctionsDetector/indent-2.2.9/indent.c:706
 8049ed1:	55                   	push   %ebp
 8049ed2:	89 e5                	mov    %esp,%ebp
 8049ed4:	83 ec 28             	sub    $0x28,%esp
test/unit/artifacts/cpp/modifiedFunctionsDetector/indent-2.2.9/indent.c:709
 8049ed7:	a1 fc ac 05 08       	mov    0x805acfc,%eax
test/unit/artifacts/cpp/modifiedFunctionsDetector/indent-2.2.9/indent.c:710
 8049edc:	8b 80 9c 00 00 00    	mov    0x9c(%eax),%eax
test/unit/artifacts/cpp/modifiedFunctionsDetector/indent-2.2.9/indent.c:709
 8049ee2:	85 c0                	test   %eax,%eax
 8049ee4:	75 1b                	jne    8049f01 <handle_token_binary_op+0x30>
test/unit/artifacts/cpp/modifiedFunctionsDetector/indent-2.2.9/indent.c:710
 8049ee6:	8b 15 84 aa 05 08    	mov    0x805aa84,%edx
 8049eec:	a1 80 aa 05 08       	mov    0x805aa80,%eax
test/unit/artifacts/cpp/modifiedFunctionsDetector/indent-2.2.9/indent.c:709
 8049ef1:	39 c2                	cmp    %eax,%edx
 8049ef3:	76 3b                	jbe    8049f30 <handle_token_binary_op+0x5f>
test/unit/artifacts/cpp/modifiedFunctionsDetector/indent-2.2.9/indent.c:710
 8049ef5:	a1 84 aa 05 08       	mov    0x805aa84,%eax
 8049efa:	0f b6 00             	movzbl (%eax),%eax
test/unit/artifacts/cpp/modifiedFunctionsDetector/indent-2.2.9/indent.c:709
 8049efd:	3c 20                	cmp    $0x20,%al
 8049eff:	74 2f                	je     8049f30 <handle_token_binary_op+0x5f>
test/unit/artifacts/cpp/modifiedFunctionsDetector/indent-2.2.9/indent.c:712
 8049f01:	a1 e8 aa 05 08       	mov    0x805aae8,%eax
 8049f06:	89 44 24 04          	mov    %eax,0x4(%esp)
 8049f0a:	c7 04 24 07 00 00 00 	movl   $0x7,(%esp)
 8049f11:	e8 74 92 00 00       	call   805318a <set_buf_break>
test/unit/artifacts/cpp/modifiedFunctionsDetector/indent-2.2.9/indent.c:713
 8049f16:	a1 84 aa 05 08       	mov    0x805aa84,%eax
 8049f1b:	c6 00 20             	movb   $0x20,(%eax)
 8049f1e:	83 c0 01             	add    $0x1,%eax
 8049f21:	a3 84 aa 05 08       	mov    %eax,0x805aa84
test/unit/artifacts/cpp/modifiedFunctionsDetector/indent-2.2.9/indent.c:714
 8049f26:	a1 84 aa 05 08       	mov    0x805aa84,%eax
 8049f2b:	c6 00 00             	movb   $0x0,(%eax)
test/unit/artifacts/cpp/modifiedFunctionsDetector/indent-2.2.9/indent.c:709
 8049f2e:	eb 1a                	jmp    8049f4a <handle_token_binary_op+0x79>
test/unit/artifacts/cpp/modifiedFunctionsDetector/indent-2.2.9/indent.c:716
 8049f30:	83 7d 08 00          	cmpl   $0x0,0x8(%ebp)
 8049f34:	74 14                	je     8049f4a <handle_token_binary_op+0x79>
test/unit/artifacts/cpp/modifiedFunctionsDetector/indent-2.2.9/indent.c:718
 8049f36:	a1 e8 aa 05 08       	mov    0x805aae8,%eax
 8049f3b:	89 44 24 04          	mov    %eax,0x4(%esp)
 8049f3f:	8b 45 08             	mov    0x8(%ebp),%eax
 8049f42:	89 04 24             	mov    %eax,(%esp)
 8049f45:	e8 40 92 00 00       	call   805318a <set_buf_break>
test/unit/artifacts/cpp/modifiedFunctionsDetector/indent-2.2.9/indent.c:722
 8049f4a:	a1 74 ad 05 08       	mov    0x805ad74,%eax
 8049f4f:	89 45 f0             	mov    %eax,-0x10(%ebp)
test/unit/artifacts/cpp/modifiedFunctionsDetector/indent-2.2.9/indent.c:723
 8049f52:	a1 78 ad 05 08       	mov    0x805ad78,%eax
 8049f57:	89 45 ec             	mov    %eax,-0x14(%ebp)
test/unit/artifacts/cpp/modifiedFunctionsDetector/indent-2.2.9/indent.c:725
 8049f5a:	8b 45 f0             	mov    -0x10(%ebp),%eax
 8049f5d:	89 45 f4             	mov    %eax,-0xc(%ebp)
 8049f60:	eb 1e                	jmp    8049f80 <handle_token_binary_op+0xaf>
test/unit/artifacts/cpp/modifiedFunctionsDetector/indent-2.2.9/indent.c:727
 8049f62:	e8 fd ee ff ff       	call   8048e64 <check_code_size>
test/unit/artifacts/cpp/modifiedFunctionsDetector/indent-2.2.9/indent.c:728
 8049f67:	a1 84 aa 05 08       	mov    0x805aa84,%eax
 8049f6c:	8b 55 f4             	mov    -0xc(%ebp),%edx
 8049f6f:	0f b6 12             	movzbl (%edx),%edx
 8049f72:	88 10                	mov    %dl,(%eax)
 8049f74:	83 c0 01             	add    $0x1,%eax
 8049f77:	a3 84 aa 05 08       	mov    %eax,0x805aa84
test/unit/artifacts/cpp/modifiedFunctionsDetector/indent-2.2.9/indent.c:725
 8049f7c:	83 45 f4 01          	addl   $0x1,-0xc(%ebp)
 8049f80:	8b 45 f4             	mov    -0xc(%ebp),%eax
 8049f83:	3b 45 ec             	cmp    -0x14(%ebp),%eax
 8049f86:	72 da                	jb     8049f62 <handle_token_binary_op+0x91>
test/unit/artifacts/cpp/modifiedFunctionsDetector/indent-2.2.9/indent.c:733
 8049f88:	a1 74 ad 05 08       	mov    0x805ad74,%eax
 8049f8d:	0f b6 00             	movzbl (%eax),%eax
 8049f90:	3c 3d                	cmp    $0x3d,%al
 8049f92:	75 09                	jne    8049f9d <handle_token_binary_op+0xcc>
test/unit/artifacts/cpp/modifiedFunctionsDetector/indent-2.2.9/indent.c:735
 8049f94:	a1 fc ac 05 08       	mov    0x805acfc,%eax
 8049f99:	c6 40 64 00          	movb   $0x0,0x64(%eax)
test/unit/artifacts/cpp/modifiedFunctionsDetector/indent-2.2.9/indent.c:740
 8049f9d:	a1 fc ac 05 08       	mov    0x805acfc,%eax
 8049fa2:	c7 80 9c 00 00 00 01 	movl   $0x1,0x9c(%eax)
 8049fa9:	00 00 00 
test/unit/artifacts/cpp/modifiedFunctionsDetector/indent-2.2.9/indent.c:741
 8049fac:	c9                   	leave  
 8049fad:	c3                   	ret    

08049fae <handle_token_postop>:
handle_token_postop():
test/unit/artifacts/cpp/modifiedFunctionsDetector/indent-2.2.9/indent.c:744
 8049fae:	55                   	push   %ebp
 8049faf:	89 e5                	mov    %esp,%ebp
test/unit/artifacts/cpp/modifiedFunctionsDetector/indent-2.2.9/indent.c:745
 8049fb1:	a1 84 aa 05 08       	mov    0x805aa84,%eax
 8049fb6:	8b 15 74 ad 05 08    	mov    0x805ad74,%edx
 8049fbc:	0f b6 12             	movzbl (%edx),%edx
 8049fbf:	88 10                	mov    %dl,(%eax)
 8049fc1:	83 c0 01             	add    $0x1,%eax
 8049fc4:	a3 84 aa 05 08       	mov    %eax,0x805aa84
test/unit/artifacts/cpp/modifiedFunctionsDetector/indent-2.2.9/indent.c:746
 8049fc9:	a1 84 aa 05 08       	mov    0x805aa84,%eax
 8049fce:	8b 15 74 ad 05 08    	mov    0x805ad74,%edx
 8049fd4:	83 c2 01             	add    $0x1,%edx
 8049fd7:	0f b6 12             	movzbl (%edx),%edx
 8049fda:	88 10                	mov    %dl,(%eax)
 8049fdc:	83 c0 01             	add    $0x1,%eax
 8049fdf:	a3 84 aa 05 08       	mov    %eax,0x805aa84
test/unit/artifacts/cpp/modifiedFunctionsDetector/indent-2.2.9/indent.c:747
 8049fe4:	a1 fc ac 05 08       	mov    0x805acfc,%eax
 8049fe9:	c7 80 9c 00 00 00 01 	movl   $0x1,0x9c(%eax)
 8049ff0:	00 00 00 
test/unit/artifacts/cpp/modifiedFunctionsDetector/indent-2.2.9/indent.c:748
 8049ff3:	5d                   	pop    %ebp
 8049ff4:	c3                   	ret    

08049ff5 <handle_token_question>:
handle_token_question():
test/unit/artifacts/cpp/modifiedFunctionsDetector/indent-2.2.9/indent.c:753
 8049ff5:	55                   	push   %ebp
 8049ff6:	89 e5                	mov    %esp,%ebp
 8049ff8:	83 ec 18             	sub    $0x18,%esp
test/unit/artifacts/cpp/modifiedFunctionsDetector/indent-2.2.9/indent.c:754
 8049ffb:	a1 d8 aa 05 08       	mov    0x805aad8,%eax
 804a000:	83 c0 01             	add    $0x1,%eax
 804a003:	a3 d8 aa 05 08       	mov    %eax,0x805aad8
test/unit/artifacts/cpp/modifiedFunctionsDetector/indent-2.2.9/indent.c:758
 804a008:	a1 fc ac 05 08       	mov    0x805acfc,%eax
 804a00d:	8b 80 9c 00 00 00    	mov    0x9c(%eax),%eax
 804a013:	85 c0                	test   %eax,%eax
 804a015:	74 27                	je     804a03e <handle_token_question+0x49>
test/unit/artifacts/cpp/modifiedFunctionsDetector/indent-2.2.9/indent.c:760
 804a017:	a1 e8 aa 05 08       	mov    0x805aae8,%eax
 804a01c:	89 44 24 04          	mov    %eax,0x4(%esp)
 804a020:	c7 04 24 0c 00 00 00 	movl   $0xc,(%esp)
 804a027:	e8 5e 91 00 00       	call   805318a <set_buf_break>
test/unit/artifacts/cpp/modifiedFunctionsDetector/indent-2.2.9/indent.c:761
 804a02c:	a1 84 aa 05 08       	mov    0x805aa84,%eax
 804a031:	c6 00 20             	movb   $0x20,(%eax)
 804a034:	83 c0 01             	add    $0x1,%eax
 804a037:	a3 84 aa 05 08       	mov    %eax,0x805aa84
 804a03c:	eb 1a                	jmp    804a058 <handle_token_question+0x63>
test/unit/artifacts/cpp/modifiedFunctionsDetector/indent-2.2.9/indent.c:763
 804a03e:	83 7d 08 00          	cmpl   $0x0,0x8(%ebp)
 804a042:	74 14                	je     804a058 <handle_token_question+0x63>
test/unit/artifacts/cpp/modifiedFunctionsDetector/indent-2.2.9/indent.c:765
 804a044:	a1 e8 aa 05 08       	mov    0x805aae8,%eax
 804a049:	89 44 24 04          	mov    %eax,0x4(%esp)
 804a04d:	8b 45 08             	mov    0x8(%ebp),%eax
 804a050:	89 04 24             	mov    %eax,(%esp)
 804a053:	e8 32 91 00 00       	call   805318a <set_buf_break>
test/unit/artifacts/cpp/modifiedFunctionsDetector/indent-2.2.9/indent.c:768
 804a058:	a1 84 aa 05 08       	mov    0x805aa84,%eax
 804a05d:	c6 00 3f             	movb   $0x3f,(%eax)
 804a060:	83 c0 01             	add    $0x1,%eax
 804a063:	a3 84 aa 05 08       	mov    %eax,0x805aa84
test/unit/artifacts/cpp/modifiedFunctionsDetector/indent-2.2.9/indent.c:769
 804a068:	a1 fc ac 05 08       	mov    0x805acfc,%eax
 804a06d:	c7 80 9c 00 00 00 01 	movl   $0x1,0x9c(%eax)
 804a074:	00 00 00 
test/unit/artifacts/cpp/modifiedFunctionsDetector/indent-2.2.9/indent.c:770
 804a077:	a1 84 aa 05 08       	mov    0x805aa84,%eax
 804a07c:	c6 00 00             	movb   $0x0,(%eax)
test/unit/artifacts/cpp/modifiedFunctionsDetector/indent-2.2.9/indent.c:771
 804a07f:	c9                   	leave  
 804a080:	c3                   	ret    

0804a081 <handle_token_casestmt>:
handle_token_casestmt():
test/unit/artifacts/cpp/modifiedFunctionsDetector/indent-2.2.9/indent.c:777
 804a081:	55                   	push   %ebp
 804a082:	89 e5                	mov    %esp,%ebp
 804a084:	83 ec 18             	sub    $0x18,%esp
test/unit/artifacts/cpp/modifiedFunctionsDetector/indent-2.2.9/indent.c:778
 804a087:	8b 45 08             	mov    0x8(%ebp),%eax
 804a08a:	c6 00 01             	movb   $0x1,(%eax)
test/unit/artifacts/cpp/modifiedFunctionsDetector/indent-2.2.9/indent.c:782
 804a08d:	c7 04 24 09 00 00 00 	movl   $0x9,(%esp)
 804a094:	e8 62 78 00 00       	call   80518fb <parse>
 804a099:	85 c0                	test   %eax,%eax
 804a09b:	74 09                	je     804a0a6 <handle_token_casestmt+0x25>
test/unit/artifacts/cpp/modifiedFunctionsDetector/indent-2.2.9/indent.c:784
 804a09d:	8b 45 0c             	mov    0xc(%ebp),%eax
 804a0a0:	c7 00 02 00 00 00    	movl   $0x2,(%eax)
test/unit/artifacts/cpp/modifiedFunctionsDetector/indent-2.2.9/indent.c:788
 804a0a6:	c9                   	leave  
 804a0a7:	c3                   	ret    

0804a0a8 <handle_token_colon>:
handle_token_colon():
test/unit/artifacts/cpp/modifiedFunctionsDetector/indent-2.2.9/indent.c:796
 804a0a8:	55                   	push   %ebp
 804a0a9:	89 e5                	mov    %esp,%ebp
 804a0ab:	83 ec 28             	sub    $0x28,%esp
test/unit/artifacts/cpp/modifiedFunctionsDetector/indent-2.2.9/indent.c:799
 804a0ae:	a1 d8 aa 05 08       	mov    0x805aad8,%eax
 804a0b3:	85 c0                	test   %eax,%eax
 804a0b5:	0f 8e 89 00 00 00    	jle    804a144 <handle_token_colon+0x9c>
test/unit/artifacts/cpp/modifiedFunctionsDetector/indent-2.2.9/indent.c:803
 804a0bb:	a1 d8 aa 05 08       	mov    0x805aad8,%eax
 804a0c0:	83 e8 01             	sub    $0x1,%eax
 804a0c3:	a3 d8 aa 05 08       	mov    %eax,0x805aad8
test/unit/artifacts/cpp/modifiedFunctionsDetector/indent-2.2.9/indent.c:804
 804a0c8:	a1 fc ac 05 08       	mov    0x805acfc,%eax
 804a0cd:	8b 80 9c 00 00 00    	mov    0x9c(%eax),%eax
 804a0d3:	85 c0                	test   %eax,%eax
 804a0d5:	74 27                	je     804a0fe <handle_token_colon+0x56>
test/unit/artifacts/cpp/modifiedFunctionsDetector/indent-2.2.9/indent.c:806
 804a0d7:	a1 e8 aa 05 08       	mov    0x805aae8,%eax
 804a0dc:	89 44 24 04          	mov    %eax,0x4(%esp)
 804a0e0:	c7 04 24 0d 00 00 00 	movl   $0xd,(%esp)
 804a0e7:	e8 9e 90 00 00       	call   805318a <set_buf_break>
test/unit/artifacts/cpp/modifiedFunctionsDetector/indent-2.2.9/indent.c:807
 804a0ec:	a1 84 aa 05 08       	mov    0x805aa84,%eax
 804a0f1:	c6 00 20             	movb   $0x20,(%eax)
 804a0f4:	83 c0 01             	add    $0x1,%eax
 804a0f7:	a3 84 aa 05 08       	mov    %eax,0x805aa84
 804a0fc:	eb 1a                	jmp    804a118 <handle_token_colon+0x70>
test/unit/artifacts/cpp/modifiedFunctionsDetector/indent-2.2.9/indent.c:809
 804a0fe:	83 7d 14 00          	cmpl   $0x0,0x14(%ebp)
 804a102:	74 14                	je     804a118 <handle_token_colon+0x70>
test/unit/artifacts/cpp/modifiedFunctionsDetector/indent-2.2.9/indent.c:811
 804a104:	a1 e8 aa 05 08       	mov    0x805aae8,%eax
 804a109:	89 44 24 04          	mov    %eax,0x4(%esp)
 804a10d:	8b 45 14             	mov    0x14(%ebp),%eax
 804a110:	89 04 24             	mov    %eax,(%esp)
 804a113:	e8 72 90 00 00       	call   805318a <set_buf_break>
test/unit/artifacts/cpp/modifiedFunctionsDetector/indent-2.2.9/indent.c:814
 804a118:	a1 84 aa 05 08       	mov    0x805aa84,%eax
 804a11d:	c6 00 3a             	movb   $0x3a,(%eax)
 804a120:	83 c0 01             	add    $0x1,%eax
 804a123:	a3 84 aa 05 08       	mov    %eax,0x805aa84
test/unit/artifacts/cpp/modifiedFunctionsDetector/indent-2.2.9/indent.c:815
 804a128:	a1 84 aa 05 08       	mov    0x805aa84,%eax
 804a12d:	c6 00 00             	movb   $0x0,(%eax)
test/unit/artifacts/cpp/modifiedFunctionsDetector/indent-2.2.9/indent.c:816
 804a130:	a1 fc ac 05 08       	mov    0x805acfc,%eax
 804a135:	c7 80 9c 00 00 00 01 	movl   $0x1,0x9c(%eax)
 804a13c:	00 00 00 
 804a13f:	e9 7c 02 00 00       	jmp    804a3c0 <handle_token_colon+0x318>
test/unit/artifacts/cpp/modifiedFunctionsDetector/indent-2.2.9/indent.c:833
 804a144:	a1 fc ac 05 08       	mov    0x805acfc,%eax
 804a149:	0f b6 40 64          	movzbl 0x64(%eax),%eax
 804a14d:	84 c0                	test   %al,%al
 804a14f:	0f 84 b0 01 00 00    	je     804a305 <handle_token_colon+0x25d>
test/unit/artifacts/cpp/modifiedFunctionsDetector/indent-2.2.9/indent.c:835
 804a155:	a1 84 aa 05 08       	mov    0x805aa84,%eax
 804a15a:	89 c2                	mov    %eax,%edx
 804a15c:	a1 80 aa 05 08       	mov    0x805aa80,%eax
 804a161:	89 d1                	mov    %edx,%ecx
 804a163:	29 c1                	sub    %eax,%ecx
 804a165:	89 c8                	mov    %ecx,%eax
 804a167:	83 f8 06             	cmp    $0x6,%eax
 804a16a:	7e 4e                	jle    804a1ba <handle_token_colon+0x112>
 804a16c:	a1 04 ad 05 08       	mov    0x805ad04,%eax
 804a171:	83 e8 08             	sub    $0x8,%eax
 804a174:	c7 44 24 08 08 00 00 	movl   $0x8,0x8(%esp)
 804a17b:	00 
 804a17c:	c7 44 24 04 fc 50 05 	movl   $0x80550fc,0x4(%esp)
 804a183:	08 
 804a184:	89 04 24             	mov    %eax,(%esp)
 804a187:	e8 c8 eb ff ff       	call   8048d54 <strncmp@plt>
 804a18c:	85 c0                	test   %eax,%eax
 804a18e:	75 2a                	jne    804a1ba <handle_token_colon+0x112>
test/unit/artifacts/cpp/modifiedFunctionsDetector/indent-2.2.9/indent.c:837
 804a190:	e8 5f ea ff ff       	call   8048bf4 <__ctype_b_loc@plt>
 804a195:	8b 10                	mov    (%eax),%edx
 804a197:	a1 04 ad 05 08       	mov    0x805ad04,%eax
 804a19c:	0f b6 00             	movzbl (%eax),%eax
 804a19f:	0f be c0             	movsbl %al,%eax
 804a1a2:	01 c0                	add    %eax,%eax
 804a1a4:	8d 04 02             	lea    (%edx,%eax,1),%eax
 804a1a7:	0f b7 00             	movzwl (%eax),%eax
 804a1aa:	0f b7 c0             	movzwl %ax,%eax
 804a1ad:	25 00 08 00 00       	and    $0x800,%eax
test/unit/artifacts/cpp/modifiedFunctionsDetector/indent-2.2.9/indent.c:835
 804a1b2:	85 c0                	test   %eax,%eax
 804a1b4:	0f 84 ea 00 00 00    	je     804a2a4 <handle_token_colon+0x1fc>
test/unit/artifacts/cpp/modifiedFunctionsDetector/indent-2.2.9/indent.c:838
 804a1ba:	a1 84 aa 05 08       	mov    0x805aa84,%eax
 804a1bf:	89 c2                	mov    %eax,%edx
 804a1c1:	a1 80 aa 05 08       	mov    0x805aa80,%eax
 804a1c6:	89 d1                	mov    %edx,%ecx
 804a1c8:	29 c1                	sub    %eax,%ecx
 804a1ca:	89 c8                	mov    %ecx,%eax
test/unit/artifacts/cpp/modifiedFunctionsDetector/indent-2.2.9/indent.c:835
 804a1cc:	83 f8 08             	cmp    $0x8,%eax
 804a1cf:	7e 4e                	jle    804a21f <handle_token_colon+0x177>
 804a1d1:	a1 04 ad 05 08       	mov    0x805ad04,%eax
 804a1d6:	83 e8 0a             	sub    $0xa,%eax
 804a1d9:	c7 44 24 08 0a 00 00 	movl   $0xa,0x8(%esp)
 804a1e0:	00 
 804a1e1:	c7 44 24 04 05 51 05 	movl   $0x8055105,0x4(%esp)
 804a1e8:	08 
 804a1e9:	89 04 24             	mov    %eax,(%esp)
 804a1ec:	e8 63 eb ff ff       	call   8048d54 <strncmp@plt>
 804a1f1:	85 c0                	test   %eax,%eax
 804a1f3:	75 2a                	jne    804a21f <handle_token_colon+0x177>
test/unit/artifacts/cpp/modifiedFunctionsDetector/indent-2.2.9/indent.c:840
 804a1f5:	e8 fa e9 ff ff       	call   8048bf4 <__ctype_b_loc@plt>
 804a1fa:	8b 10                	mov    (%eax),%edx
 804a1fc:	a1 04 ad 05 08       	mov    0x805ad04,%eax
 804a201:	0f b6 00             	movzbl (%eax),%eax
 804a204:	0f be c0             	movsbl %al,%eax
 804a207:	01 c0                	add    %eax,%eax
 804a209:	8d 04 02             	lea    (%edx,%eax,1),%eax
 804a20c:	0f b7 00             	movzwl (%eax),%eax
 804a20f:	0f b7 c0             	movzwl %ax,%eax
 804a212:	25 00 08 00 00       	and    $0x800,%eax
test/unit/artifacts/cpp/modifiedFunctionsDetector/indent-2.2.9/indent.c:835
 804a217:	85 c0                	test   %eax,%eax
 804a219:	0f 84 85 00 00 00    	je     804a2a4 <handle_token_colon+0x1fc>
test/unit/artifacts/cpp/modifiedFunctionsDetector/indent-2.2.9/indent.c:841
 804a21f:	a1 84 aa 05 08       	mov    0x805aa84,%eax
 804a224:	89 c2                	mov    %eax,%edx
 804a226:	a1 80 aa 05 08       	mov    0x805aa80,%eax
 804a22b:	89 d1                	mov    %edx,%ecx
 804a22d:	29 c1                	sub    %eax,%ecx
 804a22f:	89 c8                	mov    %ecx,%eax
test/unit/artifacts/cpp/modifiedFunctionsDetector/indent-2.2.9/indent.c:835
 804a231:	83 f8 05             	cmp    $0x5,%eax
 804a234:	7e 4a                	jle    804a280 <handle_token_colon+0x1d8>
 804a236:	a1 04 ad 05 08       	mov    0x805ad04,%eax
 804a23b:	83 e8 07             	sub    $0x7,%eax
 804a23e:	c7 44 24 08 07 00 00 	movl   $0x7,0x8(%esp)
 804a245:	00 
 804a246:	c7 44 24 04 10 51 05 	movl   $0x8055110,0x4(%esp)
 804a24d:	08 
 804a24e:	89 04 24             	mov    %eax,(%esp)
 804a251:	e8 fe ea ff ff       	call   8048d54 <strncmp@plt>
 804a256:	85 c0                	test   %eax,%eax
 804a258:	75 26                	jne    804a280 <handle_token_colon+0x1d8>
test/unit/artifacts/cpp/modifiedFunctionsDetector/indent-2.2.9/indent.c:843
 804a25a:	e8 95 e9 ff ff       	call   8048bf4 <__ctype_b_loc@plt>
 804a25f:	8b 10                	mov    (%eax),%edx
 804a261:	a1 04 ad 05 08       	mov    0x805ad04,%eax
 804a266:	0f b6 00             	movzbl (%eax),%eax
 804a269:	0f be c0             	movsbl %al,%eax
 804a26c:	01 c0                	add    %eax,%eax
 804a26e:	8d 04 02             	lea    (%edx,%eax,1),%eax
 804a271:	0f b7 00             	movzwl (%eax),%eax
 804a274:	0f b7 c0             	movzwl %ax,%eax
 804a277:	25 00 08 00 00       	and    $0x800,%eax
test/unit/artifacts/cpp/modifiedFunctionsDetector/indent-2.2.9/indent.c:835
 804a27c:	85 c0                	test   %eax,%eax
 804a27e:	74 24                	je     804a2a4 <handle_token_colon+0x1fc>
test/unit/artifacts/cpp/modifiedFunctionsDetector/indent-2.2.9/indent.c:845
 804a280:	a1 84 aa 05 08       	mov    0x805aa84,%eax
 804a285:	c6 00 3a             	movb   $0x3a,(%eax)
 804a288:	83 c0 01             	add    $0x1,%eax
 804a28b:	a3 84 aa 05 08       	mov    %eax,0x805aa84
test/unit/artifacts/cpp/modifiedFunctionsDetector/indent-2.2.9/indent.c:846
 804a290:	a1 fc ac 05 08       	mov    0x805acfc,%eax
 804a295:	c7 80 9c 00 00 00 00 	movl   $0x0,0x9c(%eax)
 804a29c:	00 00 00 
test/unit/artifacts/cpp/modifiedFunctionsDetector/indent-2.2.9/indent.c:847
 804a29f:	e9 1c 01 00 00       	jmp    804a3c0 <handle_token_colon+0x318>
test/unit/artifacts/cpp/modifiedFunctionsDetector/indent-2.2.9/indent.c:849
 804a2a4:	a1 80 aa 05 08       	mov    0x805aa80,%eax
 804a2a9:	0f b6 00             	movzbl (%eax),%eax
 804a2ac:	3c 20                	cmp    $0x20,%al
 804a2ae:	75 55                	jne    804a305 <handle_token_colon+0x25d>
test/unit/artifacts/cpp/modifiedFunctionsDetector/indent-2.2.9/indent.c:861
 804a2b0:	a1 80 aa 05 08       	mov    0x805aa80,%eax
 804a2b5:	89 45 f0             	mov    %eax,-0x10(%ebp)
test/unit/artifacts/cpp/modifiedFunctionsDetector/indent-2.2.9/indent.c:862
 804a2b8:	8b 15 80 aa 05 08    	mov    0x805aa80,%edx
 804a2be:	8b 45 10             	mov    0x10(%ebp),%eax
 804a2c1:	8b 00                	mov    (%eax),%eax
 804a2c3:	8d 04 02             	lea    (%edx,%eax,1),%eax
 804a2c6:	89 45 ec             	mov    %eax,-0x14(%ebp)
test/unit/artifacts/cpp/modifiedFunctionsDetector/indent-2.2.9/indent.c:864
 804a2c9:	eb 13                	jmp    804a2de <handle_token_colon+0x236>
test/unit/artifacts/cpp/modifiedFunctionsDetector/indent-2.2.9/indent.c:866
 804a2cb:	8b 45 ec             	mov    -0x14(%ebp),%eax
 804a2ce:	0f b6 10             	movzbl (%eax),%edx
 804a2d1:	8b 45 f0             	mov    -0x10(%ebp),%eax
 804a2d4:	88 10                	mov    %dl,(%eax)
 804a2d6:	83 45 f0 01          	addl   $0x1,-0x10(%ebp)
 804a2da:	83 45 ec 01          	addl   $0x1,-0x14(%ebp)
test/unit/artifacts/cpp/modifiedFunctionsDetector/indent-2.2.9/indent.c:864
 804a2de:	a1 84 aa 05 08       	mov    0x805aa84,%eax
 804a2e3:	39 45 ec             	cmp    %eax,-0x14(%ebp)
 804a2e6:	72 e3                	jb     804a2cb <handle_token_colon+0x223>
test/unit/artifacts/cpp/modifiedFunctionsDetector/indent-2.2.9/indent.c:869
 804a2e8:	8b 15 84 aa 05 08    	mov    0x805aa84,%edx
 804a2ee:	8b 45 10             	mov    0x10(%ebp),%eax
 804a2f1:	8b 00                	mov    (%eax),%eax
 804a2f3:	f7 d8                	neg    %eax
 804a2f5:	8d 04 02             	lea    (%edx,%eax,1),%eax
 804a2f8:	a3 84 aa 05 08       	mov    %eax,0x805aa84
test/unit/artifacts/cpp/modifiedFunctionsDetector/indent-2.2.9/indent.c:870
 804a2fd:	a1 84 aa 05 08       	mov    0x805aa84,%eax
 804a302:	c6 00 00             	movb   $0x0,(%eax)
test/unit/artifacts/cpp/modifiedFunctionsDetector/indent-2.2.9/indent.c:874
 804a305:	a1 fc ac 05 08       	mov    0x805acfc,%eax
 804a30a:	c7 40 68 00 00 00 00 	movl   $0x0,0x68(%eax)
test/unit/artifacts/cpp/modifiedFunctionsDetector/indent-2.2.9/indent.c:876
 804a311:	a1 80 aa 05 08       	mov    0x805aa80,%eax
 804a316:	89 45 f4             	mov    %eax,-0xc(%ebp)
 804a319:	eb 19                	jmp    804a334 <handle_token_colon+0x28c>
test/unit/artifacts/cpp/modifiedFunctionsDetector/indent-2.2.9/indent.c:878
 804a31b:	a1 74 aa 05 08       	mov    0x805aa74,%eax
 804a320:	8b 55 f4             	mov    -0xc(%ebp),%edx
 804a323:	0f b6 12             	movzbl (%edx),%edx
 804a326:	88 10                	mov    %dl,(%eax)
 804a328:	83 c0 01             	add    $0x1,%eax
 804a32b:	a3 74 aa 05 08       	mov    %eax,0x805aa74
test/unit/artifacts/cpp/modifiedFunctionsDetector/indent-2.2.9/indent.c:876
 804a330:	83 45 f4 01          	addl   $0x1,-0xc(%ebp)
 804a334:	8b 45 f4             	mov    -0xc(%ebp),%eax
 804a337:	0f b6 00             	movzbl (%eax),%eax
 804a33a:	84 c0                	test   %al,%al
 804a33c:	75 dd                	jne    804a31b <handle_token_colon+0x273>
test/unit/artifacts/cpp/modifiedFunctionsDetector/indent-2.2.9/indent.c:881
 804a33e:	a1 80 aa 05 08       	mov    0x805aa80,%eax
 804a343:	a3 84 aa 05 08       	mov    %eax,0x805aa84
test/unit/artifacts/cpp/modifiedFunctionsDetector/indent-2.2.9/indent.c:882
 804a348:	e8 32 94 00 00       	call   805377f <clear_buf_break_list>
test/unit/artifacts/cpp/modifiedFunctionsDetector/indent-2.2.9/indent.c:887
 804a34d:	a1 74 aa 05 08       	mov    0x805aa74,%eax
 804a352:	c6 00 3a             	movb   $0x3a,(%eax)
 804a355:	83 c0 01             	add    $0x1,%eax
 804a358:	a3 74 aa 05 08       	mov    %eax,0x805aa74
test/unit/artifacts/cpp/modifiedFunctionsDetector/indent-2.2.9/indent.c:888
 804a35d:	a1 e8 aa 05 08       	mov    0x805aae8,%eax
 804a362:	89 44 24 04          	mov    %eax,0x4(%esp)
 804a366:	c7 04 24 0e 00 00 00 	movl   $0xe,(%esp)
 804a36d:	e8 18 8e 00 00       	call   805318a <set_buf_break>
test/unit/artifacts/cpp/modifiedFunctionsDetector/indent-2.2.9/indent.c:889
 804a372:	a1 74 aa 05 08       	mov    0x805aa74,%eax
 804a377:	c6 00 20             	movb   $0x20,(%eax)
 804a37a:	83 c0 01             	add    $0x1,%eax
 804a37d:	a3 74 aa 05 08       	mov    %eax,0x805aa74
test/unit/artifacts/cpp/modifiedFunctionsDetector/indent-2.2.9/indent.c:890
 804a382:	a1 74 aa 05 08       	mov    0x805aa74,%eax
 804a387:	c6 00 00             	movb   $0x0,(%eax)
test/unit/artifacts/cpp/modifiedFunctionsDetector/indent-2.2.9/indent.c:896
 804a38a:	a1 fc ac 05 08       	mov    0x805acfc,%eax
 804a38f:	8b 55 08             	mov    0x8(%ebp),%edx
 804a392:	0f b6 12             	movzbl (%edx),%edx
 804a395:	0f b6 d2             	movzbl %dl,%edx
 804a398:	89 90 90 00 00 00    	mov    %edx,0x90(%eax)
 804a39e:	8b 80 90 00 00 00    	mov    0x90(%eax),%eax
 804a3a4:	89 c2                	mov    %eax,%edx
 804a3a6:	8b 45 0c             	mov    0xc(%ebp),%eax
 804a3a9:	88 10                	mov    %dl,(%eax)
test/unit/artifacts/cpp/modifiedFunctionsDetector/indent-2.2.9/indent.c:897
 804a3ab:	8b 45 08             	mov    0x8(%ebp),%eax
 804a3ae:	c6 00 00             	movb   $0x0,(%eax)
test/unit/artifacts/cpp/modifiedFunctionsDetector/indent-2.2.9/indent.c:898
 804a3b1:	a1 fc ac 05 08       	mov    0x805acfc,%eax
 804a3b6:	c7 80 9c 00 00 00 00 	movl   $0x0,0x9c(%eax)
 804a3bd:	00 00 00 
test/unit/artifacts/cpp/modifiedFunctionsDetector/indent-2.2.9/indent.c:900
 804a3c0:	c9                   	leave  
 804a3c1:	c3                   	ret    

0804a3c2 <handle_token_doublecolon>:
handle_token_doublecolon():
test/unit/artifacts/cpp/modifiedFunctionsDetector/indent-2.2.9/indent.c:904
 804a3c2:	55                   	push   %ebp
 804a3c3:	89 e5                	mov    %esp,%ebp
test/unit/artifacts/cpp/modifiedFunctionsDetector/indent-2.2.9/indent.c:905
 804a3c5:	a1 84 aa 05 08       	mov    0x805aa84,%eax
 804a3ca:	c6 00 3a             	movb   $0x3a,(%eax)
 804a3cd:	83 c0 01             	add    $0x1,%eax
 804a3d0:	a3 84 aa 05 08       	mov    %eax,0x805aa84
test/unit/artifacts/cpp/modifiedFunctionsDetector/indent-2.2.9/indent.c:906
 804a3d5:	a1 84 aa 05 08       	mov    0x805aa84,%eax
 804a3da:	c6 00 3a             	movb   $0x3a,(%eax)
 804a3dd:	83 c0 01             	add    $0x1,%eax
 804a3e0:	a3 84 aa 05 08       	mov    %eax,0x805aa84
test/unit/artifacts/cpp/modifiedFunctionsDetector/indent-2.2.9/indent.c:907
 804a3e5:	a1 fc ac 05 08       	mov    0x805acfc,%eax
 804a3ea:	c7 80 9c 00 00 00 00 	movl   $0x0,0x9c(%eax)
 804a3f1:	00 00 00 
test/unit/artifacts/cpp/modifiedFunctionsDetector/indent-2.2.9/indent.c:908
 804a3f4:	a1 fc ac 05 08       	mov    0x805acfc,%eax
 804a3f9:	c7 80 a0 00 00 00 1b 	movl   $0x1b,0xa0(%eax)
 804a400:	00 00 00 
test/unit/artifacts/cpp/modifiedFunctionsDetector/indent-2.2.9/indent.c:909
 804a403:	a1 fc ac 05 08       	mov    0x805acfc,%eax
 804a408:	c7 40 78 01 00 00 00 	movl   $0x1,0x78(%eax)
test/unit/artifacts/cpp/modifiedFunctionsDetector/indent-2.2.9/indent.c:910
 804a40f:	a1 fc ac 05 08       	mov    0x805acfc,%eax
 804a414:	c7 40 44 01 00 00 00 	movl   $0x1,0x44(%eax)
test/unit/artifacts/cpp/modifiedFunctionsDetector/indent-2.2.9/indent.c:911
 804a41b:	5d                   	pop    %ebp
 804a41c:	c3                   	ret    

0804a41d <handle_token_semicolon>:
handle_token_semicolon():
test/unit/artifacts/cpp/modifiedFunctionsDetector/indent-2.2.9/indent.c:921
 804a41d:	55                   	push   %ebp
 804a41e:	89 e5                	mov    %esp,%ebp
 804a420:	83 ec 18             	sub    $0x18,%esp
test/unit/artifacts/cpp/modifiedFunctionsDetector/indent-2.2.9/indent.c:922
 804a423:	a1 fc ac 05 08       	mov    0x805acfc,%eax
 804a428:	c7 40 4c 00 00 00 00 	movl   $0x0,0x4c(%eax)
test/unit/artifacts/cpp/modifiedFunctionsDetector/indent-2.2.9/indent.c:923
 804a42f:	a1 fc ac 05 08       	mov    0x805acfc,%eax
 804a434:	c7 40 44 00 00 00 00 	movl   $0x0,0x44(%eax)
test/unit/artifacts/cpp/modifiedFunctionsDetector/indent-2.2.9/indent.c:924
 804a43b:	8b 45 08             	mov    0x8(%ebp),%eax
 804a43e:	c6 00 00             	movb   $0x0,(%eax)
test/unit/artifacts/cpp/modifiedFunctionsDetector/indent-2.2.9/indent.c:925
 804a441:	c7 05 d8 aa 05 08 00 	movl   $0x0,0x805aad8
 804a448:	00 00 00 
test/unit/artifacts/cpp/modifiedFunctionsDetector/indent-2.2.9/indent.c:934
 804a44b:	a1 fc ac 05 08       	mov    0x805acfc,%eax
 804a450:	c7 40 28 00 00 00 00 	movl   $0x0,0x28(%eax)
test/unit/artifacts/cpp/modifiedFunctionsDetector/indent-2.2.9/indent.c:935
 804a457:	a1 fc ac 05 08       	mov    0x805acfc,%eax
 804a45c:	c7 40 30 00 00 00 00 	movl   $0x0,0x30(%eax)
test/unit/artifacts/cpp/modifiedFunctionsDetector/indent-2.2.9/indent.c:936
 804a463:	a1 fc ac 05 08       	mov    0x805acfc,%eax
 804a468:	c7 40 34 00 00 00 00 	movl   $0x0,0x34(%eax)
test/unit/artifacts/cpp/modifiedFunctionsDetector/indent-2.2.9/indent.c:937
 804a46f:	a1 fc ac 05 08       	mov    0x805acfc,%eax
 804a474:	c7 40 38 00 00 00 00 	movl   $0x0,0x38(%eax)
test/unit/artifacts/cpp/modifiedFunctionsDetector/indent-2.2.9/indent.c:938
 804a47b:	a1 fc ac 05 08       	mov    0x805acfc,%eax
 804a480:	8b 90 bc 00 00 00    	mov    0xbc(%eax),%edx
 804a486:	83 ea 01             	sub    $0x1,%edx
 804a489:	89 90 bc 00 00 00    	mov    %edx,0xbc(%eax)
test/unit/artifacts/cpp/modifiedFunctionsDetector/indent-2.2.9/indent.c:940
 804a48f:	a1 fc ac 05 08       	mov    0x805acfc,%eax
 804a494:	0f b6 40 64          	movzbl 0x64(%eax),%eax
 804a498:	84 c0                	test   %al,%al
 804a49a:	74 76                	je     804a512 <handle_token_semicolon+0xf5>
test/unit/artifacts/cpp/modifiedFunctionsDetector/indent-2.2.9/indent.c:941
 804a49c:	8b 15 80 aa 05 08    	mov    0x805aa80,%edx
 804a4a2:	a1 84 aa 05 08       	mov    0x805aa84,%eax
test/unit/artifacts/cpp/modifiedFunctionsDetector/indent-2.2.9/indent.c:940
 804a4a7:	39 c2                	cmp    %eax,%edx
 804a4a9:	75 67                	jne    804a512 <handle_token_semicolon+0xf5>
test/unit/artifacts/cpp/modifiedFunctionsDetector/indent-2.2.9/indent.c:941
 804a4ab:	a1 40 ad 05 08       	mov    0x805ad40,%eax
test/unit/artifacts/cpp/modifiedFunctionsDetector/indent-2.2.9/indent.c:940
 804a4b0:	85 c0                	test   %eax,%eax
 804a4b2:	75 5e                	jne    804a512 <handle_token_semicolon+0xf5>
test/unit/artifacts/cpp/modifiedFunctionsDetector/indent-2.2.9/indent.c:942
 804a4b4:	a1 fc ac 05 08       	mov    0x805acfc,%eax
 804a4b9:	8b 40 34             	mov    0x34(%eax),%eax
test/unit/artifacts/cpp/modifiedFunctionsDetector/indent-2.2.9/indent.c:940
 804a4bc:	85 c0                	test   %eax,%eax
 804a4be:	75 52                	jne    804a512 <handle_token_semicolon+0xf5>
test/unit/artifacts/cpp/modifiedFunctionsDetector/indent-2.2.9/indent.c:944
 804a4c0:	eb 2a                	jmp    804a4ec <handle_token_semicolon+0xcf>
test/unit/artifacts/cpp/modifiedFunctionsDetector/indent-2.2.9/indent.c:946
 804a4c2:	e8 9d e9 ff ff       	call   8048e64 <check_code_size>
test/unit/artifacts/cpp/modifiedFunctionsDetector/indent-2.2.9/indent.c:947
 804a4c7:	a1 e8 aa 05 08       	mov    0x805aae8,%eax
 804a4cc:	89 44 24 04          	mov    %eax,0x4(%esp)
 804a4d0:	c7 04 24 05 00 00 00 	movl   $0x5,(%esp)
 804a4d7:	e8 ae 8c 00 00       	call   805318a <set_buf_break>
test/unit/artifacts/cpp/modifiedFunctionsDetector/indent-2.2.9/indent.c:948
 804a4dc:	a1 84 aa 05 08       	mov    0x805aa84,%eax
 804a4e1:	c6 00 20             	movb   $0x20,(%eax)
 804a4e4:	83 c0 01             	add    $0x1,%eax
 804a4e7:	a3 84 aa 05 08       	mov    %eax,0x805aa84
test/unit/artifacts/cpp/modifiedFunctionsDetector/indent-2.2.9/indent.c:944
 804a4ec:	a1 84 aa 05 08       	mov    0x805aa84,%eax
 804a4f1:	89 c2                	mov    %eax,%edx
 804a4f3:	a1 80 aa 05 08       	mov    0x805aa80,%eax
 804a4f8:	29 c2                	sub    %eax,%edx
 804a4fa:	8b 45 14             	mov    0x14(%ebp),%eax
 804a4fd:	8b 00                	mov    (%eax),%eax
 804a4ff:	83 e8 01             	sub    $0x1,%eax
 804a502:	39 c2                	cmp    %eax,%edx
 804a504:	7c bc                	jl     804a4c2 <handle_token_semicolon+0xa5>
test/unit/artifacts/cpp/modifiedFunctionsDetector/indent-2.2.9/indent.c:951
 804a506:	a1 fc ac 05 08       	mov    0x805acfc,%eax
 804a50b:	c7 40 74 00 00 00 00 	movl   $0x0,0x74(%eax)
test/unit/artifacts/cpp/modifiedFunctionsDetector/indent-2.2.9/indent.c:954
 804a512:	a1 84 aa 05 08       	mov    0x805aa84,%eax
 804a517:	c6 00 00             	movb   $0x0,(%eax)
test/unit/artifacts/cpp/modifiedFunctionsDetector/indent-2.2.9/indent.c:959
 804a51a:	a1 fc ac 05 08       	mov    0x805acfc,%eax
 804a51f:	8b 15 fc ac 05 08    	mov    0x805acfc,%edx
 804a525:	8b 52 58             	mov    0x58(%edx),%edx
 804a528:	85 d2                	test   %edx,%edx
 804a52a:	0f 9f c2             	setg   %dl
 804a52d:	88 50 64             	mov    %dl,0x64(%eax)
test/unit/artifacts/cpp/modifiedFunctionsDetector/indent-2.2.9/indent.c:965
 804a530:	8b 45 18             	mov    0x18(%ebp),%eax
 804a533:	0f b6 00             	movzbl (%eax),%eax
 804a536:	84 c0                	test   %al,%al
 804a538:	74 19                	je     804a553 <handle_token_semicolon+0x136>
 804a53a:	a1 10 ab 05 08       	mov    0x805ab10,%eax
 804a53f:	85 c0                	test   %eax,%eax
 804a541:	74 10                	je     804a553 <handle_token_semicolon+0x136>
test/unit/artifacts/cpp/modifiedFunctionsDetector/indent-2.2.9/indent.c:967
 804a543:	a1 84 aa 05 08       	mov    0x805aa84,%eax
 804a548:	c6 00 20             	movb   $0x20,(%eax)
 804a54b:	83 c0 01             	add    $0x1,%eax
 804a54e:	a3 84 aa 05 08       	mov    %eax,0x805aa84
test/unit/artifacts/cpp/modifiedFunctionsDetector/indent-2.2.9/indent.c:970
 804a553:	a1 84 aa 05 08       	mov    0x805aa84,%eax
 804a558:	c6 00 3b             	movb   $0x3b,(%eax)
 804a55b:	83 c0 01             	add    $0x1,%eax
 804a55e:	a3 84 aa 05 08       	mov    %eax,0x805aa84
test/unit/artifacts/cpp/modifiedFunctionsDetector/indent-2.2.9/indent.c:971
 804a563:	a1 84 aa 05 08       	mov    0x805aa84,%eax
 804a568:	c6 00 00             	movb   $0x0,(%eax)
test/unit/artifacts/cpp/modifiedFunctionsDetector/indent-2.2.9/indent.c:972
 804a56b:	a1 fc ac 05 08       	mov    0x805acfc,%eax
 804a570:	c7 80 9c 00 00 00 01 	movl   $0x1,0x9c(%eax)
 804a577:	00 00 00 
test/unit/artifacts/cpp/modifiedFunctionsDetector/indent-2.2.9/indent.c:976
 804a57a:	a1 fc ac 05 08       	mov    0x805acfc,%eax
 804a57f:	8b 15 fc ac 05 08    	mov    0x805acfc,%edx
 804a585:	8b 52 7c             	mov    0x7c(%edx),%edx
 804a588:	85 d2                	test   %edx,%edx
 804a58a:	0f 9f c2             	setg   %dl
 804a58d:	0f b6 d2             	movzbl %dl,%edx
 804a590:	89 50 68             	mov    %edx,0x68(%eax)
test/unit/artifacts/cpp/modifiedFunctionsDetector/indent-2.2.9/indent.c:978
 804a593:	8b 45 10             	mov    0x10(%ebp),%eax
 804a596:	0f b6 00             	movzbl (%eax),%eax
 804a599:	84 c0                	test   %al,%al
 804a59b:	75 1f                	jne    804a5bc <handle_token_semicolon+0x19f>
test/unit/artifacts/cpp/modifiedFunctionsDetector/indent-2.2.9/indent.c:982
 804a59d:	c7 04 24 0c 00 00 00 	movl   $0xc,(%esp)
 804a5a4:	e8 52 73 00 00       	call   80518fb <parse>
 804a5a9:	85 c0                	test   %eax,%eax
 804a5ab:	74 09                	je     804a5b6 <handle_token_semicolon+0x199>
test/unit/artifacts/cpp/modifiedFunctionsDetector/indent-2.2.9/indent.c:984
 804a5ad:	8b 45 1c             	mov    0x1c(%ebp),%eax
 804a5b0:	c7 00 02 00 00 00    	movl   $0x2,(%eax)
test/unit/artifacts/cpp/modifiedFunctionsDetector/indent-2.2.9/indent.c:988
 804a5b6:	8b 45 0c             	mov    0xc(%ebp),%eax
 804a5b9:	c6 00 01             	movb   $0x1,(%eax)
test/unit/artifacts/cpp/modifiedFunctionsDetector/indent-2.2.9/indent.c:990
 804a5bc:	c9                   	leave  
 804a5bd:	c3                   	ret    

0804a5be <handle_token_lbrace>:
handle_token_lbrace():
test/unit/artifacts/cpp/modifiedFunctionsDetector/indent-2.2.9/indent.c:997
 804a5be:	55                   	push   %ebp
 804a5bf:	89 e5                	mov    %esp,%ebp
 804a5c1:	53                   	push   %ebx
 804a5c2:	83 ec 24             	sub    $0x24,%esp
test/unit/artifacts/cpp/modifiedFunctionsDetector/indent-2.2.9/indent.c:998
 804a5c5:	a1 fc ac 05 08       	mov    0x805acfc,%eax
 804a5ca:	c7 40 44 00 00 00 00 	movl   $0x0,0x44(%eax)
test/unit/artifacts/cpp/modifiedFunctionsDetector/indent-2.2.9/indent.c:1000
 804a5d1:	a1 fc ac 05 08       	mov    0x805acfc,%eax
 804a5d6:	8b 40 34             	mov    0x34(%eax),%eax
 804a5d9:	85 c0                	test   %eax,%eax
 804a5db:	75 17                	jne    804a5f4 <handle_token_lbrace+0x36>
test/unit/artifacts/cpp/modifiedFunctionsDetector/indent-2.2.9/indent.c:1002
 804a5dd:	8b 45 08             	mov    0x8(%ebp),%eax
 804a5e0:	c6 00 01             	movb   $0x1,(%eax)
test/unit/artifacts/cpp/modifiedFunctionsDetector/indent-2.2.9/indent.c:1004
 804a5e3:	a1 fc ac 05 08       	mov    0x805acfc,%eax
 804a5e8:	c7 40 68 00 00 00 00 	movl   $0x0,0x68(%eax)
 804a5ef:	e9 f4 00 00 00       	jmp    804a6e8 <handle_token_lbrace+0x12a>
test/unit/artifacts/cpp/modifiedFunctionsDetector/indent-2.2.9/indent.c:1010
 804a5f4:	a1 04 ad 05 08       	mov    0x805ad04,%eax
 804a5f9:	89 45 f4             	mov    %eax,-0xc(%ebp)
 804a5fc:	eb 01                	jmp    804a5ff <handle_token_lbrace+0x41>
test/unit/artifacts/cpp/modifiedFunctionsDetector/indent-2.2.9/indent.c:1048
 804a5fe:	90                   	nop
test/unit/artifacts/cpp/modifiedFunctionsDetector/indent-2.2.9/indent.c:1014
 804a5ff:	8b 45 f4             	mov    -0xc(%ebp),%eax
 804a602:	89 04 24             	mov    %eax,(%esp)
 804a605:	e8 3e 80 00 00       	call   8052648 <skip_horiz_space>
 804a60a:	89 45 f4             	mov    %eax,-0xc(%ebp)
test/unit/artifacts/cpp/modifiedFunctionsDetector/indent-2.2.9/indent.c:1016
 804a60d:	8b 45 f4             	mov    -0xc(%ebp),%eax
 804a610:	0f b6 00             	movzbl (%eax),%eax
 804a613:	3c 0a                	cmp    $0xa,%al
 804a615:	74 17                	je     804a62e <handle_token_lbrace+0x70>
 804a617:	8b 45 f4             	mov    -0xc(%ebp),%eax
 804a61a:	0f b6 00             	movzbl (%eax),%eax
 804a61d:	3c 2f                	cmp    $0x2f,%al
 804a61f:	75 1e                	jne    804a63f <handle_token_lbrace+0x81>
 804a621:	8b 45 f4             	mov    -0xc(%ebp),%eax
 804a624:	83 c0 01             	add    $0x1,%eax
 804a627:	0f b6 00             	movzbl (%eax),%eax
 804a62a:	3c 2f                	cmp    $0x2f,%al
 804a62c:	75 11                	jne    804a63f <handle_token_lbrace+0x81>
test/unit/artifacts/cpp/modifiedFunctionsDetector/indent-2.2.9/indent.c:1018
 804a62e:	a1 fc ac 05 08       	mov    0x805acfc,%eax
 804a633:	c7 40 68 00 00 00 00 	movl   $0x0,0x68(%eax)
test/unit/artifacts/cpp/modifiedFunctionsDetector/indent-2.2.9/indent.c:1019
 804a63a:	e9 81 00 00 00       	jmp    804a6c0 <handle_token_lbrace+0x102>
test/unit/artifacts/cpp/modifiedFunctionsDetector/indent-2.2.9/indent.c:1021
 804a63f:	8b 45 f4             	mov    -0xc(%ebp),%eax
 804a642:	0f b6 00             	movzbl (%eax),%eax
 804a645:	3c 2f                	cmp    $0x2f,%al
 804a647:	75 77                	jne    804a6c0 <handle_token_lbrace+0x102>
 804a649:	8b 45 f4             	mov    -0xc(%ebp),%eax
 804a64c:	83 c0 01             	add    $0x1,%eax
 804a64f:	0f b6 00             	movzbl (%eax),%eax
 804a652:	3c 2a                	cmp    $0x2a,%al
 804a654:	75 6a                	jne    804a6c0 <handle_token_lbrace+0x102>
test/unit/artifacts/cpp/modifiedFunctionsDetector/indent-2.2.9/indent.c:1023
 804a656:	83 45 f4 02          	addl   $0x2,-0xc(%ebp)
test/unit/artifacts/cpp/modifiedFunctionsDetector/indent-2.2.9/indent.c:1026
 804a65a:	eb 04                	jmp    804a660 <handle_token_lbrace+0xa2>
test/unit/artifacts/cpp/modifiedFunctionsDetector/indent-2.2.9/indent.c:1028
 804a65c:	83 45 f4 01          	addl   $0x1,-0xc(%ebp)
test/unit/artifacts/cpp/modifiedFunctionsDetector/indent-2.2.9/indent.c:1026
 804a660:	8b 45 f4             	mov    -0xc(%ebp),%eax
 804a663:	0f b6 00             	movzbl (%eax),%eax
 804a666:	84 c0                	test   %al,%al
 804a668:	74 21                	je     804a68b <handle_token_lbrace+0xcd>
 804a66a:	8b 45 f4             	mov    -0xc(%ebp),%eax
 804a66d:	0f b6 00             	movzbl (%eax),%eax
 804a670:	3c 0a                	cmp    $0xa,%al
 804a672:	74 17                	je     804a68b <handle_token_lbrace+0xcd>
 804a674:	8b 45 f4             	mov    -0xc(%ebp),%eax
 804a677:	0f b6 00             	movzbl (%eax),%eax
 804a67a:	3c 2a                	cmp    $0x2a,%al
 804a67c:	75 de                	jne    804a65c <handle_token_lbrace+0x9e>
 804a67e:	8b 45 f4             	mov    -0xc(%ebp),%eax
 804a681:	83 c0 01             	add    $0x1,%eax
 804a684:	0f b6 00             	movzbl (%eax),%eax
 804a687:	3c 2f                	cmp    $0x2f,%al
 804a689:	75 d1                	jne    804a65c <handle_token_lbrace+0x9e>
test/unit/artifacts/cpp/modifiedFunctionsDetector/indent-2.2.9/indent.c:1031
 804a68b:	8b 45 f4             	mov    -0xc(%ebp),%eax
 804a68e:	0f b6 00             	movzbl (%eax),%eax
 804a691:	84 c0                	test   %al,%al
 804a693:	74 0a                	je     804a69f <handle_token_lbrace+0xe1>
 804a695:	8b 45 f4             	mov    -0xc(%ebp),%eax
 804a698:	0f b6 00             	movzbl (%eax),%eax
 804a69b:	3c 0a                	cmp    $0xa,%al
 804a69d:	75 0e                	jne    804a6ad <handle_token_lbrace+0xef>
test/unit/artifacts/cpp/modifiedFunctionsDetector/indent-2.2.9/indent.c:1033
 804a69f:	a1 fc ac 05 08       	mov    0x805acfc,%eax
 804a6a4:	c7 40 68 00 00 00 00 	movl   $0x0,0x68(%eax)
test/unit/artifacts/cpp/modifiedFunctionsDetector/indent-2.2.9/indent.c:1034
 804a6ab:	eb 13                	jmp    804a6c0 <handle_token_lbrace+0x102>
test/unit/artifacts/cpp/modifiedFunctionsDetector/indent-2.2.9/indent.c:1036
 804a6ad:	83 45 f4 02          	addl   $0x2,-0xc(%ebp)
test/unit/artifacts/cpp/modifiedFunctionsDetector/indent-2.2.9/indent.c:1038
 804a6b1:	8b 45 f4             	mov    -0xc(%ebp),%eax
 804a6b4:	0f b6 00             	movzbl (%eax),%eax
 804a6b7:	84 c0                	test   %al,%al
 804a6b9:	0f 85 3f ff ff ff    	jne    804a5fe <handle_token_lbrace+0x40>
test/unit/artifacts/cpp/modifiedFunctionsDetector/indent-2.2.9/indent.c:1040
 804a6bf:	90                   	nop
test/unit/artifacts/cpp/modifiedFunctionsDetector/indent-2.2.9/indent.c:1050
 804a6c0:	a1 fc ac 05 08       	mov    0x805acfc,%eax
 804a6c5:	8b 40 38             	mov    0x38(%eax),%eax
 804a6c8:	85 c0                	test   %eax,%eax
 804a6ca:	7f 0e                	jg     804a6da <handle_token_lbrace+0x11c>
test/unit/artifacts/cpp/modifiedFunctionsDetector/indent-2.2.9/indent.c:1052
 804a6cc:	a1 fc ac 05 08       	mov    0x805acfc,%eax
 804a6d1:	c7 40 38 01 00 00 00 	movl   $0x1,0x38(%eax)
 804a6d8:	eb 0e                	jmp    804a6e8 <handle_token_lbrace+0x12a>
test/unit/artifacts/cpp/modifiedFunctionsDetector/indent-2.2.9/indent.c:1056
 804a6da:	a1 fc ac 05 08       	mov    0x805acfc,%eax
 804a6df:	8b 50 38             	mov    0x38(%eax),%edx
 804a6e2:	83 c2 01             	add    $0x1,%edx
 804a6e5:	89 50 38             	mov    %edx,0x38(%eax)
test/unit/artifacts/cpp/modifiedFunctionsDetector/indent-2.2.9/indent.c:1060
 804a6e8:	8b 15 80 aa 05 08    	mov    0x805aa80,%edx
 804a6ee:	a1 84 aa 05 08       	mov    0x805aa84,%eax
 804a6f3:	39 c2                	cmp    %eax,%edx
 804a6f5:	0f 84 de 00 00 00    	je     804a7d9 <handle_token_lbrace+0x21b>
 804a6fb:	a1 fc ac 05 08       	mov    0x805acfc,%eax
 804a700:	8b 40 34             	mov    0x34(%eax),%eax
 804a703:	83 f8 01             	cmp    $0x1,%eax
 804a706:	0f 84 cd 00 00 00    	je     804a7d9 <handle_token_lbrace+0x21b>
test/unit/artifacts/cpp/modifiedFunctionsDetector/indent-2.2.9/indent.c:1062
 804a70c:	a1 fc ac 05 08       	mov    0x805acfc,%eax
 804a711:	0f b6 40 64          	movzbl 0x64(%eax),%eax
 804a715:	84 c0                	test   %al,%al
 804a717:	75 09                	jne    804a722 <handle_token_lbrace+0x164>
 804a719:	a1 d4 ab 05 08       	mov    0x805abd4,%eax
 804a71e:	85 c0                	test   %eax,%eax
 804a720:	74 1f                	je     804a741 <handle_token_lbrace+0x183>
test/unit/artifacts/cpp/modifiedFunctionsDetector/indent-2.2.9/indent.c:1063
 804a722:	a1 fc ac 05 08       	mov    0x805acfc,%eax
 804a727:	0f b6 40 64          	movzbl 0x64(%eax),%eax
test/unit/artifacts/cpp/modifiedFunctionsDetector/indent-2.2.9/indent.c:1062
 804a72b:	84 c0                	test   %al,%al
 804a72d:	74 37                	je     804a766 <handle_token_lbrace+0x1a8>
test/unit/artifacts/cpp/modifiedFunctionsDetector/indent-2.2.9/indent.c:1064
 804a72f:	a1 cc ab 05 08       	mov    0x805abcc,%eax
test/unit/artifacts/cpp/modifiedFunctionsDetector/indent-2.2.9/indent.c:1062
 804a734:	85 c0                	test   %eax,%eax
 804a736:	75 2e                	jne    804a766 <handle_token_lbrace+0x1a8>
test/unit/artifacts/cpp/modifiedFunctionsDetector/indent-2.2.9/indent.c:1065
 804a738:	a1 d0 ab 05 08       	mov    0x805abd0,%eax
test/unit/artifacts/cpp/modifiedFunctionsDetector/indent-2.2.9/indent.c:1062
 804a73d:	85 c0                	test   %eax,%eax
 804a73f:	75 25                	jne    804a766 <handle_token_lbrace+0x1a8>
test/unit/artifacts/cpp/modifiedFunctionsDetector/indent-2.2.9/indent.c:1067
 804a741:	c7 44 24 04 e8 aa 05 	movl   $0x805aae8,0x4(%esp)
 804a748:	08 
 804a749:	c7 04 24 01 00 00 00 	movl   $0x1,(%esp)
 804a750:	e8 de 92 00 00       	call   8053a33 <dump_line>
test/unit/artifacts/cpp/modifiedFunctionsDetector/indent-2.2.9/indent.c:1068
 804a755:	a1 fc ac 05 08       	mov    0x805acfc,%eax
 804a75a:	c7 80 9c 00 00 00 00 	movl   $0x0,0x9c(%eax)
 804a761:	00 00 00 
test/unit/artifacts/cpp/modifiedFunctionsDetector/indent-2.2.9/indent.c:1062
 804a764:	eb 73                	jmp    804a7d9 <handle_token_lbrace+0x21b>
test/unit/artifacts/cpp/modifiedFunctionsDetector/indent-2.2.9/indent.c:1072
 804a766:	a1 fc ac 05 08       	mov    0x805acfc,%eax
 804a76b:	8b 40 6c             	mov    0x6c(%eax),%eax
 804a76e:	85 c0                	test   %eax,%eax
 804a770:	74 58                	je     804a7ca <handle_token_lbrace+0x20c>
test/unit/artifacts/cpp/modifiedFunctionsDetector/indent-2.2.9/indent.c:1073
 804a772:	a1 fc ac 05 08       	mov    0x805acfc,%eax
 804a777:	8b 40 4c             	mov    0x4c(%eax),%eax
test/unit/artifacts/cpp/modifiedFunctionsDetector/indent-2.2.9/indent.c:1072
 804a77a:	85 c0                	test   %eax,%eax
 804a77c:	75 4c                	jne    804a7ca <handle_token_lbrace+0x20c>
test/unit/artifacts/cpp/modifiedFunctionsDetector/indent-2.2.9/indent.c:1075
 804a77e:	a1 fc ac 05 08       	mov    0x805acfc,%eax
 804a783:	c7 40 60 00 00 00 00 	movl   $0x0,0x60(%eax)
test/unit/artifacts/cpp/modifiedFunctionsDetector/indent-2.2.9/indent.c:1077
 804a78a:	a1 d0 ab 05 08       	mov    0x805abd0,%eax
 804a78f:	85 c0                	test   %eax,%eax
 804a791:	75 16                	jne    804a7a9 <handle_token_lbrace+0x1eb>
test/unit/artifacts/cpp/modifiedFunctionsDetector/indent-2.2.9/indent.c:1079
 804a793:	c7 44 24 04 e8 aa 05 	movl   $0x805aae8,0x4(%esp)
 804a79a:	08 
 804a79b:	c7 04 24 01 00 00 00 	movl   $0x1,(%esp)
 804a7a2:	e8 8c 92 00 00       	call   8053a33 <dump_line>
 804a7a7:	eb 10                	jmp    804a7b9 <handle_token_lbrace+0x1fb>
test/unit/artifacts/cpp/modifiedFunctionsDetector/indent-2.2.9/indent.c:1083
 804a7a9:	a1 84 aa 05 08       	mov    0x805aa84,%eax
 804a7ae:	c6 00 20             	movb   $0x20,(%eax)
 804a7b1:	83 c0 01             	add    $0x1,%eax
 804a7b4:	a3 84 aa 05 08       	mov    %eax,0x805aa84
test/unit/artifacts/cpp/modifiedFunctionsDetector/indent-2.2.9/indent.c:1086
 804a7b9:	a1 fc ac 05 08       	mov    0x805acfc,%eax
 804a7be:	c7 80 9c 00 00 00 00 	movl   $0x0,0x9c(%eax)
 804a7c5:	00 00 00 
test/unit/artifacts/cpp/modifiedFunctionsDetector/indent-2.2.9/indent.c:1072
 804a7c8:	eb 0f                	jmp    804a7d9 <handle_token_lbrace+0x21b>
test/unit/artifacts/cpp/modifiedFunctionsDetector/indent-2.2.9/indent.c:1090
 804a7ca:	a1 fc ac 05 08       	mov    0x805acfc,%eax
 804a7cf:	c7 80 9c 00 00 00 01 	movl   $0x1,0x9c(%eax)
 804a7d6:	00 00 00 
test/unit/artifacts/cpp/modifiedFunctionsDetector/indent-2.2.9/indent.c:1095
 804a7d9:	a1 fc ac 05 08       	mov    0x805acfc,%eax
 804a7de:	8b 40 6c             	mov    0x6c(%eax),%eax
 804a7e1:	85 c0                	test   %eax,%eax
 804a7e3:	74 0a                	je     804a7ef <handle_token_lbrace+0x231>
test/unit/artifacts/cpp/modifiedFunctionsDetector/indent-2.2.9/indent.c:1097
 804a7e5:	c7 05 b8 aa 05 08 00 	movl   $0x0,0x805aab8
 804a7ec:	00 00 00 
test/unit/artifacts/cpp/modifiedFunctionsDetector/indent-2.2.9/indent.c:1100
 804a7ef:	8b 15 80 aa 05 08    	mov    0x805aa80,%edx
 804a7f5:	a1 84 aa 05 08       	mov    0x805aa84,%eax
 804a7fa:	39 c2                	cmp    %eax,%edx
 804a7fc:	75 0c                	jne    804a80a <handle_token_lbrace+0x24c>
test/unit/artifacts/cpp/modifiedFunctionsDetector/indent-2.2.9/indent.c:1102
 804a7fe:	a1 fc ac 05 08       	mov    0x805acfc,%eax
 804a803:	c7 40 74 00 00 00 00 	movl   $0x0,0x74(%eax)
test/unit/artifacts/cpp/modifiedFunctionsDetector/indent-2.2.9/indent.c:1106
 804a80a:	a1 fc ac 05 08       	mov    0x805acfc,%eax
 804a80f:	0f b6 40 64          	movzbl 0x64(%eax),%eax
 804a813:	84 c0                	test   %al,%al
 804a815:	74 70                	je     804a887 <handle_token_lbrace+0x2c9>
 804a817:	a1 fc ac 05 08       	mov    0x805acfc,%eax
 804a81c:	8b 40 4c             	mov    0x4c(%eax),%eax
 804a81f:	85 c0                	test   %eax,%eax
 804a821:	74 64                	je     804a887 <handle_token_lbrace+0x2c9>
test/unit/artifacts/cpp/modifiedFunctionsDetector/indent-2.2.9/indent.c:1110
 804a823:	a1 fc ac 05 08       	mov    0x805acfc,%eax
 804a828:	8b 50 58             	mov    0x58(%eax),%edx
 804a82b:	a1 d4 aa 05 08       	mov    0x805aad4,%eax
 804a830:	39 c2                	cmp    %eax,%edx
 804a832:	7c 2e                	jl     804a862 <handle_token_lbrace+0x2a4>
test/unit/artifacts/cpp/modifiedFunctionsDetector/indent-2.2.9/indent.c:1112
 804a834:	a1 d4 aa 05 08       	mov    0x805aad4,%eax
 804a839:	01 c0                	add    %eax,%eax
 804a83b:	a3 d4 aa 05 08       	mov    %eax,0x805aad4
test/unit/artifacts/cpp/modifiedFunctionsDetector/indent-2.2.9/indent.c:1114
 804a840:	a1 d4 aa 05 08       	mov    0x805aad4,%eax
 804a845:	8d 14 85 00 00 00 00 	lea    0x0(,%eax,4),%edx
 804a84c:	a1 d0 aa 05 08       	mov    0x805aad0,%eax
 804a851:	89 54 24 04          	mov    %edx,0x4(%esp)
 804a855:	89 04 24             	mov    %eax,(%esp)
 804a858:	e8 7d 7c 00 00       	call   80524da <xrealloc>
test/unit/artifacts/cpp/modifiedFunctionsDetector/indent-2.2.9/indent.c:1113
 804a85d:	a3 d0 aa 05 08       	mov    %eax,0x805aad0
test/unit/artifacts/cpp/modifiedFunctionsDetector/indent-2.2.9/indent.c:1118
 804a862:	8b 0d d0 aa 05 08    	mov    0x805aad0,%ecx
 804a868:	a1 fc ac 05 08       	mov    0x805acfc,%eax
 804a86d:	8b 50 58             	mov    0x58(%eax),%edx
 804a870:	89 d3                	mov    %edx,%ebx
 804a872:	c1 e3 02             	shl    $0x2,%ebx
 804a875:	8d 1c 19             	lea    (%ecx,%ebx,1),%ebx
 804a878:	8b 4d 0c             	mov    0xc(%ebp),%ecx
 804a87b:	8b 09                	mov    (%ecx),%ecx
 804a87d:	89 0b                	mov    %ecx,(%ebx)
 804a87f:	83 c2 01             	add    $0x1,%edx
 804a882:	89 50 58             	mov    %edx,0x58(%eax)
test/unit/artifacts/cpp/modifiedFunctionsDetector/indent-2.2.9/indent.c:1106
 804a885:	eb 21                	jmp    804a8a8 <handle_token_lbrace+0x2ea>
test/unit/artifacts/cpp/modifiedFunctionsDetector/indent-2.2.9/indent.c:1122
 804a887:	a1 fc ac 05 08       	mov    0x805acfc,%eax
 804a88c:	c6 40 64 00          	movb   $0x0,0x64(%eax)
test/unit/artifacts/cpp/modifiedFunctionsDetector/indent-2.2.9/indent.c:1123
 804a890:	a1 fc ac 05 08       	mov    0x805acfc,%eax
 804a895:	c7 40 5c 00 00 00 00 	movl   $0x0,0x5c(%eax)
test/unit/artifacts/cpp/modifiedFunctionsDetector/indent-2.2.9/indent.c:1130
 804a89c:	a1 fc ac 05 08       	mov    0x805acfc,%eax
 804a8a1:	c7 40 6c 00 00 00 00 	movl   $0x0,0x6c(%eax)
test/unit/artifacts/cpp/modifiedFunctionsDetector/indent-2.2.9/indent.c:1133
 804a8a8:	8b 45 0c             	mov    0xc(%ebp),%eax
 804a8ab:	c7 00 00 00 00 00    	movl   $0x0,(%eax)
test/unit/artifacts/cpp/modifiedFunctionsDetector/indent-2.2.9/indent.c:1139
 804a8b1:	a1 fc ac 05 08       	mov    0x805acfc,%eax
 804a8b6:	c7 40 4c 00 00 00 00 	movl   $0x0,0x4c(%eax)
test/unit/artifacts/cpp/modifiedFunctionsDetector/indent-2.2.9/indent.c:1143
 804a8bd:	c7 04 24 0d 00 00 00 	movl   $0xd,(%esp)
 804a8c4:	e8 32 70 00 00       	call   80518fb <parse>
 804a8c9:	85 c0                	test   %eax,%eax
 804a8cb:	74 09                	je     804a8d6 <handle_token_lbrace+0x318>
test/unit/artifacts/cpp/modifiedFunctionsDetector/indent-2.2.9/indent.c:1145
 804a8cd:	8b 45 10             	mov    0x10(%ebp),%eax
 804a8d0:	c7 00 02 00 00 00    	movl   $0x2,(%eax)
test/unit/artifacts/cpp/modifiedFunctionsDetector/indent-2.2.9/indent.c:1149
 804a8d6:	a1 e8 aa 05 08       	mov    0x805aae8,%eax
 804a8db:	89 44 24 04          	mov    %eax,0x4(%esp)
 804a8df:	c7 04 24 10 00 00 00 	movl   $0x10,(%esp)
 804a8e6:	e8 9f 88 00 00       	call   805318a <set_buf_break>
test/unit/artifacts/cpp/modifiedFunctionsDetector/indent-2.2.9/indent.c:1150
 804a8eb:	a1 fc ac 05 08       	mov    0x805acfc,%eax
 804a8f0:	8b 80 9c 00 00 00    	mov    0x9c(%eax),%eax
 804a8f6:	85 c0                	test   %eax,%eax
 804a8f8:	74 1f                	je     804a919 <handle_token_lbrace+0x35b>
 804a8fa:	8b 15 80 aa 05 08    	mov    0x805aa80,%edx
 804a900:	a1 84 aa 05 08       	mov    0x805aa84,%eax
 804a905:	39 c2                	cmp    %eax,%edx
 804a907:	74 10                	je     804a919 <handle_token_lbrace+0x35b>
test/unit/artifacts/cpp/modifiedFunctionsDetector/indent-2.2.9/indent.c:1154
 804a909:	a1 84 aa 05 08       	mov    0x805aa84,%eax
 804a90e:	c6 00 20             	movb   $0x20,(%eax)
 804a911:	83 c0 01             	add    $0x1,%eax
 804a914:	a3 84 aa 05 08       	mov    %eax,0x805aa84
test/unit/artifacts/cpp/modifiedFunctionsDetector/indent-2.2.9/indent.c:1157
 804a919:	a1 fc ac 05 08       	mov    0x805acfc,%eax
 804a91e:	c7 80 9c 00 00 00 00 	movl   $0x0,0x9c(%eax)
 804a925:	00 00 00 
test/unit/artifacts/cpp/modifiedFunctionsDetector/indent-2.2.9/indent.c:1158
 804a928:	a1 84 aa 05 08       	mov    0x805aa84,%eax
 804a92d:	c6 00 7b             	movb   $0x7b,(%eax)
 804a930:	83 c0 01             	add    $0x1,%eax
 804a933:	a3 84 aa 05 08       	mov    %eax,0x805aa84
test/unit/artifacts/cpp/modifiedFunctionsDetector/indent-2.2.9/indent.c:1159
 804a938:	a1 84 aa 05 08       	mov    0x805aa84,%eax
 804a93d:	c6 00 00             	movb   $0x0,(%eax)
test/unit/artifacts/cpp/modifiedFunctionsDetector/indent-2.2.9/indent.c:1161
 804a940:	a1 fc ac 05 08       	mov    0x805acfc,%eax
 804a945:	c7 80 bc 00 00 00 00 	movl   $0x0,0xbc(%eax)
 804a94c:	00 00 00 
test/unit/artifacts/cpp/modifiedFunctionsDetector/indent-2.2.9/indent.c:1163
 804a94f:	a1 fc ac 05 08       	mov    0x805acfc,%eax
 804a954:	8b 40 34             	mov    0x34(%eax),%eax
 804a957:	85 c0                	test   %eax,%eax
 804a959:	0f 84 c1 00 00 00    	je     804aa20 <handle_token_lbrace+0x462>
test/unit/artifacts/cpp/modifiedFunctionsDetector/indent-2.2.9/indent.c:1164
 804a95f:	a1 fc ac 05 08       	mov    0x805acfc,%eax
 804a964:	8b 40 38             	mov    0x38(%eax),%eax
test/unit/artifacts/cpp/modifiedFunctionsDetector/indent-2.2.9/indent.c:1163
 804a967:	83 f8 01             	cmp    $0x1,%eax
 804a96a:	0f 8e b0 00 00 00    	jle    804aa20 <handle_token_lbrace+0x462>
test/unit/artifacts/cpp/modifiedFunctionsDetector/indent-2.2.9/indent.c:1169
 804a970:	a1 fc ac 05 08       	mov    0x805acfc,%eax
 804a975:	8b 50 7c             	mov    0x7c(%eax),%edx
 804a978:	83 c2 01             	add    $0x1,%edx
 804a97b:	89 50 7c             	mov    %edx,0x7c(%eax)
 804a97e:	8b 50 7c             	mov    0x7c(%eax),%edx
test/unit/artifacts/cpp/modifiedFunctionsDetector/indent-2.2.9/indent.c:1170
 804a981:	a1 fc ac 05 08       	mov    0x805acfc,%eax
test/unit/artifacts/cpp/modifiedFunctionsDetector/indent-2.2.9/indent.c:1169
 804a986:	8b 80 8c 00 00 00    	mov    0x8c(%eax),%eax
 804a98c:	39 c2                	cmp    %eax,%edx
 804a98e:	7c 4a                	jl     804a9da <handle_token_lbrace+0x41c>
test/unit/artifacts/cpp/modifiedFunctionsDetector/indent-2.2.9/indent.c:1172
 804a990:	a1 fc ac 05 08       	mov    0x805acfc,%eax
 804a995:	8b 15 fc ac 05 08    	mov    0x805acfc,%edx
 804a99b:	8b 92 8c 00 00 00    	mov    0x8c(%edx),%edx
 804a9a1:	01 d2                	add    %edx,%edx
 804a9a3:	89 90 8c 00 00 00    	mov    %edx,0x8c(%eax)
test/unit/artifacts/cpp/modifiedFunctionsDetector/indent-2.2.9/indent.c:1173
 804a9a9:	8b 1d fc ac 05 08    	mov    0x805acfc,%ebx
test/unit/artifacts/cpp/modifiedFunctionsDetector/indent-2.2.9/indent.c:1176
 804a9af:	a1 fc ac 05 08       	mov    0x805acfc,%eax
test/unit/artifacts/cpp/modifiedFunctionsDetector/indent-2.2.9/indent.c:1174
 804a9b4:	8b 80 8c 00 00 00    	mov    0x8c(%eax),%eax
 804a9ba:	8d 14 00             	lea    (%eax,%eax,1),%edx
 804a9bd:	a1 fc ac 05 08       	mov    0x805acfc,%eax
 804a9c2:	8b 80 88 00 00 00    	mov    0x88(%eax),%eax
 804a9c8:	89 54 24 04          	mov    %edx,0x4(%esp)
 804a9cc:	89 04 24             	mov    %eax,(%esp)
 804a9cf:	e8 06 7b 00 00       	call   80524da <xrealloc>
test/unit/artifacts/cpp/modifiedFunctionsDetector/indent-2.2.9/indent.c:1173
 804a9d4:	89 83 88 00 00 00    	mov    %eax,0x88(%ebx)
test/unit/artifacts/cpp/modifiedFunctionsDetector/indent-2.2.9/indent.c:1180
 804a9da:	a1 fc ac 05 08       	mov    0x805acfc,%eax
 804a9df:	8b 90 84 00 00 00    	mov    0x84(%eax),%edx
 804a9e5:	83 c2 01             	add    $0x1,%edx
 804a9e8:	89 90 84 00 00 00    	mov    %edx,0x84(%eax)
test/unit/artifacts/cpp/modifiedFunctionsDetector/indent-2.2.9/indent.c:1181
 804a9ee:	a1 fc ac 05 08       	mov    0x805acfc,%eax
 804a9f3:	8b 90 88 00 00 00    	mov    0x88(%eax),%edx
 804a9f9:	a1 fc ac 05 08       	mov    0x805acfc,%eax
 804a9fe:	8b 40 7c             	mov    0x7c(%eax),%eax
 804aa01:	83 e8 01             	sub    $0x1,%eax
 804aa04:	01 c0                	add    %eax,%eax
 804aa06:	01 c2                	add    %eax,%edx
 804aa08:	a1 84 aa 05 08       	mov    0x805aa84,%eax
 804aa0d:	89 c1                	mov    %eax,%ecx
 804aa0f:	a1 80 aa 05 08       	mov    0x805aa80,%eax
 804aa14:	89 cb                	mov    %ecx,%ebx
 804aa16:	66 29 c3             	sub    %ax,%bx
 804aa19:	89 d8                	mov    %ebx,%eax
 804aa1b:	66 89 02             	mov    %ax,(%edx)
test/unit/artifacts/cpp/modifiedFunctionsDetector/indent-2.2.9/indent.c:1163
 804aa1e:	eb 28                	jmp    804aa48 <handle_token_lbrace+0x48a>
test/unit/artifacts/cpp/modifiedFunctionsDetector/indent-2.2.9/indent.c:1184
 804aa20:	a1 fc ac 05 08       	mov    0x805acfc,%eax
 804aa25:	8b 40 34             	mov    0x34(%eax),%eax
 804aa28:	85 c0                	test   %eax,%eax
 804aa2a:	74 1c                	je     804aa48 <handle_token_lbrace+0x48a>
test/unit/artifacts/cpp/modifiedFunctionsDetector/indent-2.2.9/indent.c:1185
 804aa2c:	a1 fc ac 05 08       	mov    0x805acfc,%eax
 804aa31:	8b 40 38             	mov    0x38(%eax),%eax
test/unit/artifacts/cpp/modifiedFunctionsDetector/indent-2.2.9/indent.c:1184
 804aa34:	83 f8 01             	cmp    $0x1,%eax
 804aa37:	75 0f                	jne    804aa48 <handle_token_lbrace+0x48a>
test/unit/artifacts/cpp/modifiedFunctionsDetector/indent-2.2.9/indent.c:1189
 804aa39:	a1 fc ac 05 08       	mov    0x805acfc,%eax
 804aa3e:	c7 80 9c 00 00 00 01 	movl   $0x1,0x9c(%eax)
 804aa45:	00 00 00 
test/unit/artifacts/cpp/modifiedFunctionsDetector/indent-2.2.9/indent.c:1191
 804aa48:	83 c4 24             	add    $0x24,%esp
 804aa4b:	5b                   	pop    %ebx
 804aa4c:	5d                   	pop    %ebp
 804aa4d:	c3                   	ret    

0804aa4e <handle_token_rbrace>:
handle_token_rbrace():
test/unit/artifacts/cpp/modifiedFunctionsDetector/indent-2.2.9/indent.c:1197
 804aa4e:	55                   	push   %ebp
 804aa4f:	89 e5                	mov    %esp,%ebp
 804aa51:	56                   	push   %esi
 804aa52:	53                   	push   %ebx
 804aa53:	83 ec 10             	sub    $0x10,%esp
test/unit/artifacts/cpp/modifiedFunctionsDetector/indent-2.2.9/indent.c:1199
 804aa56:	a1 fc ac 05 08       	mov    0x805acfc,%eax
 804aa5b:	8b 50 08             	mov    0x8(%eax),%edx
 804aa5e:	a1 fc ac 05 08       	mov    0x805acfc,%eax
 804aa63:	8b 40 20             	mov    0x20(%eax),%eax
 804aa66:	c1 e0 02             	shl    $0x2,%eax
 804aa69:	8d 04 02             	lea    (%edx,%eax,1),%eax
 804aa6c:	8b 00                	mov    (%eax),%eax
 804aa6e:	83 f8 18             	cmp    $0x18,%eax
 804aa71:	75 0c                	jne    804aa7f <handle_token_rbrace+0x31>
test/unit/artifacts/cpp/modifiedFunctionsDetector/indent-2.2.9/indent.c:1200
 804aa73:	a1 fc ac 05 08       	mov    0x805acfc,%eax
 804aa78:	8b 40 34             	mov    0x34(%eax),%eax
test/unit/artifacts/cpp/modifiedFunctionsDetector/indent-2.2.9/indent.c:1199
 804aa7b:	85 c0                	test   %eax,%eax
 804aa7d:	74 1d                	je     804aa9c <handle_token_rbrace+0x4e>
test/unit/artifacts/cpp/modifiedFunctionsDetector/indent-2.2.9/indent.c:1202
 804aa7f:	a1 fc ac 05 08       	mov    0x805acfc,%eax
 804aa84:	8b 50 08             	mov    0x8(%eax),%edx
 804aa87:	a1 fc ac 05 08       	mov    0x805acfc,%eax
 804aa8c:	8b 40 20             	mov    0x20(%eax),%eax
 804aa8f:	c1 e0 02             	shl    $0x2,%eax
 804aa92:	8d 04 02             	lea    (%edx,%eax,1),%eax
 804aa95:	8b 00                	mov    (%eax),%eax
test/unit/artifacts/cpp/modifiedFunctionsDetector/indent-2.2.9/indent.c:1199
 804aa97:	83 f8 09             	cmp    $0x9,%eax
 804aa9a:	75 19                	jne    804aab5 <handle_token_rbrace+0x67>
test/unit/artifacts/cpp/modifiedFunctionsDetector/indent-2.2.9/indent.c:1204
 804aa9c:	c7 04 24 0c 00 00 00 	movl   $0xc,(%esp)
 804aaa3:	e8 53 6e 00 00       	call   80518fb <parse>
 804aaa8:	85 c0                	test   %eax,%eax
 804aaaa:	74 09                	je     804aab5 <handle_token_rbrace+0x67>
test/unit/artifacts/cpp/modifiedFunctionsDetector/indent-2.2.9/indent.c:1206
 804aaac:	8b 45 10             	mov    0x10(%ebp),%eax
 804aaaf:	c7 00 02 00 00 00    	movl   $0x2,(%eax)
test/unit/artifacts/cpp/modifiedFunctionsDetector/indent-2.2.9/indent.c:1210
 804aab5:	a1 fc ac 05 08       	mov    0x805acfc,%eax
 804aaba:	c7 80 bc 00 00 00 00 	movl   $0x0,0xbc(%eax)
 804aac1:	00 00 00 
test/unit/artifacts/cpp/modifiedFunctionsDetector/indent-2.2.9/indent.c:1211
 804aac4:	a1 fc ac 05 08       	mov    0x805acfc,%eax
 804aac9:	c7 40 74 00 00 00 00 	movl   $0x0,0x74(%eax)
test/unit/artifacts/cpp/modifiedFunctionsDetector/indent-2.2.9/indent.c:1212
 804aad0:	a1 fc ac 05 08       	mov    0x805acfc,%eax
 804aad5:	c7 40 68 00 00 00 00 	movl   $0x0,0x68(%eax)
test/unit/artifacts/cpp/modifiedFunctionsDetector/indent-2.2.9/indent.c:1214
 804aadc:	a1 fc ac 05 08       	mov    0x805acfc,%eax
 804aae1:	8b 50 38             	mov    0x38(%eax),%edx
 804aae4:	83 fa 01             	cmp    $0x1,%edx
 804aae7:	0f 94 c1             	sete   %cl
 804aaea:	83 ea 01             	sub    $0x1,%edx
 804aaed:	89 50 38             	mov    %edx,0x38(%eax)
 804aaf0:	84 c9                	test   %cl,%cl
 804aaf2:	74 59                	je     804ab4d <handle_token_rbrace+0xff>
test/unit/artifacts/cpp/modifiedFunctionsDetector/indent-2.2.9/indent.c:1215
 804aaf4:	8b 15 80 aa 05 08    	mov    0x805aa80,%edx
 804aafa:	a1 84 aa 05 08       	mov    0x805aa84,%eax
test/unit/artifacts/cpp/modifiedFunctionsDetector/indent-2.2.9/indent.c:1214
 804aaff:	39 c2                	cmp    %eax,%edx
 804ab01:	74 4a                	je     804ab4d <handle_token_rbrace+0xff>
test/unit/artifacts/cpp/modifiedFunctionsDetector/indent-2.2.9/indent.c:1220
 804ab03:	a1 fc ac 05 08       	mov    0x805acfc,%eax
 804ab08:	8b 80 c0 00 00 00    	mov    0xc0(%eax),%eax
 804ab0e:	85 c0                	test   %eax,%eax
 804ab10:	79 16                	jns    804ab28 <handle_token_rbrace+0xda>
test/unit/artifacts/cpp/modifiedFunctionsDetector/indent-2.2.9/indent.c:1225
 804ab12:	c7 44 24 04 e8 aa 05 	movl   $0x805aae8,0x4(%esp)
 804ab19:	08 
 804ab1a:	c7 04 24 01 00 00 00 	movl   $0x1,(%esp)
 804ab21:	e8 0d 8f 00 00       	call   8053a33 <dump_line>
 804ab26:	eb 25                	jmp    804ab4d <handle_token_rbrace+0xff>
test/unit/artifacts/cpp/modifiedFunctionsDetector/indent-2.2.9/indent.c:1230
 804ab28:	a1 e8 aa 05 08       	mov    0x805aae8,%eax
 804ab2d:	89 44 24 04          	mov    %eax,0x4(%esp)
 804ab31:	c7 04 24 11 00 00 00 	movl   $0x11,(%esp)
 804ab38:	e8 4d 86 00 00       	call   805318a <set_buf_break>
test/unit/artifacts/cpp/modifiedFunctionsDetector/indent-2.2.9/indent.c:1231
 804ab3d:	a1 84 aa 05 08       	mov    0x805aa84,%eax
 804ab42:	c6 00 20             	movb   $0x20,(%eax)
 804ab45:	83 c0 01             	add    $0x1,%eax
 804ab48:	a3 84 aa 05 08       	mov    %eax,0x805aa84
test/unit/artifacts/cpp/modifiedFunctionsDetector/indent-2.2.9/indent.c:1235
 804ab4d:	a1 84 aa 05 08       	mov    0x805aa84,%eax
 804ab52:	c6 00 7d             	movb   $0x7d,(%eax)
 804ab55:	83 c0 01             	add    $0x1,%eax
 804ab58:	a3 84 aa 05 08       	mov    %eax,0x805aa84
test/unit/artifacts/cpp/modifiedFunctionsDetector/indent-2.2.9/indent.c:1236
 804ab5d:	a1 fc ac 05 08       	mov    0x805acfc,%eax
 804ab62:	c7 80 9c 00 00 00 01 	movl   $0x1,0x9c(%eax)
 804ab69:	00 00 00 
test/unit/artifacts/cpp/modifiedFunctionsDetector/indent-2.2.9/indent.c:1238
 804ab6c:	a1 fc ac 05 08       	mov    0x805acfc,%eax
 804ab71:	8b 40 34             	mov    0x34(%eax),%eax
 804ab74:	85 c0                	test   %eax,%eax
 804ab76:	0f 84 86 00 00 00    	je     804ac02 <handle_token_rbrace+0x1b4>
test/unit/artifacts/cpp/modifiedFunctionsDetector/indent-2.2.9/indent.c:1239
 804ab7c:	a1 fc ac 05 08       	mov    0x805acfc,%eax
 804ab81:	8b 40 38             	mov    0x38(%eax),%eax
test/unit/artifacts/cpp/modifiedFunctionsDetector/indent-2.2.9/indent.c:1238
 804ab84:	85 c0                	test   %eax,%eax
 804ab86:	7e 7a                	jle    804ac02 <handle_token_rbrace+0x1b4>
test/unit/artifacts/cpp/modifiedFunctionsDetector/indent-2.2.9/indent.c:1243
 804ab88:	a1 fc ac 05 08       	mov    0x805acfc,%eax
 804ab8d:	8b 90 84 00 00 00    	mov    0x84(%eax),%edx
 804ab93:	83 ea 01             	sub    $0x1,%edx
 804ab96:	89 90 84 00 00 00    	mov    %edx,0x84(%eax)
test/unit/artifacts/cpp/modifiedFunctionsDetector/indent-2.2.9/indent.c:1245
 804ab9c:	a1 fc ac 05 08       	mov    0x805acfc,%eax
 804aba1:	8b 50 7c             	mov    0x7c(%eax),%edx
 804aba4:	83 ea 01             	sub    $0x1,%edx
 804aba7:	89 50 7c             	mov    %edx,0x7c(%eax)
 804abaa:	8b 40 7c             	mov    0x7c(%eax),%eax
 804abad:	85 c0                	test   %eax,%eax
 804abaf:	0f 89 af 00 00 00    	jns    804ac64 <handle_token_rbrace+0x216>
test/unit/artifacts/cpp/modifiedFunctionsDetector/indent-2.2.9/indent.c:1247
 804abb5:	a1 fc ac 05 08       	mov    0x805acfc,%eax
 804abba:	c7 40 7c 00 00 00 00 	movl   $0x0,0x7c(%eax)
test/unit/artifacts/cpp/modifiedFunctionsDetector/indent-2.2.9/indent.c:1248
 804abc1:	a1 74 ad 05 08       	mov    0x805ad74,%eax
 804abc6:	0f b6 00             	movzbl (%eax),%eax
 804abc9:	0f b6 c0             	movzbl %al,%eax
 804abcc:	89 c6                	mov    %eax,%esi
 804abce:	c7 04 24 eb 50 05 08 	movl   $0x80550eb,(%esp)
 804abd5:	e8 ca df ff ff       	call   8048ba4 <gettext@plt>
 804abda:	89 c3                	mov    %eax,%ebx
 804abdc:	c7 04 24 f4 50 05 08 	movl   $0x80550f4,(%esp)
 804abe3:	e8 bc df ff ff       	call   8048ba4 <gettext@plt>
 804abe8:	c7 44 24 0c 00 00 00 	movl   $0x0,0xc(%esp)
 804abef:	00 
 804abf0:	89 74 24 08          	mov    %esi,0x8(%esp)
 804abf4:	89 5c 24 04          	mov    %ebx,0x4(%esp)
 804abf8:	89 04 24             	mov    %eax,(%esp)
 804abfb:	e8 2b 79 00 00       	call   805252b <message>
test/unit/artifacts/cpp/modifiedFunctionsDetector/indent-2.2.9/indent.c:1238
 804ac00:	eb 63                	jmp    804ac65 <handle_token_rbrace+0x217>
test/unit/artifacts/cpp/modifiedFunctionsDetector/indent-2.2.9/indent.c:1252
 804ac02:	a1 fc ac 05 08       	mov    0x805acfc,%eax
 804ac07:	8b 40 58             	mov    0x58(%eax),%eax
 804ac0a:	85 c0                	test   %eax,%eax
 804ac0c:	7e 57                	jle    804ac65 <handle_token_rbrace+0x217>
test/unit/artifacts/cpp/modifiedFunctionsDetector/indent-2.2.9/indent.c:1257
 804ac0e:	8b 15 d0 aa 05 08    	mov    0x805aad0,%edx
 804ac14:	a1 fc ac 05 08       	mov    0x805acfc,%eax
 804ac19:	8b 48 58             	mov    0x58(%eax),%ecx
 804ac1c:	83 e9 01             	sub    $0x1,%ecx
 804ac1f:	89 48 58             	mov    %ecx,0x58(%eax)
 804ac22:	8b 40 58             	mov    0x58(%eax),%eax
 804ac25:	c1 e0 02             	shl    $0x2,%eax
 804ac28:	8d 04 02             	lea    (%edx,%eax,1),%eax
 804ac2b:	8b 10                	mov    (%eax),%edx
 804ac2d:	8b 45 0c             	mov    0xc(%ebp),%eax
 804ac30:	89 10                	mov    %edx,(%eax)
test/unit/artifacts/cpp/modifiedFunctionsDetector/indent-2.2.9/indent.c:1259
 804ac32:	a1 fc ac 05 08       	mov    0x805acfc,%eax
 804ac37:	8b 40 58             	mov    0x58(%eax),%eax
 804ac3a:	85 c0                	test   %eax,%eax
 804ac3c:	75 1b                	jne    804ac59 <handle_token_rbrace+0x20b>
test/unit/artifacts/cpp/modifiedFunctionsDetector/indent-2.2.9/indent.c:1260
 804ac3e:	a1 fc ac 05 08       	mov    0x805acfc,%eax
 804ac43:	8b 40 6c             	mov    0x6c(%eax),%eax
test/unit/artifacts/cpp/modifiedFunctionsDetector/indent-2.2.9/indent.c:1259
 804ac46:	85 c0                	test   %eax,%eax
 804ac48:	75 0f                	jne    804ac59 <handle_token_rbrace+0x20b>
test/unit/artifacts/cpp/modifiedFunctionsDetector/indent-2.2.9/indent.c:1262
 804ac4a:	a1 fc ac 05 08       	mov    0x805acfc,%eax
 804ac4f:	c7 80 bc 00 00 00 02 	movl   $0x2,0xbc(%eax)
 804ac56:	00 00 00 
test/unit/artifacts/cpp/modifiedFunctionsDetector/indent-2.2.9/indent.c:1265
 804ac59:	a1 fc ac 05 08       	mov    0x805acfc,%eax
 804ac5e:	c6 40 64 01          	movb   $0x1,0x64(%eax)
 804ac62:	eb 01                	jmp    804ac65 <handle_token_rbrace+0x217>
test/unit/artifacts/cpp/modifiedFunctionsDetector/indent-2.2.9/indent.c:1238
 804ac64:	90                   	nop
test/unit/artifacts/cpp/modifiedFunctionsDetector/indent-2.2.9/indent.c:1268
 804ac65:	c7 05 b8 aa 05 08 00 	movl   $0x0,0x805aab8
 804ac6c:	00 00 00 
test/unit/artifacts/cpp/modifiedFunctionsDetector/indent-2.2.9/indent.c:1270
 804ac6f:	c7 04 24 0e 00 00 00 	movl   $0xe,(%esp)
 804ac76:	e8 80 6c 00 00       	call   80518fb <parse>
 804ac7b:	85 c0                	test   %eax,%eax
 804ac7d:	74 09                	je     804ac88 <handle_token_rbrace+0x23a>
test/unit/artifacts/cpp/modifiedFunctionsDetector/indent-2.2.9/indent.c:1272
 804ac7f:	8b 45 10             	mov    0x10(%ebp),%eax
 804ac82:	c7 00 02 00 00 00    	movl   $0x2,(%eax)
test/unit/artifacts/cpp/modifiedFunctionsDetector/indent-2.2.9/indent.c:1275
 804ac88:	8b 15 fc ac 05 08    	mov    0x805acfc,%edx
test/unit/artifacts/cpp/modifiedFunctionsDetector/indent-2.2.9/indent.c:1276
 804ac8e:	a1 64 ab 05 08       	mov    0x805ab64,%eax
 804ac93:	85 c0                	test   %eax,%eax
 804ac95:	74 1d                	je     804acb4 <handle_token_rbrace+0x266>
test/unit/artifacts/cpp/modifiedFunctionsDetector/indent-2.2.9/indent.c:1277
 804ac97:	a1 fc ac 05 08       	mov    0x805acfc,%eax
 804ac9c:	8b 48 08             	mov    0x8(%eax),%ecx
 804ac9f:	a1 fc ac 05 08       	mov    0x805acfc,%eax
 804aca4:	8b 40 20             	mov    0x20(%eax),%eax
 804aca7:	c1 e0 02             	shl    $0x2,%eax
 804acaa:	8d 04 01             	lea    (%ecx,%eax,1),%eax
 804acad:	8b 00                	mov    (%eax),%eax
test/unit/artifacts/cpp/modifiedFunctionsDetector/indent-2.2.9/indent.c:1276
 804acaf:	83 f8 26             	cmp    $0x26,%eax
 804acb2:	74 26                	je     804acda <handle_token_rbrace+0x28c>
test/unit/artifacts/cpp/modifiedFunctionsDetector/indent-2.2.9/indent.c:1278
 804acb4:	a1 68 ab 05 08       	mov    0x805ab68,%eax
test/unit/artifacts/cpp/modifiedFunctionsDetector/indent-2.2.9/indent.c:1276
 804acb9:	85 c0                	test   %eax,%eax
 804acbb:	74 24                	je     804ace1 <handle_token_rbrace+0x293>
test/unit/artifacts/cpp/modifiedFunctionsDetector/indent-2.2.9/indent.c:1279
 804acbd:	a1 fc ac 05 08       	mov    0x805acfc,%eax
 804acc2:	8b 48 08             	mov    0x8(%eax),%ecx
 804acc5:	a1 fc ac 05 08       	mov    0x805acfc,%eax
 804acca:	8b 40 20             	mov    0x20(%eax),%eax
 804accd:	c1 e0 02             	shl    $0x2,%eax
 804acd0:	8d 04 01             	lea    (%ecx,%eax,1),%eax
 804acd3:	8b 00                	mov    (%eax),%eax
test/unit/artifacts/cpp/modifiedFunctionsDetector/indent-2.2.9/indent.c:1276
 804acd5:	83 f8 24             	cmp    $0x24,%eax
 804acd8:	75 07                	jne    804ace1 <handle_token_rbrace+0x293>
 804acda:	b8 01 00 00 00       	mov    $0x1,%eax
 804acdf:	eb 05                	jmp    804ace6 <handle_token_rbrace+0x298>
 804ace1:	b8 00 00 00 00       	mov    $0x0,%eax
test/unit/artifacts/cpp/modifiedFunctionsDetector/indent-2.2.9/indent.c:1275
 804ace6:	89 82 94 00 00 00    	mov    %eax,0x94(%edx)
test/unit/artifacts/cpp/modifiedFunctionsDetector/indent-2.2.9/indent.c:1281
 804acec:	a1 fc ac 05 08       	mov    0x805acfc,%eax
 804acf1:	8b 50 08             	mov    0x8(%eax),%edx
 804acf4:	a1 fc ac 05 08       	mov    0x805acfc,%eax
 804acf9:	8b 40 20             	mov    0x20(%eax),%eax
 804acfc:	c1 e0 02             	shl    $0x2,%eax
 804acff:	8d 04 02             	lea    (%edx,%eax,1),%eax
 804ad02:	8b 00                	mov    (%eax),%eax
 804ad04:	83 f8 21             	cmp    $0x21,%eax
 804ad07:	75 2d                	jne    804ad36 <handle_token_rbrace+0x2e8>
test/unit/artifacts/cpp/modifiedFunctionsDetector/indent-2.2.9/indent.c:1283
 804ad09:	a1 fc ac 05 08       	mov    0x805acfc,%eax
 804ad0e:	8b 40 14             	mov    0x14(%eax),%eax
 804ad11:	83 f8 05             	cmp    $0x5,%eax
 804ad14:	74 20                	je     804ad36 <handle_token_rbrace+0x2e8>
test/unit/artifacts/cpp/modifiedFunctionsDetector/indent-2.2.9/indent.c:1284
 804ad16:	a1 fc ac 05 08       	mov    0x805acfc,%eax
 804ad1b:	8b 40 14             	mov    0x14(%eax),%eax
test/unit/artifacts/cpp/modifiedFunctionsDetector/indent-2.2.9/indent.c:1283
 804ad1e:	83 f8 06             	cmp    $0x6,%eax
 804ad21:	74 13                	je     804ad36 <handle_token_rbrace+0x2e8>
test/unit/artifacts/cpp/modifiedFunctionsDetector/indent-2.2.9/indent.c:1285
 804ad23:	a1 fc ac 05 08       	mov    0x805acfc,%eax
 804ad28:	8b 40 14             	mov    0x14(%eax),%eax
test/unit/artifacts/cpp/modifiedFunctionsDetector/indent-2.2.9/indent.c:1283
 804ad2b:	83 f8 07             	cmp    $0x7,%eax
 804ad2e:	74 06                	je     804ad36 <handle_token_rbrace+0x2e8>
test/unit/artifacts/cpp/modifiedFunctionsDetector/indent-2.2.9/indent.c:1287
 804ad30:	8b 45 08             	mov    0x8(%ebp),%eax
 804ad33:	c6 00 01             	movb   $0x1,(%eax)
test/unit/artifacts/cpp/modifiedFunctionsDetector/indent-2.2.9/indent.c:1298
 804ad36:	a1 fc ac 05 08       	mov    0x805acfc,%eax
 804ad3b:	8b 50 08             	mov    0x8(%eax),%edx
 804ad3e:	a1 fc ac 05 08       	mov    0x805acfc,%eax
 804ad43:	8b 40 20             	mov    0x20(%eax),%eax
 804ad46:	c1 e0 02             	shl    $0x2,%eax
 804ad49:	8d 04 02             	lea    (%edx,%eax,1),%eax
 804ad4c:	8b 00                	mov    (%eax),%eax
 804ad4e:	83 f8 26             	cmp    $0x26,%eax
 804ad51:	74 2f                	je     804ad82 <handle_token_rbrace+0x334>
test/unit/artifacts/cpp/modifiedFunctionsDetector/indent-2.2.9/indent.c:1299
 804ad53:	a1 fc ac 05 08       	mov    0x805acfc,%eax
 804ad58:	8b 50 08             	mov    0x8(%eax),%edx
 804ad5b:	a1 fc ac 05 08       	mov    0x805acfc,%eax
 804ad60:	8b 40 20             	mov    0x20(%eax),%eax
 804ad63:	c1 e0 02             	shl    $0x2,%eax
 804ad66:	8d 04 02             	lea    (%edx,%eax,1),%eax
 804ad69:	8b 00                	mov    (%eax),%eax
test/unit/artifacts/cpp/modifiedFunctionsDetector/indent-2.2.9/indent.c:1298
 804ad6b:	83 f8 24             	cmp    $0x24,%eax
 804ad6e:	75 18                	jne    804ad88 <handle_token_rbrace+0x33a>
test/unit/artifacts/cpp/modifiedFunctionsDetector/indent-2.2.9/indent.c:1300
 804ad70:	a1 68 ab 05 08       	mov    0x805ab68,%eax
test/unit/artifacts/cpp/modifiedFunctionsDetector/indent-2.2.9/indent.c:1298
 804ad75:	85 c0                	test   %eax,%eax
 804ad77:	75 0f                	jne    804ad88 <handle_token_rbrace+0x33a>
test/unit/artifacts/cpp/modifiedFunctionsDetector/indent-2.2.9/indent.c:1300
 804ad79:	a1 d4 ab 05 08       	mov    0x805abd4,%eax
test/unit/artifacts/cpp/modifiedFunctionsDetector/indent-2.2.9/indent.c:1298
 804ad7e:	85 c0                	test   %eax,%eax
 804ad80:	75 06                	jne    804ad88 <handle_token_rbrace+0x33a>
test/unit/artifacts/cpp/modifiedFunctionsDetector/indent-2.2.9/indent.c:1302
 804ad82:	8b 45 08             	mov    0x8(%ebp),%eax
 804ad85:	c6 00 01             	movb   $0x1,(%eax)
test/unit/artifacts/cpp/modifiedFunctionsDetector/indent-2.2.9/indent.c:1305
 804ad88:	a1 fc ac 05 08       	mov    0x805acfc,%eax
 804ad8d:	0f b6 40 64          	movzbl 0x64(%eax),%eax
 804ad91:	84 c0                	test   %al,%al
 804ad93:	75 49                	jne    804adde <handle_token_rbrace+0x390>
 804ad95:	a1 fc ac 05 08       	mov    0x805acfc,%eax
 804ad9a:	8b 40 20             	mov    0x20(%eax),%eax
 804ad9d:	85 c0                	test   %eax,%eax
 804ad9f:	7f 3d                	jg     804adde <handle_token_rbrace+0x390>
test/unit/artifacts/cpp/modifiedFunctionsDetector/indent-2.2.9/indent.c:1306
 804ada1:	a1 8c ab 05 08       	mov    0x805ab8c,%eax
test/unit/artifacts/cpp/modifiedFunctionsDetector/indent-2.2.9/indent.c:1305
 804ada6:	85 c0                	test   %eax,%eax
 804ada8:	74 34                	je     804adde <handle_token_rbrace+0x390>
test/unit/artifacts/cpp/modifiedFunctionsDetector/indent-2.2.9/indent.c:1306
 804adaa:	a1 fc ac 05 08       	mov    0x805acfc,%eax
 804adaf:	8b 40 58             	mov    0x58(%eax),%eax
test/unit/artifacts/cpp/modifiedFunctionsDetector/indent-2.2.9/indent.c:1305
 804adb2:	85 c0                	test   %eax,%eax
 804adb4:	7f 28                	jg     804adde <handle_token_rbrace+0x390>
test/unit/artifacts/cpp/modifiedFunctionsDetector/indent-2.2.9/indent.c:1308
 804adb6:	c7 05 bc aa 05 08 01 	movl   $0x1,0x805aabc
 804adbd:	00 00 00 
test/unit/artifacts/cpp/modifiedFunctionsDetector/indent-2.2.9/indent.c:1310
 804adc0:	a1 fc ac 05 08       	mov    0x805acfc,%eax
 804adc5:	0f b6 40 64          	movzbl 0x64(%eax),%eax
test/unit/artifacts/cpp/modifiedFunctionsDetector/indent-2.2.9/indent.c:1309
 804adc9:	84 c0                	test   %al,%al
 804adcb:	74 07                	je     804add4 <handle_token_rbrace+0x386>
 804adcd:	b8 18 00 00 00       	mov    $0x18,%eax
 804add2:	eb 05                	jmp    804add9 <handle_token_rbrace+0x38b>
 804add4:	b8 0e 00 00 00       	mov    $0xe,%eax
 804add9:	a3 54 ad 05 08       	mov    %eax,0x805ad54
test/unit/artifacts/cpp/modifiedFunctionsDetector/indent-2.2.9/indent.c:1312
 804adde:	83 c4 10             	add    $0x10,%esp
 804ade1:	5b                   	pop    %ebx
 804ade2:	5e                   	pop    %esi
 804ade3:	5d                   	pop    %ebp
 804ade4:	c3                   	ret    

0804ade5 <handle_token_swstmt>:
handle_token_swstmt():
test/unit/artifacts/cpp/modifiedFunctionsDetector/indent-2.2.9/indent.c:1318
 804ade5:	55                   	push   %ebp
 804ade6:	89 e5                	mov    %esp,%ebp
test/unit/artifacts/cpp/modifiedFunctionsDetector/indent-2.2.9/indent.c:1320
 804ade8:	8b 45 08             	mov    0x8(%ebp),%eax
 804adeb:	c6 00 01             	movb   $0x1,(%eax)
test/unit/artifacts/cpp/modifiedFunctionsDetector/indent-2.2.9/indent.c:1321
 804adee:	8b 45 0c             	mov    0xc(%ebp),%eax
 804adf1:	c7 00 15 00 00 00    	movl   $0x15,(%eax)
test/unit/artifacts/cpp/modifiedFunctionsDetector/indent-2.2.9/indent.c:1323
 804adf7:	a1 fc ac 05 08       	mov    0x805acfc,%eax
 804adfc:	c6 40 64 00          	movb   $0x0,0x64(%eax)
test/unit/artifacts/cpp/modifiedFunctionsDetector/indent-2.2.9/indent.c:1324
 804ae00:	5d                   	pop    %ebp
 804ae01:	c3                   	ret    

0804ae02 <handle_token_sp_paren>:
handle_token_sp_paren():
test/unit/artifacts/cpp/modifiedFunctionsDetector/indent-2.2.9/indent.c:1330
 804ae02:	55                   	push   %ebp
 804ae03:	89 e5                	mov    %esp,%ebp
test/unit/artifacts/cpp/modifiedFunctionsDetector/indent-2.2.9/indent.c:1332
 804ae05:	8b 45 08             	mov    0x8(%ebp),%eax
 804ae08:	c6 00 01             	movb   $0x1,(%eax)
test/unit/artifacts/cpp/modifiedFunctionsDetector/indent-2.2.9/indent.c:1335
 804ae0b:	a1 74 ad 05 08       	mov    0x805ad74,%eax
test/unit/artifacts/cpp/modifiedFunctionsDetector/indent-2.2.9/indent.c:1336
 804ae10:	0f b6 00             	movzbl (%eax),%eax
test/unit/artifacts/cpp/modifiedFunctionsDetector/indent-2.2.9/indent.c:1335
 804ae13:	3c 69                	cmp    $0x69,%al
 804ae15:	74 1a                	je     804ae31 <handle_token_sp_paren+0x2f>
test/unit/artifacts/cpp/modifiedFunctionsDetector/indent-2.2.9/indent.c:1336
 804ae17:	a1 74 ad 05 08       	mov    0x805ad74,%eax
 804ae1c:	0f b6 00             	movzbl (%eax),%eax
test/unit/artifacts/cpp/modifiedFunctionsDetector/indent-2.2.9/indent.c:1335
 804ae1f:	3c 77                	cmp    $0x77,%al
 804ae21:	75 07                	jne    804ae2a <handle_token_sp_paren+0x28>
 804ae23:	b8 1e 00 00 00       	mov    $0x1e,%eax
 804ae28:	eb 05                	jmp    804ae2f <handle_token_sp_paren+0x2d>
 804ae2a:	b8 1f 00 00 00       	mov    $0x1f,%eax
 804ae2f:	eb 05                	jmp    804ae36 <handle_token_sp_paren+0x34>
 804ae31:	b8 1c 00 00 00       	mov    $0x1c,%eax
 804ae36:	8b 55 0c             	mov    0xc(%ebp),%edx
 804ae39:	89 02                	mov    %eax,(%edx)
test/unit/artifacts/cpp/modifiedFunctionsDetector/indent-2.2.9/indent.c:1337
 804ae3b:	5d                   	pop    %ebp
 804ae3c:	c3                   	ret    

0804ae3d <handle_token_nparen>:
handle_token_nparen():
test/unit/artifacts/cpp/modifiedFunctionsDetector/indent-2.2.9/indent.c:1344
 804ae3d:	55                   	push   %ebp
 804ae3e:	89 e5                	mov    %esp,%ebp
 804ae40:	53                   	push   %ebx
 804ae41:	83 ec 14             	sub    $0x14,%esp
test/unit/artifacts/cpp/modifiedFunctionsDetector/indent-2.2.9/indent.c:1345
 804ae44:	a1 fc ac 05 08       	mov    0x805acfc,%eax
 804ae49:	c7 40 68 00 00 00 00 	movl   $0x0,0x68(%eax)
test/unit/artifacts/cpp/modifiedFunctionsDetector/indent-2.2.9/indent.c:1346
 804ae50:	a1 74 ad 05 08       	mov    0x805ad74,%eax
 804ae55:	0f b6 00             	movzbl (%eax),%eax
 804ae58:	3c 65                	cmp    $0x65,%al
 804ae5a:	0f 85 b7 00 00 00    	jne    804af17 <handle_token_nparen+0xda>
test/unit/artifacts/cpp/modifiedFunctionsDetector/indent-2.2.9/indent.c:1348
 804ae60:	8b 15 84 aa 05 08    	mov    0x805aa84,%edx
 804ae66:	a1 80 aa 05 08       	mov    0x805aa80,%eax
 804ae6b:	39 c2                	cmp    %eax,%edx
 804ae6d:	74 7a                	je     804aee9 <handle_token_nparen+0xac>
 804ae6f:	a1 64 ab 05 08       	mov    0x805ab64,%eax
 804ae74:	85 c0                	test   %eax,%eax
 804ae76:	74 0f                	je     804ae87 <handle_token_nparen+0x4a>
 804ae78:	a1 84 aa 05 08       	mov    0x805aa84,%eax
 804ae7d:	83 e8 01             	sub    $0x1,%eax
 804ae80:	0f b6 00             	movzbl (%eax),%eax
 804ae83:	3c 7d                	cmp    $0x7d,%al
 804ae85:	74 62                	je     804aee9 <handle_token_nparen+0xac>
test/unit/artifacts/cpp/modifiedFunctionsDetector/indent-2.2.9/indent.c:1350
 804ae87:	a1 00 ab 05 08       	mov    0x805ab00,%eax
 804ae8c:	85 c0                	test   %eax,%eax
 804ae8e:	74 36                	je     804aec6 <handle_token_nparen+0x89>
test/unit/artifacts/cpp/modifiedFunctionsDetector/indent-2.2.9/indent.c:1352
 804ae90:	c7 04 24 18 51 05 08 	movl   $0x8055118,(%esp)
 804ae97:	e8 08 dd ff ff       	call   8048ba4 <gettext@plt>
 804ae9c:	89 c3                	mov    %eax,%ebx
 804ae9e:	c7 04 24 f4 50 05 08 	movl   $0x80550f4,(%esp)
 804aea5:	e8 fa dc ff ff       	call   8048ba4 <gettext@plt>
 804aeaa:	c7 44 24 0c 00 00 00 	movl   $0x0,0xc(%esp)
 804aeb1:	00 
 804aeb2:	c7 44 24 08 00 00 00 	movl   $0x0,0x8(%esp)
 804aeb9:	00 
 804aeba:	89 5c 24 04          	mov    %ebx,0x4(%esp)
 804aebe:	89 04 24             	mov    %eax,(%esp)
 804aec1:	e8 65 76 00 00       	call   805252b <message>
test/unit/artifacts/cpp/modifiedFunctionsDetector/indent-2.2.9/indent.c:1355
 804aec6:	c7 44 24 04 e8 aa 05 	movl   $0x805aae8,0x4(%esp)
 804aecd:	08 
 804aece:	c7 04 24 01 00 00 00 	movl   $0x1,(%esp)
 804aed5:	e8 59 8b 00 00       	call   8053a33 <dump_line>
test/unit/artifacts/cpp/modifiedFunctionsDetector/indent-2.2.9/indent.c:1356
 804aeda:	a1 fc ac 05 08       	mov    0x805acfc,%eax
 804aedf:	c7 80 9c 00 00 00 00 	movl   $0x0,0x9c(%eax)
 804aee6:	00 00 00 
test/unit/artifacts/cpp/modifiedFunctionsDetector/indent-2.2.9/indent.c:1361
 804aee9:	8b 45 08             	mov    0x8(%ebp),%eax
 804aeec:	c6 00 01             	movb   $0x1,(%eax)
test/unit/artifacts/cpp/modifiedFunctionsDetector/indent-2.2.9/indent.c:1363
 804aeef:	8b 45 10             	mov    0x10(%ebp),%eax
 804aef2:	c6 00 01             	movb   $0x1,(%eax)
test/unit/artifacts/cpp/modifiedFunctionsDetector/indent-2.2.9/indent.c:1365
 804aef5:	c7 04 24 22 00 00 00 	movl   $0x22,(%esp)
 804aefc:	e8 fa 69 00 00       	call   80518fb <parse>
 804af01:	85 c0                	test   %eax,%eax
 804af03:	0f 84 a6 00 00 00    	je     804afaf <handle_token_nparen+0x172>
test/unit/artifacts/cpp/modifiedFunctionsDetector/indent-2.2.9/indent.c:1367
 804af09:	8b 45 0c             	mov    0xc(%ebp),%eax
 804af0c:	c7 00 02 00 00 00    	movl   $0x2,(%eax)
 804af12:	e9 99 00 00 00       	jmp    804afb0 <handle_token_nparen+0x173>
test/unit/artifacts/cpp/modifiedFunctionsDetector/indent-2.2.9/indent.c:1372
 804af17:	8b 15 84 aa 05 08    	mov    0x805aa84,%edx
 804af1d:	a1 80 aa 05 08       	mov    0x805aa80,%eax
 804af22:	39 c2                	cmp    %eax,%edx
 804af24:	74 62                	je     804af88 <handle_token_nparen+0x14b>
test/unit/artifacts/cpp/modifiedFunctionsDetector/indent-2.2.9/indent.c:1376
 804af26:	a1 00 ab 05 08       	mov    0x805ab00,%eax
 804af2b:	85 c0                	test   %eax,%eax
 804af2d:	74 36                	je     804af65 <handle_token_nparen+0x128>
test/unit/artifacts/cpp/modifiedFunctionsDetector/indent-2.2.9/indent.c:1378
 804af2f:	c7 04 24 18 51 05 08 	movl   $0x8055118,(%esp)
 804af36:	e8 69 dc ff ff       	call   8048ba4 <gettext@plt>
 804af3b:	89 c3                	mov    %eax,%ebx
 804af3d:	c7 04 24 f4 50 05 08 	movl   $0x80550f4,(%esp)
 804af44:	e8 5b dc ff ff       	call   8048ba4 <gettext@plt>
 804af49:	c7 44 24 0c 00 00 00 	movl   $0x0,0xc(%esp)
 804af50:	00 
 804af51:	c7 44 24 08 00 00 00 	movl   $0x0,0x8(%esp)
 804af58:	00 
 804af59:	89 5c 24 04          	mov    %ebx,0x4(%esp)
 804af5d:	89 04 24             	mov    %eax,(%esp)
 804af60:	e8 c6 75 00 00       	call   805252b <message>
test/unit/artifacts/cpp/modifiedFunctionsDetector/indent-2.2.9/indent.c:1381
 804af65:	c7 44 24 04 e8 aa 05 	movl   $0x805aae8,0x4(%esp)
 804af6c:	08 
 804af6d:	c7 04 24 01 00 00 00 	movl   $0x1,(%esp)
 804af74:	e8 ba 8a 00 00       	call   8053a33 <dump_line>
test/unit/artifacts/cpp/modifiedFunctionsDetector/indent-2.2.9/indent.c:1382
 804af79:	a1 fc ac 05 08       	mov    0x805acfc,%eax
 804af7e:	c7 80 9c 00 00 00 00 	movl   $0x0,0x9c(%eax)
 804af85:	00 00 00 
test/unit/artifacts/cpp/modifiedFunctionsDetector/indent-2.2.9/indent.c:1385
 804af88:	8b 45 08             	mov    0x8(%ebp),%eax
 804af8b:	c6 00 01             	movb   $0x1,(%eax)
test/unit/artifacts/cpp/modifiedFunctionsDetector/indent-2.2.9/indent.c:1387
 804af8e:	8b 45 10             	mov    0x10(%ebp),%eax
 804af91:	c6 00 00             	movb   $0x0,(%eax)
test/unit/artifacts/cpp/modifiedFunctionsDetector/indent-2.2.9/indent.c:1389
 804af94:	c7 04 24 23 00 00 00 	movl   $0x23,(%esp)
 804af9b:	e8 5b 69 00 00       	call   80518fb <parse>
 804afa0:	85 c0                	test   %eax,%eax
 804afa2:	74 0c                	je     804afb0 <handle_token_nparen+0x173>
test/unit/artifacts/cpp/modifiedFunctionsDetector/indent-2.2.9/indent.c:1391
 804afa4:	8b 45 0c             	mov    0xc(%ebp),%eax
 804afa7:	c7 00 02 00 00 00    	movl   $0x2,(%eax)
 804afad:	eb 01                	jmp    804afb0 <handle_token_nparen+0x173>
test/unit/artifacts/cpp/modifiedFunctionsDetector/indent-2.2.9/indent.c:1367
 804afaf:	90                   	nop
test/unit/artifacts/cpp/modifiedFunctionsDetector/indent-2.2.9/indent.c:1394
 804afb0:	83 c4 14             	add    $0x14,%esp
 804afb3:	5b                   	pop    %ebx
 804afb4:	5d                   	pop    %ebp
 804afb5:	c3                   	ret    

0804afb6 <handle_token_overloaded>:
handle_token_overloaded():
test/unit/artifacts/cpp/modifiedFunctionsDetector/indent-2.2.9/indent.c:1399
 804afb6:	55                   	push   %ebp
 804afb7:	89 e5                	mov    %esp,%ebp
 804afb9:	83 ec 28             	sub    $0x28,%esp
test/unit/artifacts/cpp/modifiedFunctionsDetector/indent-2.2.9/indent.c:1402
 804afbc:	a1 fc ac 05 08       	mov    0x805acfc,%eax
 804afc1:	8b 80 9c 00 00 00    	mov    0x9c(%eax),%eax
 804afc7:	85 c0                	test   %eax,%eax
 804afc9:	74 27                	je     804aff2 <handle_token_overloaded+0x3c>
test/unit/artifacts/cpp/modifiedFunctionsDetector/indent-2.2.9/indent.c:1404
 804afcb:	a1 e8 aa 05 08       	mov    0x805aae8,%eax
 804afd0:	89 44 24 04          	mov    %eax,0x4(%esp)
 804afd4:	c7 04 24 12 00 00 00 	movl   $0x12,(%esp)
 804afdb:	e8 aa 81 00 00       	call   805318a <set_buf_break>
test/unit/artifacts/cpp/modifiedFunctionsDetector/indent-2.2.9/indent.c:1405
 804afe0:	a1 84 aa 05 08       	mov    0x805aa84,%eax
 804afe5:	c6 00 20             	movb   $0x20,(%eax)
 804afe8:	83 c0 01             	add    $0x1,%eax
 804afeb:	a3 84 aa 05 08       	mov    %eax,0x805aa84
 804aff0:	eb 1a                	jmp    804b00c <handle_token_overloaded+0x56>
test/unit/artifacts/cpp/modifiedFunctionsDetector/indent-2.2.9/indent.c:1407
 804aff2:	83 7d 08 00          	cmpl   $0x0,0x8(%ebp)
 804aff6:	74 14                	je     804b00c <handle_token_overloaded+0x56>
test/unit/artifacts/cpp/modifiedFunctionsDetector/indent-2.2.9/indent.c:1409
 804aff8:	a1 e8 aa 05 08       	mov    0x805aae8,%eax
 804affd:	89 44 24 04          	mov    %eax,0x4(%esp)
 804b001:	8b 45 08             	mov    0x8(%ebp),%eax
 804b004:	89 04 24             	mov    %eax,(%esp)
 804b007:	e8 7e 81 00 00       	call   805318a <set_buf_break>
test/unit/artifacts/cpp/modifiedFunctionsDetector/indent-2.2.9/indent.c:1412
 804b00c:	a1 fc ac 05 08       	mov    0x805acfc,%eax
 804b011:	c7 80 9c 00 00 00 01 	movl   $0x1,0x9c(%eax)
 804b018:	00 00 00 
test/unit/artifacts/cpp/modifiedFunctionsDetector/indent-2.2.9/indent.c:1414
 804b01b:	a1 74 ad 05 08       	mov    0x805ad74,%eax
 804b020:	89 45 f4             	mov    %eax,-0xc(%ebp)
 804b023:	eb 1e                	jmp    804b043 <handle_token_overloaded+0x8d>
test/unit/artifacts/cpp/modifiedFunctionsDetector/indent-2.2.9/indent.c:1416
 804b025:	e8 3a de ff ff       	call   8048e64 <check_code_size>
test/unit/artifacts/cpp/modifiedFunctionsDetector/indent-2.2.9/indent.c:1417
 804b02a:	a1 84 aa 05 08       	mov    0x805aa84,%eax
 804b02f:	8b 55 f4             	mov    -0xc(%ebp),%edx
 804b032:	0f b6 12             	movzbl (%edx),%edx
 804b035:	88 10                	mov    %dl,(%eax)
 804b037:	83 c0 01             	add    $0x1,%eax
 804b03a:	a3 84 aa 05 08       	mov    %eax,0x805aa84
test/unit/artifacts/cpp/modifiedFunctionsDetector/indent-2.2.9/indent.c:1414
 804b03f:	83 45 f4 01          	addl   $0x1,-0xc(%ebp)
 804b043:	a1 78 ad 05 08       	mov    0x805ad78,%eax
 804b048:	39 45 f4             	cmp    %eax,-0xc(%ebp)
 804b04b:	72 d8                	jb     804b025 <handle_token_overloaded+0x6f>
test/unit/artifacts/cpp/modifiedFunctionsDetector/indent-2.2.9/indent.c:1420
 804b04d:	a1 84 aa 05 08       	mov    0x805aa84,%eax
 804b052:	c6 00 00             	movb   $0x0,(%eax)
test/unit/artifacts/cpp/modifiedFunctionsDetector/indent-2.2.9/indent.c:1421
 804b055:	c9                   	leave  
 804b056:	c3                   	ret    

0804b057 <handle_token_decl>:
handle_token_decl():
test/unit/artifacts/cpp/modifiedFunctionsDetector/indent-2.2.9/indent.c:1427
 804b057:	55                   	push   %ebp
 804b058:	89 e5                	mov    %esp,%ebp
 804b05a:	83 ec 28             	sub    $0x28,%esp
test/unit/artifacts/cpp/modifiedFunctionsDetector/indent-2.2.9/indent.c:1435
 804b05d:	a1 fc ac 05 08       	mov    0x805acfc,%eax
 804b062:	8b 40 04             	mov    0x4(%eax),%eax
 804b065:	83 f8 03             	cmp    $0x3,%eax
 804b068:	0f 85 a5 00 00 00    	jne    804b113 <handle_token_decl+0xbc>
test/unit/artifacts/cpp/modifiedFunctionsDetector/indent-2.2.9/indent.c:1436
 804b06e:	a1 fc ac 05 08       	mov    0x805acfc,%eax
 804b073:	8b 40 6c             	mov    0x6c(%eax),%eax
test/unit/artifacts/cpp/modifiedFunctionsDetector/indent-2.2.9/indent.c:1435
 804b076:	85 c0                	test   %eax,%eax
 804b078:	0f 84 95 00 00 00    	je     804b113 <handle_token_decl+0xbc>
test/unit/artifacts/cpp/modifiedFunctionsDetector/indent-2.2.9/indent.c:1437
 804b07e:	a1 fc ac 05 08       	mov    0x805acfc,%eax
 804b083:	8b 40 44             	mov    0x44(%eax),%eax
test/unit/artifacts/cpp/modifiedFunctionsDetector/indent-2.2.9/indent.c:1435
 804b086:	85 c0                	test   %eax,%eax
 804b088:	0f 84 85 00 00 00    	je     804b113 <handle_token_decl+0xbc>
test/unit/artifacts/cpp/modifiedFunctionsDetector/indent-2.2.9/indent.c:1438
 804b08e:	a1 74 ad 05 08       	mov    0x805ad74,%eax
 804b093:	c7 44 24 08 05 00 00 	movl   $0x5,0x8(%esp)
 804b09a:	00 
 804b09b:	c7 44 24 04 24 51 05 	movl   $0x8055124,0x4(%esp)
 804b0a2:	08 
 804b0a3:	89 04 24             	mov    %eax,(%esp)
 804b0a6:	e8 a9 dc ff ff       	call   8048d54 <strncmp@plt>
test/unit/artifacts/cpp/modifiedFunctionsDetector/indent-2.2.9/indent.c:1435
 804b0ab:	85 c0                	test   %eax,%eax
 804b0ad:	75 64                	jne    804b113 <handle_token_decl+0xbc>
test/unit/artifacts/cpp/modifiedFunctionsDetector/indent-2.2.9/indent.c:1441
 804b0af:	a1 e8 aa 05 08       	mov    0x805aae8,%eax
 804b0b4:	89 44 24 04          	mov    %eax,0x4(%esp)
 804b0b8:	c7 04 24 13 00 00 00 	movl   $0x13,(%esp)
 804b0bf:	e8 c6 80 00 00       	call   805318a <set_buf_break>
test/unit/artifacts/cpp/modifiedFunctionsDetector/indent-2.2.9/indent.c:1442
 804b0c4:	a1 84 aa 05 08       	mov    0x805aa84,%eax
 804b0c9:	c6 00 20             	movb   $0x20,(%eax)
 804b0cc:	83 c0 01             	add    $0x1,%eax
 804b0cf:	a3 84 aa 05 08       	mov    %eax,0x805aa84
test/unit/artifacts/cpp/modifiedFunctionsDetector/indent-2.2.9/indent.c:1444
 804b0d4:	a1 74 ad 05 08       	mov    0x805ad74,%eax
 804b0d9:	89 45 f4             	mov    %eax,-0xc(%ebp)
 804b0dc:	eb 1e                	jmp    804b0fc <handle_token_decl+0xa5>
test/unit/artifacts/cpp/modifiedFunctionsDetector/indent-2.2.9/indent.c:1446
 804b0de:	e8 81 dd ff ff       	call   8048e64 <check_code_size>
test/unit/artifacts/cpp/modifiedFunctionsDetector/indent-2.2.9/indent.c:1447
 804b0e3:	a1 84 aa 05 08       	mov    0x805aa84,%eax
 804b0e8:	8b 55 f4             	mov    -0xc(%ebp),%edx
 804b0eb:	0f b6 12             	movzbl (%edx),%edx
 804b0ee:	88 10                	mov    %dl,(%eax)
 804b0f0:	83 c0 01             	add    $0x1,%eax
 804b0f3:	a3 84 aa 05 08       	mov    %eax,0x805aa84
test/unit/artifacts/cpp/modifiedFunctionsDetector/indent-2.2.9/indent.c:1444
 804b0f8:	83 45 f4 01          	addl   $0x1,-0xc(%ebp)
 804b0fc:	a1 78 ad 05 08       	mov    0x805ad78,%eax
 804b101:	39 45 f4             	cmp    %eax,-0xc(%ebp)
 804b104:	72 d8                	jb     804b0de <handle_token_decl+0x87>
test/unit/artifacts/cpp/modifiedFunctionsDetector/indent-2.2.9/indent.c:1450
 804b106:	a1 84 aa 05 08       	mov    0x805aa84,%eax
 804b10b:	c6 00 00             	movb   $0x0,(%eax)
test/unit/artifacts/cpp/modifiedFunctionsDetector/indent-2.2.9/indent.c:1435
 804b10e:	e9 ae 01 00 00       	jmp    804b2c1 <handle_token_decl+0x26a>
test/unit/artifacts/cpp/modifiedFunctionsDetector/indent-2.2.9/indent.c:1455
 804b113:	a1 fc ac 05 08       	mov    0x805acfc,%eax
 804b118:	8b 40 30             	mov    0x30(%eax),%eax
 804b11b:	85 c0                	test   %eax,%eax
 804b11d:	75 19                	jne    804b138 <handle_token_decl+0xe1>
test/unit/artifacts/cpp/modifiedFunctionsDetector/indent-2.2.9/indent.c:1457
 804b11f:	c7 04 24 18 00 00 00 	movl   $0x18,(%esp)
 804b126:	e8 d0 67 00 00       	call   80518fb <parse>
 804b12b:	85 c0                	test   %eax,%eax
 804b12d:	74 09                	je     804b138 <handle_token_decl+0xe1>
test/unit/artifacts/cpp/modifiedFunctionsDetector/indent-2.2.9/indent.c:1459
 804b12f:	8b 45 0c             	mov    0xc(%ebp),%eax
 804b132:	c7 00 02 00 00 00    	movl   $0x2,(%eax)
test/unit/artifacts/cpp/modifiedFunctionsDetector/indent-2.2.9/indent.c:1463
 804b138:	a1 fc ac 05 08       	mov    0x805acfc,%eax
 804b13d:	8b 40 04             	mov    0x4(%eax),%eax
 804b140:	83 f8 03             	cmp    $0x3,%eax
 804b143:	75 4b                	jne    804b190 <handle_token_decl+0x139>
test/unit/artifacts/cpp/modifiedFunctionsDetector/indent-2.2.9/indent.c:1464
 804b145:	a1 fc ac 05 08       	mov    0x805acfc,%eax
 804b14a:	8b 40 20             	mov    0x20(%eax),%eax
test/unit/artifacts/cpp/modifiedFunctionsDetector/indent-2.2.9/indent.c:1463
 804b14d:	83 f8 01             	cmp    $0x1,%eax
 804b150:	7f 3e                	jg     804b190 <handle_token_decl+0x139>
test/unit/artifacts/cpp/modifiedFunctionsDetector/indent-2.2.9/indent.c:1466
 804b152:	a1 fc ac 05 08       	mov    0x805acfc,%eax
 804b157:	c7 40 6c 01 00 00 00 	movl   $0x1,0x6c(%eax)
test/unit/artifacts/cpp/modifiedFunctionsDetector/indent-2.2.9/indent.c:1468
 804b15e:	8b 15 80 aa 05 08    	mov    0x805aa80,%edx
 804b164:	a1 84 aa 05 08       	mov    0x805aa84,%eax
 804b169:	39 c2                	cmp    %eax,%edx
 804b16b:	74 23                	je     804b190 <handle_token_decl+0x139>
test/unit/artifacts/cpp/modifiedFunctionsDetector/indent-2.2.9/indent.c:1470
 804b16d:	c7 44 24 04 e8 aa 05 	movl   $0x805aae8,0x4(%esp)
 804b174:	08 
 804b175:	c7 04 24 01 00 00 00 	movl   $0x1,(%esp)
 804b17c:	e8 b2 88 00 00       	call   8053a33 <dump_line>
test/unit/artifacts/cpp/modifiedFunctionsDetector/indent-2.2.9/indent.c:1471
 804b181:	a1 fc ac 05 08       	mov    0x805acfc,%eax
 804b186:	c7 80 9c 00 00 00 00 	movl   $0x0,0x9c(%eax)
 804b18d:	00 00 00 
test/unit/artifacts/cpp/modifiedFunctionsDetector/indent-2.2.9/indent.c:1475
 804b190:	a1 fc ac 05 08       	mov    0x805acfc,%eax
 804b195:	8b 40 6c             	mov    0x6c(%eax),%eax
 804b198:	85 c0                	test   %eax,%eax
 804b19a:	74 3e                	je     804b1da <handle_token_decl+0x183>
test/unit/artifacts/cpp/modifiedFunctionsDetector/indent-2.2.9/indent.c:1476
 804b19c:	a1 fc ac 05 08       	mov    0x805acfc,%eax
 804b1a1:	8b 40 58             	mov    0x58(%eax),%eax
test/unit/artifacts/cpp/modifiedFunctionsDetector/indent-2.2.9/indent.c:1475
 804b1a4:	85 c0                	test   %eax,%eax
 804b1a6:	75 32                	jne    804b1da <handle_token_decl+0x183>
test/unit/artifacts/cpp/modifiedFunctionsDetector/indent-2.2.9/indent.c:1477
 804b1a8:	a1 fc ac 05 08       	mov    0x805acfc,%eax
 804b1ad:	8b 40 7c             	mov    0x7c(%eax),%eax
test/unit/artifacts/cpp/modifiedFunctionsDetector/indent-2.2.9/indent.c:1475
 804b1b0:	85 c0                	test   %eax,%eax
 804b1b2:	75 26                	jne    804b1da <handle_token_decl+0x183>
test/unit/artifacts/cpp/modifiedFunctionsDetector/indent-2.2.9/indent.c:1479
 804b1b4:	8b 15 fc ac 05 08    	mov    0x805acfc,%edx
 804b1ba:	a1 fc ac 05 08       	mov    0x805acfc,%eax
test/unit/artifacts/cpp/modifiedFunctionsDetector/indent-2.2.9/indent.c:1480
 804b1bf:	8b 0d a4 ab 05 08    	mov    0x805aba4,%ecx
test/unit/artifacts/cpp/modifiedFunctionsDetector/indent-2.2.9/indent.c:1479
 804b1c5:	89 48 60             	mov    %ecx,0x60(%eax)
 804b1c8:	8b 40 60             	mov    0x60(%eax),%eax
 804b1cb:	89 42 70             	mov    %eax,0x70(%edx)
test/unit/artifacts/cpp/modifiedFunctionsDetector/indent-2.2.9/indent.c:1482
 804b1ce:	a1 fc ac 05 08       	mov    0x805acfc,%eax
 804b1d3:	c7 40 74 00 00 00 00 	movl   $0x0,0x74(%eax)
test/unit/artifacts/cpp/modifiedFunctionsDetector/indent-2.2.9/indent.c:1488
 804b1da:	a1 fc ac 05 08       	mov    0x805acfc,%eax
 804b1df:	8b 80 84 00 00 00    	mov    0x84(%eax),%eax
 804b1e5:	85 c0                	test   %eax,%eax
 804b1e7:	75 0c                	jne    804b1f5 <handle_token_decl+0x19e>
test/unit/artifacts/cpp/modifiedFunctionsDetector/indent-2.2.9/indent.c:1490
 804b1e9:	a1 fc ac 05 08       	mov    0x805acfc,%eax
 804b1ee:	c7 40 4c 01 00 00 00 	movl   $0x1,0x4c(%eax)
test/unit/artifacts/cpp/modifiedFunctionsDetector/indent-2.2.9/indent.c:1493
 804b1f5:	a1 fc ac 05 08       	mov    0x805acfc,%eax
 804b1fa:	8b 40 30             	mov    0x30(%eax),%eax
 804b1fd:	85 c0                	test   %eax,%eax
 804b1ff:	75 30                	jne    804b231 <handle_token_decl+0x1da>
test/unit/artifacts/cpp/modifiedFunctionsDetector/indent-2.2.9/indent.c:1495
 804b201:	a1 fc ac 05 08       	mov    0x805acfc,%eax
 804b206:	c6 40 64 01          	movb   $0x1,0x64(%eax)
test/unit/artifacts/cpp/modifiedFunctionsDetector/indent-2.2.9/indent.c:1496
 804b20a:	a1 fc ac 05 08       	mov    0x805acfc,%eax
 804b20f:	c7 40 5c 01 00 00 00 	movl   $0x1,0x5c(%eax)
test/unit/artifacts/cpp/modifiedFunctionsDetector/indent-2.2.9/indent.c:1498
 804b216:	a1 fc ac 05 08       	mov    0x805acfc,%eax
 804b21b:	8b 40 58             	mov    0x58(%eax),%eax
 804b21e:	85 c0                	test   %eax,%eax
 804b220:	7f 0f                	jg     804b231 <handle_token_decl+0x1da>
test/unit/artifacts/cpp/modifiedFunctionsDetector/indent-2.2.9/indent.c:1500
 804b222:	a1 fc ac 05 08       	mov    0x805acfc,%eax
 804b227:	c7 80 bc 00 00 00 02 	movl   $0x2,0xbc(%eax)
 804b22e:	00 00 00 
test/unit/artifacts/cpp/modifiedFunctionsDetector/indent-2.2.9/indent.c:1504
 804b231:	a1 b8 aa 05 08       	mov    0x805aab8,%eax
 804b236:	85 c0                	test   %eax,%eax
 804b238:	74 5d                	je     804b297 <handle_token_decl+0x240>
test/unit/artifacts/cpp/modifiedFunctionsDetector/indent-2.2.9/indent.c:1505
 804b23a:	a1 fc ac 05 08       	mov    0x805acfc,%eax
 804b23f:	8b 40 34             	mov    0x34(%eax),%eax
test/unit/artifacts/cpp/modifiedFunctionsDetector/indent-2.2.9/indent.c:1504
 804b242:	85 c0                	test   %eax,%eax
 804b244:	75 47                	jne    804b28d <handle_token_decl+0x236>
test/unit/artifacts/cpp/modifiedFunctionsDetector/indent-2.2.9/indent.c:1506
 804b246:	a1 fc ac 05 08       	mov    0x805acfc,%eax
 804b24b:	8b 40 38             	mov    0x38(%eax),%eax
test/unit/artifacts/cpp/modifiedFunctionsDetector/indent-2.2.9/indent.c:1504
 804b24e:	83 f8 ff             	cmp    $0xffffffff,%eax
 804b251:	75 3a                	jne    804b28d <handle_token_decl+0x236>
test/unit/artifacts/cpp/modifiedFunctionsDetector/indent-2.2.9/indent.c:1507
 804b253:	a1 fc ac 05 08       	mov    0x805acfc,%eax
 804b258:	8b 40 04             	mov    0x4(%eax),%eax
test/unit/artifacts/cpp/modifiedFunctionsDetector/indent-2.2.9/indent.c:1504
 804b25b:	83 f8 0e             	cmp    $0xe,%eax
 804b25e:	75 2d                	jne    804b28d <handle_token_decl+0x236>
test/unit/artifacts/cpp/modifiedFunctionsDetector/indent-2.2.9/indent.c:1508
 804b260:	8b 15 84 aa 05 08    	mov    0x805aa84,%edx
 804b266:	a1 80 aa 05 08       	mov    0x805aa80,%eax
test/unit/artifacts/cpp/modifiedFunctionsDetector/indent-2.2.9/indent.c:1504
 804b26b:	39 c2                	cmp    %eax,%edx
 804b26d:	75 1e                	jne    804b28d <handle_token_decl+0x236>
test/unit/artifacts/cpp/modifiedFunctionsDetector/indent-2.2.9/indent.c:1509
 804b26f:	8b 15 74 aa 05 08    	mov    0x805aa74,%edx
 804b275:	a1 70 aa 05 08       	mov    0x805aa70,%eax
test/unit/artifacts/cpp/modifiedFunctionsDetector/indent-2.2.9/indent.c:1504
 804b27a:	39 c2                	cmp    %eax,%edx
 804b27c:	75 0f                	jne    804b28d <handle_token_decl+0x236>
test/unit/artifacts/cpp/modifiedFunctionsDetector/indent-2.2.9/indent.c:1510
 804b27e:	8b 15 94 aa 05 08    	mov    0x805aa94,%edx
 804b284:	a1 90 aa 05 08       	mov    0x805aa90,%eax
test/unit/artifacts/cpp/modifiedFunctionsDetector/indent-2.2.9/indent.c:1504
 804b289:	39 c2                	cmp    %eax,%edx
 804b28b:	74 0a                	je     804b297 <handle_token_decl+0x240>
test/unit/artifacts/cpp/modifiedFunctionsDetector/indent-2.2.9/indent.c:1512
 804b28d:	c7 05 b8 aa 05 08 00 	movl   $0x0,0x805aab8
 804b294:	00 00 00 
test/unit/artifacts/cpp/modifiedFunctionsDetector/indent-2.2.9/indent.c:1515
 804b297:	a1 a8 ab 05 08       	mov    0x805aba8,%eax
 804b29c:	85 c0                	test   %eax,%eax
 804b29e:	7e 07                	jle    804b2a7 <handle_token_decl+0x250>
 804b2a0:	a1 a8 ab 05 08       	mov    0x805aba8,%eax
 804b2a5:	eb 15                	jmp    804b2bc <handle_token_decl+0x265>
test/unit/artifacts/cpp/modifiedFunctionsDetector/indent-2.2.9/indent.c:1516
 804b2a7:	a1 78 ad 05 08       	mov    0x805ad78,%eax
 804b2ac:	89 c2                	mov    %eax,%edx
 804b2ae:	a1 74 ad 05 08       	mov    0x805ad74,%eax
 804b2b3:	89 d1                	mov    %edx,%ecx
 804b2b5:	29 c1                	sub    %eax,%ecx
 804b2b7:	89 c8                	mov    %ecx,%eax
test/unit/artifacts/cpp/modifiedFunctionsDetector/indent-2.2.9/indent.c:1515
 804b2b9:	83 c0 01             	add    $0x1,%eax
 804b2bc:	8b 55 08             	mov    0x8(%ebp),%edx
 804b2bf:	89 02                	mov    %eax,(%edx)
test/unit/artifacts/cpp/modifiedFunctionsDetector/indent-2.2.9/indent.c:1518
 804b2c1:	c9                   	leave  
 804b2c2:	c3                   	ret    

0804b2c3 <handle_token_ident>:
handle_token_ident():
test/unit/artifacts/cpp/modifiedFunctionsDetector/indent-2.2.9/indent.c:1529
 804b2c3:	55                   	push   %ebp
 804b2c4:	89 e5                	mov    %esp,%ebp
 804b2c6:	83 ec 28             	sub    $0x28,%esp
 804b2c9:	8b 45 20             	mov    0x20(%ebp),%eax
 804b2cc:	88 45 f4             	mov    %al,-0xc(%ebp)
test/unit/artifacts/cpp/modifiedFunctionsDetector/indent-2.2.9/indent.c:1533
 804b2cf:	a1 fc ac 05 08       	mov    0x805acfc,%eax
 804b2d4:	0f b6 40 64          	movzbl 0x64(%eax),%eax
 804b2d8:	84 c0                	test   %al,%al
 804b2da:	0f 84 7c 01 00 00    	je     804b45c <handle_token_ident+0x199>
test/unit/artifacts/cpp/modifiedFunctionsDetector/indent-2.2.9/indent.c:1534
 804b2e0:	a1 fc ac 05 08       	mov    0x805acfc,%eax
 804b2e5:	8b 40 7c             	mov    0x7c(%eax),%eax
test/unit/artifacts/cpp/modifiedFunctionsDetector/indent-2.2.9/indent.c:1533
 804b2e8:	85 c0                	test   %eax,%eax
 804b2ea:	0f 85 6c 01 00 00    	jne    804b45c <handle_token_ident+0x199>
test/unit/artifacts/cpp/modifiedFunctionsDetector/indent-2.2.9/indent.c:1535
 804b2f0:	a1 fc ac 05 08       	mov    0x805acfc,%eax
 804b2f5:	8b 40 04             	mov    0x4(%eax),%eax
test/unit/artifacts/cpp/modifiedFunctionsDetector/indent-2.2.9/indent.c:1533
 804b2f8:	83 f8 0e             	cmp    $0xe,%eax
 804b2fb:	0f 84 5b 01 00 00    	je     804b45c <handle_token_ident+0x199>
test/unit/artifacts/cpp/modifiedFunctionsDetector/indent-2.2.9/indent.c:1537
 804b301:	a1 fc ac 05 08       	mov    0x805acfc,%eax
 804b306:	8b 80 9c 00 00 00    	mov    0x9c(%eax),%eax
 804b30c:	85 c0                	test   %eax,%eax
 804b30e:	74 2f                	je     804b33f <handle_token_ident+0x7c>
test/unit/artifacts/cpp/modifiedFunctionsDetector/indent-2.2.9/indent.c:1539
 804b310:	a1 e8 aa 05 08       	mov    0x805aae8,%eax
 804b315:	89 44 24 04          	mov    %eax,0x4(%esp)
 804b319:	c7 04 24 14 00 00 00 	movl   $0x14,(%esp)
 804b320:	e8 65 7e 00 00       	call   805318a <set_buf_break>
test/unit/artifacts/cpp/modifiedFunctionsDetector/indent-2.2.9/indent.c:1540
 804b325:	a1 84 aa 05 08       	mov    0x805aa84,%eax
 804b32a:	c6 00 20             	movb   $0x20,(%eax)
 804b32d:	83 c0 01             	add    $0x1,%eax
 804b330:	a3 84 aa 05 08       	mov    %eax,0x805aa84
test/unit/artifacts/cpp/modifiedFunctionsDetector/indent-2.2.9/indent.c:1541
 804b335:	a1 84 aa 05 08       	mov    0x805aa84,%eax
 804b33a:	c6 00 00             	movb   $0x0,(%eax)
 804b33d:	eb 1a                	jmp    804b359 <handle_token_ident+0x96>
test/unit/artifacts/cpp/modifiedFunctionsDetector/indent-2.2.9/indent.c:1543
 804b33f:	83 7d 1c 00          	cmpl   $0x0,0x1c(%ebp)
 804b343:	74 14                	je     804b359 <handle_token_ident+0x96>
test/unit/artifacts/cpp/modifiedFunctionsDetector/indent-2.2.9/indent.c:1545
 804b345:	a1 e8 aa 05 08       	mov    0x805aae8,%eax
 804b34a:	89 44 24 04          	mov    %eax,0x4(%esp)
 804b34e:	8b 45 1c             	mov    0x1c(%ebp),%eax
 804b351:	89 04 24             	mov    %eax,(%esp)
 804b354:	e8 31 7e 00 00       	call   805318a <set_buf_break>
test/unit/artifacts/cpp/modifiedFunctionsDetector/indent-2.2.9/indent.c:1548
 804b359:	a1 fc ac 05 08       	mov    0x805acfc,%eax
 804b35e:	c7 80 9c 00 00 00 00 	movl   $0x0,0x9c(%eax)
 804b365:	00 00 00 
test/unit/artifacts/cpp/modifiedFunctionsDetector/indent-2.2.9/indent.c:1550
 804b368:	80 7d f4 00          	cmpb   $0x0,-0xc(%ebp)
 804b36c:	74 20                	je     804b38e <handle_token_ident+0xcb>
test/unit/artifacts/cpp/modifiedFunctionsDetector/indent-2.2.9/indent.c:1551
 804b36e:	a1 2c ab 05 08       	mov    0x805ab2c,%eax
test/unit/artifacts/cpp/modifiedFunctionsDetector/indent-2.2.9/indent.c:1550
 804b373:	85 c0                	test   %eax,%eax
 804b375:	0f 85 97 00 00 00    	jne    804b412 <handle_token_ident+0x14f>
test/unit/artifacts/cpp/modifiedFunctionsDetector/indent-2.2.9/indent.c:1551
 804b37b:	8b 15 80 aa 05 08    	mov    0x805aa80,%edx
 804b381:	a1 84 aa 05 08       	mov    0x805aa84,%eax
test/unit/artifacts/cpp/modifiedFunctionsDetector/indent-2.2.9/indent.c:1550
 804b386:	39 c2                	cmp    %eax,%edx
 804b388:	0f 84 84 00 00 00    	je     804b412 <handle_token_ident+0x14f>
test/unit/artifacts/cpp/modifiedFunctionsDetector/indent-2.2.9/indent.c:1553
 804b38e:	a1 fc ac 05 08       	mov    0x805acfc,%eax
 804b393:	8b 40 34             	mov    0x34(%eax),%eax
 804b396:	85 c0                	test   %eax,%eax
 804b398:	75 72                	jne    804b40c <handle_token_ident+0x149>
 804b39a:	a1 40 ad 05 08       	mov    0x805ad40,%eax
 804b39f:	85 c0                	test   %eax,%eax
 804b3a1:	75 69                	jne    804b40c <handle_token_ident+0x149>
test/unit/artifacts/cpp/modifiedFunctionsDetector/indent-2.2.9/indent.c:1555
 804b3a3:	80 7d f4 00          	cmpb   $0x0,-0xc(%ebp)
 804b3a7:	74 37                	je     804b3e0 <handle_token_ident+0x11d>
test/unit/artifacts/cpp/modifiedFunctionsDetector/indent-2.2.9/indent.c:1557
 804b3a9:	8b 45 14             	mov    0x14(%ebp),%eax
 804b3ac:	c7 00 00 00 00 00    	movl   $0x0,(%eax)
test/unit/artifacts/cpp/modifiedFunctionsDetector/indent-2.2.9/indent.c:1560
 804b3b2:	eb 2d                	jmp    804b3e1 <handle_token_ident+0x11e>
test/unit/artifacts/cpp/modifiedFunctionsDetector/indent-2.2.9/indent.c:1562
 804b3b4:	e8 ab da ff ff       	call   8048e64 <check_code_size>
test/unit/artifacts/cpp/modifiedFunctionsDetector/indent-2.2.9/indent.c:1563
 804b3b9:	a1 e8 aa 05 08       	mov    0x805aae8,%eax
 804b3be:	89 44 24 04          	mov    %eax,0x4(%esp)
 804b3c2:	c7 04 24 05 00 00 00 	movl   $0x5,(%esp)
 804b3c9:	e8 bc 7d 00 00       	call   805318a <set_buf_break>
test/unit/artifacts/cpp/modifiedFunctionsDetector/indent-2.2.9/indent.c:1564
 804b3ce:	a1 84 aa 05 08       	mov    0x805aa84,%eax
 804b3d3:	c6 00 20             	movb   $0x20,(%eax)
 804b3d6:	83 c0 01             	add    $0x1,%eax
 804b3d9:	a3 84 aa 05 08       	mov    %eax,0x805aa84
 804b3de:	eb 01                	jmp    804b3e1 <handle_token_ident+0x11e>
test/unit/artifacts/cpp/modifiedFunctionsDetector/indent-2.2.9/indent.c:1560
 804b3e0:	90                   	nop
 804b3e1:	a1 84 aa 05 08       	mov    0x805aa84,%eax
 804b3e6:	89 c2                	mov    %eax,%edx
 804b3e8:	a1 80 aa 05 08       	mov    0x805aa80,%eax
 804b3ed:	29 c2                	sub    %eax,%edx
 804b3ef:	8b 45 14             	mov    0x14(%ebp),%eax
 804b3f2:	8b 00                	mov    (%eax),%eax
 804b3f4:	39 c2                	cmp    %eax,%edx
 804b3f6:	7c bc                	jl     804b3b4 <handle_token_ident+0xf1>
test/unit/artifacts/cpp/modifiedFunctionsDetector/indent-2.2.9/indent.c:1567
 804b3f8:	a1 84 aa 05 08       	mov    0x805aa84,%eax
 804b3fd:	c6 00 00             	movb   $0x0,(%eax)
test/unit/artifacts/cpp/modifiedFunctionsDetector/indent-2.2.9/indent.c:1568
 804b400:	a1 fc ac 05 08       	mov    0x805acfc,%eax
 804b405:	c7 40 74 00 00 00 00 	movl   $0x0,0x74(%eax)
test/unit/artifacts/cpp/modifiedFunctionsDetector/indent-2.2.9/indent.c:1550
 804b40c:	90                   	nop
test/unit/artifacts/cpp/modifiedFunctionsDetector/indent-2.2.9/indent.c:1533
 804b40d:	e9 9e 00 00 00       	jmp    804b4b0 <handle_token_ident+0x1ed>
test/unit/artifacts/cpp/modifiedFunctionsDetector/indent-2.2.9/indent.c:1573
 804b412:	8b 15 80 aa 05 08    	mov    0x805aa80,%edx
 804b418:	a1 84 aa 05 08       	mov    0x805aa84,%eax
 804b41d:	39 c2                	cmp    %eax,%edx
 804b41f:	74 21                	je     804b442 <handle_token_ident+0x17f>
test/unit/artifacts/cpp/modifiedFunctionsDetector/indent-2.2.9/indent.c:1574
 804b421:	a1 fc ac 05 08       	mov    0x805acfc,%eax
 804b426:	8b 40 04             	mov    0x4(%eax),%eax
test/unit/artifacts/cpp/modifiedFunctionsDetector/indent-2.2.9/indent.c:1573
 804b429:	83 f8 0b             	cmp    $0xb,%eax
 804b42c:	74 14                	je     804b442 <handle_token_ident+0x17f>
test/unit/artifacts/cpp/modifiedFunctionsDetector/indent-2.2.9/indent.c:1576
 804b42e:	c7 44 24 04 e8 aa 05 	movl   $0x805aae8,0x4(%esp)
 804b435:	08 
 804b436:	c7 04 24 01 00 00 00 	movl   $0x1,(%esp)
 804b43d:	e8 f1 85 00 00       	call   8053a33 <dump_line>
test/unit/artifacts/cpp/modifiedFunctionsDetector/indent-2.2.9/indent.c:1579
 804b442:	8b 45 14             	mov    0x14(%ebp),%eax
 804b445:	c7 00 00 00 00 00    	movl   $0x0,(%eax)
test/unit/artifacts/cpp/modifiedFunctionsDetector/indent-2.2.9/indent.c:1580
 804b44b:	a1 fc ac 05 08       	mov    0x805acfc,%eax
 804b450:	c7 80 9c 00 00 00 00 	movl   $0x0,0x9c(%eax)
 804b457:	00 00 00 
test/unit/artifacts/cpp/modifiedFunctionsDetector/indent-2.2.9/indent.c:1533
 804b45a:	eb 54                	jmp    804b4b0 <handle_token_ident+0x1ed>
test/unit/artifacts/cpp/modifiedFunctionsDetector/indent-2.2.9/indent.c:1583
 804b45c:	8b 45 0c             	mov    0xc(%ebp),%eax
 804b45f:	0f b6 00             	movzbl (%eax),%eax
 804b462:	84 c0                	test   %al,%al
 804b464:	74 4a                	je     804b4b0 <handle_token_ident+0x1ed>
 804b466:	a1 fc ac 05 08       	mov    0x805acfc,%eax
 804b46b:	8b 40 7c             	mov    0x7c(%eax),%eax
 804b46e:	85 c0                	test   %eax,%eax
 804b470:	75 3e                	jne    804b4b0 <handle_token_ident+0x1ed>
test/unit/artifacts/cpp/modifiedFunctionsDetector/indent-2.2.9/indent.c:1585
 804b472:	8b 45 0c             	mov    0xc(%ebp),%eax
 804b475:	c6 00 00             	movb   $0x0,(%eax)
test/unit/artifacts/cpp/modifiedFunctionsDetector/indent-2.2.9/indent.c:1586
 804b478:	8b 45 08             	mov    0x8(%ebp),%eax
 804b47b:	c6 00 01             	movb   $0x1,(%eax)
test/unit/artifacts/cpp/modifiedFunctionsDetector/indent-2.2.9/indent.c:1587
 804b47e:	a1 fc ac 05 08       	mov    0x805acfc,%eax
 804b483:	c7 40 78 01 00 00 00 	movl   $0x1,0x78(%eax)
test/unit/artifacts/cpp/modifiedFunctionsDetector/indent-2.2.9/indent.c:1588
 804b48a:	a1 fc ac 05 08       	mov    0x805acfc,%eax
 804b48f:	c7 40 68 00 00 00 00 	movl   $0x0,0x68(%eax)
test/unit/artifacts/cpp/modifiedFunctionsDetector/indent-2.2.9/indent.c:1590
 804b496:	8b 45 10             	mov    0x10(%ebp),%eax
 804b499:	8b 00                	mov    (%eax),%eax
 804b49b:	89 04 24             	mov    %eax,(%esp)
 804b49e:	e8 58 64 00 00       	call   80518fb <parse>
 804b4a3:	85 c0                	test   %eax,%eax
 804b4a5:	74 09                	je     804b4b0 <handle_token_ident+0x1ed>
test/unit/artifacts/cpp/modifiedFunctionsDetector/indent-2.2.9/indent.c:1592
 804b4a7:	8b 45 18             	mov    0x18(%ebp),%eax
 804b4aa:	c7 00 02 00 00 00    	movl   $0x2,(%eax)
test/unit/artifacts/cpp/modifiedFunctionsDetector/indent-2.2.9/indent.c:1595
 804b4b0:	c9                   	leave  
 804b4b1:	c3                   	ret    

0804b4b2 <handle_token_struct_delim>:
handle_token_struct_delim():
test/unit/artifacts/cpp/modifiedFunctionsDetector/indent-2.2.9/indent.c:1600
 804b4b2:	55                   	push   %ebp
 804b4b3:	89 e5                	mov    %esp,%ebp
 804b4b5:	83 ec 18             	sub    $0x18,%esp
test/unit/artifacts/cpp/modifiedFunctionsDetector/indent-2.2.9/indent.c:1602
 804b4b8:	a1 74 ad 05 08       	mov    0x805ad74,%eax
 804b4bd:	89 45 f4             	mov    %eax,-0xc(%ebp)
 804b4c0:	eb 1e                	jmp    804b4e0 <handle_token_struct_delim+0x2e>
test/unit/artifacts/cpp/modifiedFunctionsDetector/indent-2.2.9/indent.c:1604
 804b4c2:	e8 9d d9 ff ff       	call   8048e64 <check_code_size>
test/unit/artifacts/cpp/modifiedFunctionsDetector/indent-2.2.9/indent.c:1605
 804b4c7:	a1 84 aa 05 08       	mov    0x805aa84,%eax
 804b4cc:	8b 55 f4             	mov    -0xc(%ebp),%edx
 804b4cf:	0f b6 12             	movzbl (%edx),%edx
 804b4d2:	88 10                	mov    %dl,(%eax)
 804b4d4:	83 c0 01             	add    $0x1,%eax
 804b4d7:	a3 84 aa 05 08       	mov    %eax,0x805aa84
test/unit/artifacts/cpp/modifiedFunctionsDetector/indent-2.2.9/indent.c:1602
 804b4dc:	83 45 f4 01          	addl   $0x1,-0xc(%ebp)
 804b4e0:	a1 78 ad 05 08       	mov    0x805ad78,%eax
 804b4e5:	39 45 f4             	cmp    %eax,-0xc(%ebp)
 804b4e8:	72 d8                	jb     804b4c2 <handle_token_struct_delim+0x10>
test/unit/artifacts/cpp/modifiedFunctionsDetector/indent-2.2.9/indent.c:1608
 804b4ea:	a1 fc ac 05 08       	mov    0x805acfc,%eax
 804b4ef:	c7 80 9c 00 00 00 00 	movl   $0x0,0x9c(%eax)
 804b4f6:	00 00 00 
test/unit/artifacts/cpp/modifiedFunctionsDetector/indent-2.2.9/indent.c:1610
 804b4f9:	a1 fc ac 05 08       	mov    0x805acfc,%eax
 804b4fe:	c7 80 a0 00 00 00 16 	movl   $0x16,0xa0(%eax)
 804b505:	00 00 00 
test/unit/artifacts/cpp/modifiedFunctionsDetector/indent-2.2.9/indent.c:1611
 804b508:	c9                   	leave  
 804b509:	c3                   	ret    

0804b50a <handle_token_comma>:
handle_token_comma():
test/unit/artifacts/cpp/modifiedFunctionsDetector/indent-2.2.9/indent.c:1618
 804b50a:	55                   	push   %ebp
 804b50b:	89 e5                	mov    %esp,%ebp
 804b50d:	83 ec 28             	sub    $0x28,%esp
 804b510:	8b 45 10             	mov    0x10(%ebp),%eax
 804b513:	88 45 f4             	mov    %al,-0xc(%ebp)
test/unit/artifacts/cpp/modifiedFunctionsDetector/indent-2.2.9/indent.c:1619
 804b516:	a1 fc ac 05 08       	mov    0x805acfc,%eax
 804b51b:	c7 80 9c 00 00 00 01 	movl   $0x1,0x9c(%eax)
 804b522:	00 00 00 
test/unit/artifacts/cpp/modifiedFunctionsDetector/indent-2.2.9/indent.c:1621
 804b525:	a1 fc ac 05 08       	mov    0x805acfc,%eax
 804b52a:	8b 80 84 00 00 00    	mov    0x84(%eax),%eax
 804b530:	85 c0                	test   %eax,%eax
 804b532:	75 7a                	jne    804b5ae <handle_token_comma+0xa4>
test/unit/artifacts/cpp/modifiedFunctionsDetector/indent-2.2.9/indent.c:1622
 804b534:	a1 fc ac 05 08       	mov    0x805acfc,%eax
 804b539:	0f b6 40 64          	movzbl 0x64(%eax),%eax
test/unit/artifacts/cpp/modifiedFunctionsDetector/indent-2.2.9/indent.c:1621
 804b53d:	84 c0                	test   %al,%al
 804b53f:	74 6d                	je     804b5ae <handle_token_comma+0xa4>
test/unit/artifacts/cpp/modifiedFunctionsDetector/indent-2.2.9/indent.c:1623
 804b541:	a1 40 ad 05 08       	mov    0x805ad40,%eax
test/unit/artifacts/cpp/modifiedFunctionsDetector/indent-2.2.9/indent.c:1621
 804b546:	85 c0                	test   %eax,%eax
 804b548:	75 64                	jne    804b5ae <handle_token_comma+0xa4>
 804b54a:	80 7d f4 00          	cmpb   $0x0,-0xc(%ebp)
 804b54e:	75 5e                	jne    804b5ae <handle_token_comma+0xa4>
test/unit/artifacts/cpp/modifiedFunctionsDetector/indent-2.2.9/indent.c:1624
 804b550:	a1 fc ac 05 08       	mov    0x805acfc,%eax
 804b555:	8b 40 34             	mov    0x34(%eax),%eax
test/unit/artifacts/cpp/modifiedFunctionsDetector/indent-2.2.9/indent.c:1621
 804b558:	85 c0                	test   %eax,%eax
 804b55a:	75 52                	jne    804b5ae <handle_token_comma+0xa4>
test/unit/artifacts/cpp/modifiedFunctionsDetector/indent-2.2.9/indent.c:1626
 804b55c:	eb 2a                	jmp    804b588 <handle_token_comma+0x7e>
test/unit/artifacts/cpp/modifiedFunctionsDetector/indent-2.2.9/indent.c:1628
 804b55e:	e8 01 d9 ff ff       	call   8048e64 <check_code_size>
test/unit/artifacts/cpp/modifiedFunctionsDetector/indent-2.2.9/indent.c:1629
 804b563:	a1 e8 aa 05 08       	mov    0x805aae8,%eax
 804b568:	89 44 24 04          	mov    %eax,0x4(%esp)
 804b56c:	c7 04 24 05 00 00 00 	movl   $0x5,(%esp)
 804b573:	e8 12 7c 00 00       	call   805318a <set_buf_break>
test/unit/artifacts/cpp/modifiedFunctionsDetector/indent-2.2.9/indent.c:1630
 804b578:	a1 84 aa 05 08       	mov    0x805aa84,%eax
 804b57d:	c6 00 20             	movb   $0x20,(%eax)
 804b580:	83 c0 01             	add    $0x1,%eax
 804b583:	a3 84 aa 05 08       	mov    %eax,0x805aa84
test/unit/artifacts/cpp/modifiedFunctionsDetector/indent-2.2.9/indent.c:1626
 804b588:	a1 84 aa 05 08       	mov    0x805aa84,%eax
 804b58d:	89 c2                	mov    %eax,%edx
 804b58f:	a1 80 aa 05 08       	mov    0x805aa80,%eax
 804b594:	29 c2                	sub    %eax,%edx
 804b596:	8b 45 0c             	mov    0xc(%ebp),%eax
 804b599:	8b 00                	mov    (%eax),%eax
 804b59b:	83 e8 01             	sub    $0x1,%eax
 804b59e:	39 c2                	cmp    %eax,%edx
 804b5a0:	7c bc                	jl     804b55e <handle_token_comma+0x54>
test/unit/artifacts/cpp/modifiedFunctionsDetector/indent-2.2.9/indent.c:1633
 804b5a2:	a1 fc ac 05 08       	mov    0x805acfc,%eax
 804b5a7:	c7 40 74 00 00 00 00 	movl   $0x0,0x74(%eax)
test/unit/artifacts/cpp/modifiedFunctionsDetector/indent-2.2.9/indent.c:1636
 804b5ae:	a1 84 aa 05 08       	mov    0x805aa84,%eax
 804b5b3:	c6 00 2c             	movb   $0x2c,(%eax)
 804b5b6:	83 c0 01             	add    $0x1,%eax
 804b5b9:	a3 84 aa 05 08       	mov    %eax,0x805aa84
test/unit/artifacts/cpp/modifiedFunctionsDetector/indent-2.2.9/indent.c:1638
 804b5be:	a1 fc ac 05 08       	mov    0x805acfc,%eax
 804b5c3:	8b 40 7c             	mov    0x7c(%eax),%eax
 804b5c6:	85 c0                	test   %eax,%eax
 804b5c8:	75 30                	jne    804b5fa <handle_token_comma+0xf0>
test/unit/artifacts/cpp/modifiedFunctionsDetector/indent-2.2.9/indent.c:1640
 804b5ca:	a1 fc ac 05 08       	mov    0x805acfc,%eax
 804b5cf:	8b 40 38             	mov    0x38(%eax),%eax
 804b5d2:	85 c0                	test   %eax,%eax
 804b5d4:	7f 0c                	jg     804b5e2 <handle_token_comma+0xd8>
test/unit/artifacts/cpp/modifiedFunctionsDetector/indent-2.2.9/indent.c:1642
 804b5d6:	a1 fc ac 05 08       	mov    0x805acfc,%eax
 804b5db:	c7 40 34 00 00 00 00 	movl   $0x0,0x34(%eax)
test/unit/artifacts/cpp/modifiedFunctionsDetector/indent-2.2.9/indent.c:1649
 804b5e2:	a1 b0 aa 05 08       	mov    0x805aab0,%eax
 804b5e7:	85 c0                	test   %eax,%eax
 804b5e9:	74 0f                	je     804b5fa <handle_token_comma+0xf0>
 804b5eb:	a1 7c ab 05 08       	mov    0x805ab7c,%eax
 804b5f0:	85 c0                	test   %eax,%eax
 804b5f2:	75 06                	jne    804b5fa <handle_token_comma+0xf0>
test/unit/artifacts/cpp/modifiedFunctionsDetector/indent-2.2.9/indent.c:1651
 804b5f4:	8b 45 08             	mov    0x8(%ebp),%eax
 804b5f7:	c6 00 01             	movb   $0x1,(%eax)
test/unit/artifacts/cpp/modifiedFunctionsDetector/indent-2.2.9/indent.c:1655
 804b5fa:	a1 fc ac 05 08       	mov    0x805acfc,%eax
 804b5ff:	8b 40 34             	mov    0x34(%eax),%eax
 804b602:	85 c0                	test   %eax,%eax
 804b604:	74 0c                	je     804b612 <handle_token_comma+0x108>
test/unit/artifacts/cpp/modifiedFunctionsDetector/indent-2.2.9/indent.c:1657
 804b606:	a1 fc ac 05 08       	mov    0x805acfc,%eax
 804b60b:	c7 40 68 00 00 00 00 	movl   $0x0,0x68(%eax)
test/unit/artifacts/cpp/modifiedFunctionsDetector/indent-2.2.9/indent.c:1663
 804b612:	a1 74 ab 05 08       	mov    0x805ab74,%eax
 804b617:	85 c0                	test   %eax,%eax
 804b619:	74 2b                	je     804b646 <handle_token_comma+0x13c>
test/unit/artifacts/cpp/modifiedFunctionsDetector/indent-2.2.9/indent.c:1664
 804b61b:	a1 fc ac 05 08       	mov    0x805acfc,%eax
 804b620:	8b 40 4c             	mov    0x4c(%eax),%eax
test/unit/artifacts/cpp/modifiedFunctionsDetector/indent-2.2.9/indent.c:1663
 804b623:	85 c0                	test   %eax,%eax
 804b625:	75 1f                	jne    804b646 <handle_token_comma+0x13c>
test/unit/artifacts/cpp/modifiedFunctionsDetector/indent-2.2.9/indent.c:1665
 804b627:	a1 fc ac 05 08       	mov    0x805acfc,%eax
 804b62c:	8b 40 68             	mov    0x68(%eax),%eax
test/unit/artifacts/cpp/modifiedFunctionsDetector/indent-2.2.9/indent.c:1663
 804b62f:	85 c0                	test   %eax,%eax
 804b631:	74 13                	je     804b646 <handle_token_comma+0x13c>
test/unit/artifacts/cpp/modifiedFunctionsDetector/indent-2.2.9/indent.c:1665
 804b633:	a1 fc ac 05 08       	mov    0x805acfc,%eax
 804b638:	0f b6 40 64          	movzbl 0x64(%eax),%eax
test/unit/artifacts/cpp/modifiedFunctionsDetector/indent-2.2.9/indent.c:1663
 804b63c:	84 c0                	test   %al,%al
 804b63e:	74 06                	je     804b646 <handle_token_comma+0x13c>
test/unit/artifacts/cpp/modifiedFunctionsDetector/indent-2.2.9/indent.c:1667
 804b640:	8b 45 08             	mov    0x8(%ebp),%eax
 804b643:	c6 00 01             	movb   $0x1,(%eax)
test/unit/artifacts/cpp/modifiedFunctionsDetector/indent-2.2.9/indent.c:1670
 804b646:	c9                   	leave  
 804b647:	c3                   	ret    

0804b648 <handle_token_preesc>:
handle_token_preesc():
test/unit/artifacts/cpp/modifiedFunctionsDetector/indent-2.2.9/indent.c:1675
 804b648:	55                   	push   %ebp
 804b649:	89 e5                	mov    %esp,%ebp
 804b64b:	53                   	push   %ebx
 804b64c:	83 ec 54             	sub    $0x54,%esp
test/unit/artifacts/cpp/modifiedFunctionsDetector/indent-2.2.9/indent.c:1679
 804b64f:	8b 15 90 aa 05 08    	mov    0x805aa90,%edx
 804b655:	a1 94 aa 05 08       	mov    0x805aa94,%eax
 804b65a:	39 c2                	cmp    %eax,%edx
 804b65c:	75 1e                	jne    804b67c <handle_token_preesc+0x34>
 804b65e:	8b 15 70 aa 05 08    	mov    0x805aa70,%edx
 804b664:	a1 74 aa 05 08       	mov    0x805aa74,%eax
 804b669:	39 c2                	cmp    %eax,%edx
 804b66b:	75 0f                	jne    804b67c <handle_token_preesc+0x34>
 804b66d:	8b 15 80 aa 05 08    	mov    0x805aa80,%edx
 804b673:	a1 84 aa 05 08       	mov    0x805aa84,%eax
 804b678:	39 c2                	cmp    %eax,%edx
 804b67a:	74 14                	je     804b690 <handle_token_preesc+0x48>
test/unit/artifacts/cpp/modifiedFunctionsDetector/indent-2.2.9/indent.c:1681
 804b67c:	c7 44 24 04 e8 aa 05 	movl   $0x805aae8,0x4(%esp)
 804b683:	08 
 804b684:	c7 04 24 01 00 00 00 	movl   $0x1,(%esp)
 804b68b:	e8 a3 83 00 00       	call   8053a33 <dump_line>
test/unit/artifacts/cpp/modifiedFunctionsDetector/indent-2.2.9/indent.c:1685
 804b690:	c7 45 e8 00 00 00 00 	movl   $0x0,-0x18(%ebp)
test/unit/artifacts/cpp/modifiedFunctionsDetector/indent-2.2.9/indent.c:1686
 804b697:	c7 45 e4 00 00 00 00 	movl   $0x0,-0x1c(%ebp)
test/unit/artifacts/cpp/modifiedFunctionsDetector/indent-2.2.9/indent.c:1687
 804b69e:	c7 45 e0 00 00 00 00 	movl   $0x0,-0x20(%ebp)
test/unit/artifacts/cpp/modifiedFunctionsDetector/indent-2.2.9/indent.c:1688
 804b6a5:	c6 45 f7 00          	movb   $0x0,-0x9(%ebp)
test/unit/artifacts/cpp/modifiedFunctionsDetector/indent-2.2.9/indent.c:1689
 804b6a9:	c7 45 dc 00 00 00 00 	movl   $0x0,-0x24(%ebp)
test/unit/artifacts/cpp/modifiedFunctionsDetector/indent-2.2.9/indent.c:1696
 804b6b0:	a1 74 ad 05 08       	mov    0x805ad74,%eax
 804b6b5:	89 45 f0             	mov    %eax,-0x10(%ebp)
 804b6b8:	eb 1e                	jmp    804b6d8 <handle_token_preesc+0x90>
test/unit/artifacts/cpp/modifiedFunctionsDetector/indent-2.2.9/indent.c:1698
 804b6ba:	e8 36 d8 ff ff       	call   8048ef5 <check_lab_size>
test/unit/artifacts/cpp/modifiedFunctionsDetector/indent-2.2.9/indent.c:1699
 804b6bf:	a1 74 aa 05 08       	mov    0x805aa74,%eax
 804b6c4:	8b 55 f0             	mov    -0x10(%ebp),%edx
 804b6c7:	0f b6 12             	movzbl (%edx),%edx
 804b6ca:	88 10                	mov    %dl,(%eax)
 804b6cc:	83 c0 01             	add    $0x1,%eax
 804b6cf:	a3 74 aa 05 08       	mov    %eax,0x805aa74
test/unit/artifacts/cpp/modifiedFunctionsDetector/indent-2.2.9/indent.c:1696
 804b6d4:	83 45 f0 01          	addl   $0x1,-0x10(%ebp)
 804b6d8:	a1 78 ad 05 08       	mov    0x805ad78,%eax
 804b6dd:	39 45 f0             	cmp    %eax,-0x10(%ebp)
 804b6e0:	72 d8                	jb     804b6ba <handle_token_preesc+0x72>
test/unit/artifacts/cpp/modifiedFunctionsDetector/indent-2.2.9/indent.c:1702
 804b6e2:	e9 25 02 00 00       	jmp    804b90c <handle_token_preesc+0x2c4>
test/unit/artifacts/cpp/modifiedFunctionsDetector/indent-2.2.9/indent.c:1704
 804b6e7:	e8 09 d8 ff ff       	call   8048ef5 <check_lab_size>
test/unit/artifacts/cpp/modifiedFunctionsDetector/indent-2.2.9/indent.c:1705
 804b6ec:	8b 15 74 aa 05 08    	mov    0x805aa74,%edx
 804b6f2:	a1 04 ad 05 08       	mov    0x805ad04,%eax
 804b6f7:	0f b6 08             	movzbl (%eax),%ecx
 804b6fa:	88 0a                	mov    %cl,(%edx)
 804b6fc:	83 c0 01             	add    $0x1,%eax
 804b6ff:	a3 04 ad 05 08       	mov    %eax,0x805ad04
test/unit/artifacts/cpp/modifiedFunctionsDetector/indent-2.2.9/indent.c:1707
 804b704:	8b 15 04 ad 05 08    	mov    0x805ad04,%edx
 804b70a:	a1 08 ad 05 08       	mov    0x805ad08,%eax
 804b70f:	39 c2                	cmp    %eax,%edx
 804b711:	72 05                	jb     804b718 <handle_token_preesc+0xd0>
test/unit/artifacts/cpp/modifiedFunctionsDetector/indent-2.2.9/indent.c:1709
 804b713:	e8 a7 75 00 00       	call   8052cbf <fill_buffer>
test/unit/artifacts/cpp/modifiedFunctionsDetector/indent-2.2.9/indent.c:1712
 804b718:	8b 15 74 aa 05 08    	mov    0x805aa74,%edx
 804b71e:	0f b6 02             	movzbl (%edx),%eax
 804b721:	0f be c0             	movsbl %al,%eax
 804b724:	83 c2 01             	add    $0x1,%edx
 804b727:	89 15 74 aa 05 08    	mov    %edx,0x805aa74
 804b72d:	83 f8 2a             	cmp    $0x2a,%eax
 804b730:	0f 84 6c 01 00 00    	je     804b8a2 <handle_token_preesc+0x25a>
 804b736:	83 f8 2a             	cmp    $0x2a,%eax
 804b739:	7f 17                	jg     804b752 <handle_token_preesc+0x10a>
 804b73b:	83 f8 22             	cmp    $0x22,%eax
 804b73e:	0f 84 2f 01 00 00    	je     804b873 <handle_token_preesc+0x22b>
 804b744:	83 f8 27             	cmp    $0x27,%eax
 804b747:	0f 84 26 01 00 00    	je     804b873 <handle_token_preesc+0x22b>
 804b74d:	e9 ba 01 00 00       	jmp    804b90c <handle_token_preesc+0x2c4>
 804b752:	83 f8 2f             	cmp    $0x2f,%eax
 804b755:	74 5b                	je     804b7b2 <handle_token_preesc+0x16a>
 804b757:	83 f8 5c             	cmp    $0x5c,%eax
 804b75a:	0f 85 ac 01 00 00    	jne    804b90c <handle_token_preesc+0x2c4>
test/unit/artifacts/cpp/modifiedFunctionsDetector/indent-2.2.9/indent.c:1715
 804b760:	83 7d e8 00          	cmpl   $0x0,-0x18(%ebp)
 804b764:	0f 85 89 01 00 00    	jne    804b8f3 <handle_token_preesc+0x2ab>
 804b76a:	83 7d e4 00          	cmpl   $0x0,-0x1c(%ebp)
 804b76e:	0f 85 82 01 00 00    	jne    804b8f6 <handle_token_preesc+0x2ae>
test/unit/artifacts/cpp/modifiedFunctionsDetector/indent-2.2.9/indent.c:1717
 804b774:	8b 15 74 aa 05 08    	mov    0x805aa74,%edx
 804b77a:	a1 04 ad 05 08       	mov    0x805ad04,%eax
 804b77f:	0f b6 08             	movzbl (%eax),%ecx
 804b782:	88 0a                	mov    %cl,(%edx)
 804b784:	83 c2 01             	add    $0x1,%edx
 804b787:	89 15 74 aa 05 08    	mov    %edx,0x805aa74
 804b78d:	83 c0 01             	add    $0x1,%eax
 804b790:	a3 04 ad 05 08       	mov    %eax,0x805ad04
test/unit/artifacts/cpp/modifiedFunctionsDetector/indent-2.2.9/indent.c:1718
 804b795:	8b 15 04 ad 05 08    	mov    0x805ad04,%edx
 804b79b:	a1 08 ad 05 08       	mov    0x805ad08,%eax
 804b7a0:	39 c2                	cmp    %eax,%edx
 804b7a2:	0f 82 51 01 00 00    	jb     804b8f9 <handle_token_preesc+0x2b1>
test/unit/artifacts/cpp/modifiedFunctionsDetector/indent-2.2.9/indent.c:1720
 804b7a8:	e8 12 75 00 00       	call   8052cbf <fill_buffer>
test/unit/artifacts/cpp/modifiedFunctionsDetector/indent-2.2.9/indent.c:1723
 804b7ad:	e9 5a 01 00 00       	jmp    804b90c <handle_token_preesc+0x2c4>
test/unit/artifacts/cpp/modifiedFunctionsDetector/indent-2.2.9/indent.c:1726
 804b7b2:	a1 04 ad 05 08       	mov    0x805ad04,%eax
 804b7b7:	0f b6 00             	movzbl (%eax),%eax
 804b7ba:	3c 2a                	cmp    $0x2a,%al
 804b7bc:	74 10                	je     804b7ce <handle_token_preesc+0x186>
test/unit/artifacts/cpp/modifiedFunctionsDetector/indent-2.2.9/indent.c:1727
 804b7be:	a1 04 ad 05 08       	mov    0x805ad04,%eax
 804b7c3:	0f b6 00             	movzbl (%eax),%eax
test/unit/artifacts/cpp/modifiedFunctionsDetector/indent-2.2.9/indent.c:1726
 804b7c6:	3c 2f                	cmp    $0x2f,%al
 804b7c8:	0f 85 2e 01 00 00    	jne    804b8fc <handle_token_preesc+0x2b4>
 804b7ce:	83 7d e8 00          	cmpl   $0x0,-0x18(%ebp)
 804b7d2:	0f 85 27 01 00 00    	jne    804b8ff <handle_token_preesc+0x2b7>
 804b7d8:	83 7d e4 00          	cmpl   $0x0,-0x1c(%ebp)
 804b7dc:	0f 85 20 01 00 00    	jne    804b902 <handle_token_preesc+0x2ba>
 804b7e2:	80 7d f7 00          	cmpb   $0x0,-0x9(%ebp)
 804b7e6:	0f 85 19 01 00 00    	jne    804b905 <handle_token_preesc+0x2bd>
test/unit/artifacts/cpp/modifiedFunctionsDetector/indent-2.2.9/indent.c:1730
 804b7ec:	e8 7c 6f 00 00       	call   805276d <current_column>
 804b7f1:	83 e8 01             	sub    $0x1,%eax
 804b7f4:	a3 6c ad 05 08       	mov    %eax,0x805ad6c
test/unit/artifacts/cpp/modifiedFunctionsDetector/indent-2.2.9/indent.c:1732
 804b7f9:	a1 04 ad 05 08       	mov    0x805ad04,%eax
 804b7fe:	0f b6 00             	movzbl (%eax),%eax
 804b801:	3c 2f                	cmp    $0x2f,%al
 804b803:	75 09                	jne    804b80e <handle_token_preesc+0x1c6>
test/unit/artifacts/cpp/modifiedFunctionsDetector/indent-2.2.9/indent.c:1734
 804b805:	c7 45 e4 01 00 00 00 	movl   $0x1,-0x1c(%ebp)
 804b80c:	eb 07                	jmp    804b815 <handle_token_preesc+0x1cd>
test/unit/artifacts/cpp/modifiedFunctionsDetector/indent-2.2.9/indent.c:1738
 804b80e:	c7 45 e8 01 00 00 00 	movl   $0x1,-0x18(%ebp)
test/unit/artifacts/cpp/modifiedFunctionsDetector/indent-2.2.9/indent.c:1741
 804b815:	8b 15 74 aa 05 08    	mov    0x805aa74,%edx
 804b81b:	a1 04 ad 05 08       	mov    0x805ad04,%eax
 804b820:	0f b6 08             	movzbl (%eax),%ecx
 804b823:	88 0a                	mov    %cl,(%edx)
 804b825:	83 c2 01             	add    $0x1,%edx
 804b828:	89 15 74 aa 05 08    	mov    %edx,0x805aa74
 804b82e:	83 c0 01             	add    $0x1,%eax
 804b831:	a3 04 ad 05 08       	mov    %eax,0x805ad04
test/unit/artifacts/cpp/modifiedFunctionsDetector/indent-2.2.9/indent.c:1742
 804b836:	a1 74 aa 05 08       	mov    0x805aa74,%eax
 804b83b:	89 c2                	mov    %eax,%edx
 804b83d:	a1 70 aa 05 08       	mov    0x805aa70,%eax
 804b842:	89 d1                	mov    %edx,%ecx
 804b844:	29 c1                	sub    %eax,%ecx
 804b846:	89 c8                	mov    %ecx,%eax
 804b848:	83 e8 02             	sub    $0x2,%eax
 804b84b:	89 45 e0             	mov    %eax,-0x20(%ebp)
test/unit/artifacts/cpp/modifiedFunctionsDetector/indent-2.2.9/indent.c:1747
 804b84e:	8b 15 58 ad 05 08    	mov    0x805ad58,%edx
 804b854:	a1 5c ad 05 08       	mov    0x805ad5c,%eax
 804b859:	39 c2                	cmp    %eax,%edx
 804b85b:	0f 85 a7 00 00 00    	jne    804b908 <handle_token_preesc+0x2c0>
test/unit/artifacts/cpp/modifiedFunctionsDetector/indent-2.2.9/indent.c:1749
 804b861:	e8 07 6f 00 00       	call   805276d <current_column>
 804b866:	83 e8 02             	sub    $0x2,%eax
 804b869:	a3 68 ad 05 08       	mov    %eax,0x805ad68
test/unit/artifacts/cpp/modifiedFunctionsDetector/indent-2.2.9/indent.c:1752
 804b86e:	e9 99 00 00 00       	jmp    804b90c <handle_token_preesc+0x2c4>
test/unit/artifacts/cpp/modifiedFunctionsDetector/indent-2.2.9/indent.c:1756
 804b873:	80 7d f7 00          	cmpb   $0x0,-0x9(%ebp)
 804b877:	75 13                	jne    804b88c <handle_token_preesc+0x244>
test/unit/artifacts/cpp/modifiedFunctionsDetector/indent-2.2.9/indent.c:1758
 804b879:	a1 74 aa 05 08       	mov    0x805aa74,%eax
 804b87e:	83 e8 01             	sub    $0x1,%eax
 804b881:	0f b6 00             	movzbl (%eax),%eax
 804b884:	88 45 f7             	mov    %al,-0x9(%ebp)
test/unit/artifacts/cpp/modifiedFunctionsDetector/indent-2.2.9/indent.c:1765
 804b887:	e9 80 00 00 00       	jmp    804b90c <handle_token_preesc+0x2c4>
test/unit/artifacts/cpp/modifiedFunctionsDetector/indent-2.2.9/indent.c:1760
 804b88c:	a1 74 aa 05 08       	mov    0x805aa74,%eax
 804b891:	83 e8 01             	sub    $0x1,%eax
 804b894:	0f b6 00             	movzbl (%eax),%eax
 804b897:	3a 45 f7             	cmp    -0x9(%ebp),%al
 804b89a:	75 6f                	jne    804b90b <handle_token_preesc+0x2c3>
test/unit/artifacts/cpp/modifiedFunctionsDetector/indent-2.2.9/indent.c:1762
 804b89c:	c6 45 f7 00          	movb   $0x0,-0x9(%ebp)
test/unit/artifacts/cpp/modifiedFunctionsDetector/indent-2.2.9/indent.c:1765
 804b8a0:	eb 6a                	jmp    804b90c <handle_token_preesc+0x2c4>
test/unit/artifacts/cpp/modifiedFunctionsDetector/indent-2.2.9/indent.c:1768
 804b8a2:	a1 04 ad 05 08       	mov    0x805ad04,%eax
 804b8a7:	0f b6 00             	movzbl (%eax),%eax
 804b8aa:	3c 2f                	cmp    $0x2f,%al
 804b8ac:	75 5e                	jne    804b90c <handle_token_preesc+0x2c4>
 804b8ae:	83 7d e8 00          	cmpl   $0x0,-0x18(%ebp)
 804b8b2:	74 58                	je     804b90c <handle_token_preesc+0x2c4>
test/unit/artifacts/cpp/modifiedFunctionsDetector/indent-2.2.9/indent.c:1770
 804b8b4:	c7 45 e8 00 00 00 00 	movl   $0x0,-0x18(%ebp)
test/unit/artifacts/cpp/modifiedFunctionsDetector/indent-2.2.9/indent.c:1771
 804b8bb:	8b 15 74 aa 05 08    	mov    0x805aa74,%edx
 804b8c1:	a1 04 ad 05 08       	mov    0x805ad04,%eax
 804b8c6:	0f b6 08             	movzbl (%eax),%ecx
 804b8c9:	88 0a                	mov    %cl,(%edx)
 804b8cb:	83 c2 01             	add    $0x1,%edx
 804b8ce:	89 15 74 aa 05 08    	mov    %edx,0x805aa74
 804b8d4:	83 c0 01             	add    $0x1,%eax
 804b8d7:	a3 04 ad 05 08       	mov    %eax,0x805ad04
test/unit/artifacts/cpp/modifiedFunctionsDetector/indent-2.2.9/indent.c:1772
 804b8dc:	a1 74 aa 05 08       	mov    0x805aa74,%eax
 804b8e1:	89 c2                	mov    %eax,%edx
 804b8e3:	a1 70 aa 05 08       	mov    0x805aa70,%eax
 804b8e8:	89 d3                	mov    %edx,%ebx
 804b8ea:	29 c3                	sub    %eax,%ebx
 804b8ec:	89 d8                	mov    %ebx,%eax
 804b8ee:	89 45 dc             	mov    %eax,-0x24(%ebp)
 804b8f1:	eb 19                	jmp    804b90c <handle_token_preesc+0x2c4>
test/unit/artifacts/cpp/modifiedFunctionsDetector/indent-2.2.9/indent.c:1723
 804b8f3:	90                   	nop
 804b8f4:	eb 16                	jmp    804b90c <handle_token_preesc+0x2c4>
 804b8f6:	90                   	nop
 804b8f7:	eb 13                	jmp    804b90c <handle_token_preesc+0x2c4>
 804b8f9:	90                   	nop
 804b8fa:	eb 10                	jmp    804b90c <handle_token_preesc+0x2c4>
test/unit/artifacts/cpp/modifiedFunctionsDetector/indent-2.2.9/indent.c:1752
 804b8fc:	90                   	nop
 804b8fd:	eb 0d                	jmp    804b90c <handle_token_preesc+0x2c4>
 804b8ff:	90                   	nop
 804b900:	eb 0a                	jmp    804b90c <handle_token_preesc+0x2c4>
 804b902:	90                   	nop
 804b903:	eb 07                	jmp    804b90c <handle_token_preesc+0x2c4>
 804b905:	90                   	nop
 804b906:	eb 04                	jmp    804b90c <handle_token_preesc+0x2c4>
 804b908:	90                   	nop
 804b909:	eb 01                	jmp    804b90c <handle_token_preesc+0x2c4>
test/unit/artifacts/cpp/modifiedFunctionsDetector/indent-2.2.9/indent.c:1765
 804b90b:	90                   	nop
test/unit/artifacts/cpp/modifiedFunctionsDetector/indent-2.2.9/indent.c:1702
 804b90c:	0f b6 05 0c ad 05 08 	movzbl 0x805ad0c,%eax
 804b913:	84 c0                	test   %al,%al
 804b915:	75 2b                	jne    804b942 <handle_token_preesc+0x2fa>
 804b917:	a1 04 ad 05 08       	mov    0x805ad04,%eax
 804b91c:	0f b6 00             	movzbl (%eax),%eax
 804b91f:	3c 0a                	cmp    $0xa,%al
 804b921:	0f 85 c0 fd ff ff    	jne    804b6e7 <handle_token_preesc+0x9f>
 804b927:	83 7d e8 00          	cmpl   $0x0,-0x18(%ebp)
 804b92b:	0f 85 b6 fd ff ff    	jne    804b6e7 <handle_token_preesc+0x9f>
test/unit/artifacts/cpp/modifiedFunctionsDetector/indent-2.2.9/indent.c:1778
 804b931:	eb 10                	jmp    804b943 <handle_token_preesc+0x2fb>
test/unit/artifacts/cpp/modifiedFunctionsDetector/indent-2.2.9/indent.c:1780
 804b933:	a1 74 aa 05 08       	mov    0x805aa74,%eax
 804b938:	83 e8 01             	sub    $0x1,%eax
 804b93b:	a3 74 aa 05 08       	mov    %eax,0x805aa74
 804b940:	eb 01                	jmp    804b943 <handle_token_preesc+0x2fb>
test/unit/artifacts/cpp/modifiedFunctionsDetector/indent-2.2.9/indent.c:1778
 804b942:	90                   	nop
 804b943:	8b 15 74 aa 05 08    	mov    0x805aa74,%edx
 804b949:	a1 70 aa 05 08       	mov    0x805aa70,%eax
 804b94e:	39 c2                	cmp    %eax,%edx
 804b950:	76 1e                	jbe    804b970 <handle_token_preesc+0x328>
 804b952:	a1 74 aa 05 08       	mov    0x805aa74,%eax
 804b957:	83 e8 01             	sub    $0x1,%eax
 804b95a:	0f b6 00             	movzbl (%eax),%eax
 804b95d:	3c 20                	cmp    $0x20,%al
 804b95f:	74 d2                	je     804b933 <handle_token_preesc+0x2eb>
 804b961:	a1 74 aa 05 08       	mov    0x805aa74,%eax
 804b966:	83 e8 01             	sub    $0x1,%eax
 804b969:	0f b6 00             	movzbl (%eax),%eax
 804b96c:	3c 09                	cmp    $0x9,%al
 804b96e:	74 c3                	je     804b933 <handle_token_preesc+0x2eb>
test/unit/artifacts/cpp/modifiedFunctionsDetector/indent-2.2.9/indent.c:1784
 804b970:	83 7d e4 00          	cmpl   $0x0,-0x1c(%ebp)
 804b974:	74 3d                	je     804b9b3 <handle_token_preesc+0x36b>
test/unit/artifacts/cpp/modifiedFunctionsDetector/indent-2.2.9/indent.c:1786
 804b976:	c7 45 e4 00 00 00 00 	movl   $0x0,-0x1c(%ebp)
test/unit/artifacts/cpp/modifiedFunctionsDetector/indent-2.2.9/indent.c:1787
 804b97d:	8b 15 74 aa 05 08    	mov    0x805aa74,%edx
 804b983:	a1 04 ad 05 08       	mov    0x805ad04,%eax
 804b988:	0f b6 08             	movzbl (%eax),%ecx
 804b98b:	88 0a                	mov    %cl,(%edx)
 804b98d:	83 c2 01             	add    $0x1,%edx
 804b990:	89 15 74 aa 05 08    	mov    %edx,0x805aa74
 804b996:	83 c0 01             	add    $0x1,%eax
 804b999:	a3 04 ad 05 08       	mov    %eax,0x805ad04
test/unit/artifacts/cpp/modifiedFunctionsDetector/indent-2.2.9/indent.c:1788
 804b99e:	a1 74 aa 05 08       	mov    0x805aa74,%eax
 804b9a3:	89 c2                	mov    %eax,%edx
 804b9a5:	a1 70 aa 05 08       	mov    0x805aa70,%eax
 804b9aa:	89 d1                	mov    %edx,%ecx
 804b9ac:	29 c1                	sub    %eax,%ecx
 804b9ae:	89 c8                	mov    %ecx,%eax
 804b9b0:	89 45 dc             	mov    %eax,-0x24(%ebp)
test/unit/artifacts/cpp/modifiedFunctionsDetector/indent-2.2.9/indent.c:1791
 804b9b3:	a1 74 aa 05 08       	mov    0x805aa74,%eax
 804b9b8:	89 c2                	mov    %eax,%edx
 804b9ba:	a1 70 aa 05 08       	mov    0x805aa70,%eax
 804b9bf:	89 d3                	mov    %edx,%ebx
 804b9c1:	29 c3                	sub    %eax,%ebx
 804b9c3:	89 d8                	mov    %ebx,%eax
 804b9c5:	3b 45 dc             	cmp    -0x24(%ebp),%eax
 804b9c8:	0f 85 95 01 00 00    	jne    804bb63 <handle_token_preesc+0x51b>
 804b9ce:	a1 a0 aa 05 08       	mov    0x805aaa0,%eax
 804b9d3:	85 c0                	test   %eax,%eax
 804b9d5:	0f 85 88 01 00 00    	jne    804bb63 <handle_token_preesc+0x51b>
test/unit/artifacts/cpp/modifiedFunctionsDetector/indent-2.2.9/indent.c:1795
 804b9db:	8b 15 5c ad 05 08    	mov    0x805ad5c,%edx
 804b9e1:	a1 58 ad 05 08       	mov    0x805ad58,%eax
 804b9e6:	39 c2                	cmp    %eax,%edx
 804b9e8:	74 4e                	je     804ba38 <handle_token_preesc+0x3f0>
test/unit/artifacts/cpp/modifiedFunctionsDetector/indent-2.2.9/indent.c:1797
 804b9ea:	c7 44 24 04 02 00 00 	movl   $0x2,0x4(%esp)
 804b9f1:	00 
 804b9f2:	c7 04 24 58 ad 05 08 	movl   $0x805ad58,(%esp)
 804b9f9:	e8 88 d5 ff ff       	call   8048f86 <need_chars>
